Archive member included to satisfy reference by file (symbol)

c:/vsarm/armcc/bin/../lib/gcc/arm-none-eabi/9.3.1/../../../../arm-none-eabi/lib/thumb/v7e-m+dp/hard\libc.a(lib_a-exit.o)
                              c:/vsarm/armcc/bin/../lib/gcc/arm-none-eabi/9.3.1/../../../../arm-none-eabi/lib/thumb/v7e-m+dp/hard/crt0.o (exit)
c:/vsarm/armcc/bin/../lib/gcc/arm-none-eabi/9.3.1/../../../../arm-none-eabi/lib/thumb/v7e-m+dp/hard\libc.a(lib_a-impure.o)
                              c:/vsarm/armcc/bin/../lib/gcc/arm-none-eabi/9.3.1/../../../../arm-none-eabi/lib/thumb/v7e-m+dp/hard\libc.a(lib_a-exit.o) (_global_impure_ptr)
c:/vsarm/armcc/bin/../lib/gcc/arm-none-eabi/9.3.1/../../../../arm-none-eabi/lib/thumb/v7e-m+dp/hard\libc.a(lib_a-init.o)
                              c:/vsarm/armcc/bin/../lib/gcc/arm-none-eabi/9.3.1/../../../../arm-none-eabi/lib/thumb/v7e-m+dp/hard/crt0.o (__libc_init_array)
c:/vsarm/armcc/bin/../lib/gcc/arm-none-eabi/9.3.1/../../../../arm-none-eabi/lib/thumb/v7e-m+dp/hard\libc.a(lib_a-memset.o)
                              c:/vsarm/armcc/bin/../lib/gcc/arm-none-eabi/9.3.1/../../../../arm-none-eabi/lib/thumb/v7e-m+dp/hard/crt0.o (memset)
c:/vsarm/armcc/bin/../lib/gcc/arm-none-eabi/9.3.1/../../../../arm-none-eabi/lib/thumb/v7e-m+dp/hard\libc.a(lib_a-sprintf.o)
                              build/main.o (sprintf)
c:/vsarm/armcc/bin/../lib/gcc/arm-none-eabi/9.3.1/../../../../arm-none-eabi/lib/thumb/v7e-m+dp/hard\libc.a(lib_a-strlen.o)
                              build/main.o (strlen)
c:/vsarm/armcc/bin/../lib/gcc/arm-none-eabi/9.3.1/../../../../arm-none-eabi/lib/thumb/v7e-m+dp/hard\libc.a(lib_a-svfprintf.o)
                              c:/vsarm/armcc/bin/../lib/gcc/arm-none-eabi/9.3.1/../../../../arm-none-eabi/lib/thumb/v7e-m+dp/hard\libc.a(lib_a-sprintf.o) (_svfprintf_r)
c:/vsarm/armcc/bin/../lib/gcc/arm-none-eabi/9.3.1/../../../../arm-none-eabi/lib/thumb/v7e-m+dp/hard\libc.a(lib_a-__call_atexit.o)
                              c:/vsarm/armcc/bin/../lib/gcc/arm-none-eabi/9.3.1/../../../../arm-none-eabi/lib/thumb/v7e-m+dp/hard\libc.a(lib_a-exit.o) (__call_exitprocs)
c:/vsarm/armcc/bin/../lib/gcc/arm-none-eabi/9.3.1/../../../../arm-none-eabi/lib/thumb/v7e-m+dp/hard\libc.a(lib_a-atexit.o)
                              c:/vsarm/armcc/bin/../lib/gcc/arm-none-eabi/9.3.1/../../../../arm-none-eabi/lib/thumb/v7e-m+dp/hard\libc.a(lib_a-__call_atexit.o) (atexit)
c:/vsarm/armcc/bin/../lib/gcc/arm-none-eabi/9.3.1/../../../../arm-none-eabi/lib/thumb/v7e-m+dp/hard\libc.a(lib_a-dtoa.o)
                              c:/vsarm/armcc/bin/../lib/gcc/arm-none-eabi/9.3.1/../../../../arm-none-eabi/lib/thumb/v7e-m+dp/hard\libc.a(lib_a-svfprintf.o) (_dtoa_r)
c:/vsarm/armcc/bin/../lib/gcc/arm-none-eabi/9.3.1/../../../../arm-none-eabi/lib/thumb/v7e-m+dp/hard\libc.a(lib_a-fini.o)
                              c:/vsarm/armcc/bin/../lib/gcc/arm-none-eabi/9.3.1/../../../../arm-none-eabi/lib/thumb/v7e-m+dp/hard\libc.a(lib_a-__call_atexit.o) (__libc_fini_array)
c:/vsarm/armcc/bin/../lib/gcc/arm-none-eabi/9.3.1/../../../../arm-none-eabi/lib/thumb/v7e-m+dp/hard\libc.a(lib_a-freer.o)
                              c:/vsarm/armcc/bin/../lib/gcc/arm-none-eabi/9.3.1/../../../../arm-none-eabi/lib/thumb/v7e-m+dp/hard\libc.a(lib_a-svfprintf.o) (_free_r)
c:/vsarm/armcc/bin/../lib/gcc/arm-none-eabi/9.3.1/../../../../arm-none-eabi/lib/thumb/v7e-m+dp/hard\libc.a(lib_a-localeconv.o)
                              c:/vsarm/armcc/bin/../lib/gcc/arm-none-eabi/9.3.1/../../../../arm-none-eabi/lib/thumb/v7e-m+dp/hard\libc.a(lib_a-svfprintf.o) (_localeconv_r)
c:/vsarm/armcc/bin/../lib/gcc/arm-none-eabi/9.3.1/../../../../arm-none-eabi/lib/thumb/v7e-m+dp/hard\libc.a(lib_a-lock.o)
                              c:/vsarm/armcc/bin/../lib/gcc/arm-none-eabi/9.3.1/../../../../arm-none-eabi/lib/thumb/v7e-m+dp/hard\libc.a(lib_a-__call_atexit.o) (__retarget_lock_acquire_recursive)
c:/vsarm/armcc/bin/../lib/gcc/arm-none-eabi/9.3.1/../../../../arm-none-eabi/lib/thumb/v7e-m+dp/hard\libc.a(lib_a-mallocr.o)
                              c:/vsarm/armcc/bin/../lib/gcc/arm-none-eabi/9.3.1/../../../../arm-none-eabi/lib/thumb/v7e-m+dp/hard\libc.a(lib_a-svfprintf.o) (_malloc_r)
c:/vsarm/armcc/bin/../lib/gcc/arm-none-eabi/9.3.1/../../../../arm-none-eabi/lib/thumb/v7e-m+dp/hard\libc.a(lib_a-memchr.o)
                              c:/vsarm/armcc/bin/../lib/gcc/arm-none-eabi/9.3.1/../../../../arm-none-eabi/lib/thumb/v7e-m+dp/hard\libc.a(lib_a-svfprintf.o) (memchr)
c:/vsarm/armcc/bin/../lib/gcc/arm-none-eabi/9.3.1/../../../../arm-none-eabi/lib/thumb/v7e-m+dp/hard\libc.a(lib_a-memcpy.o)
                              c:/vsarm/armcc/bin/../lib/gcc/arm-none-eabi/9.3.1/../../../../arm-none-eabi/lib/thumb/v7e-m+dp/hard\libc.a(lib_a-dtoa.o) (memcpy)
c:/vsarm/armcc/bin/../lib/gcc/arm-none-eabi/9.3.1/../../../../arm-none-eabi/lib/thumb/v7e-m+dp/hard\libc.a(lib_a-mlock.o)
                              c:/vsarm/armcc/bin/../lib/gcc/arm-none-eabi/9.3.1/../../../../arm-none-eabi/lib/thumb/v7e-m+dp/hard\libc.a(lib_a-freer.o) (__malloc_lock)
c:/vsarm/armcc/bin/../lib/gcc/arm-none-eabi/9.3.1/../../../../arm-none-eabi/lib/thumb/v7e-m+dp/hard\libc.a(lib_a-mprec.o)
                              c:/vsarm/armcc/bin/../lib/gcc/arm-none-eabi/9.3.1/../../../../arm-none-eabi/lib/thumb/v7e-m+dp/hard\libc.a(lib_a-dtoa.o) (_Balloc)
c:/vsarm/armcc/bin/../lib/gcc/arm-none-eabi/9.3.1/../../../../arm-none-eabi/lib/thumb/v7e-m+dp/hard\libc.a(lib_a-s_frexp.o)
                              c:/vsarm/armcc/bin/../lib/gcc/arm-none-eabi/9.3.1/../../../../arm-none-eabi/lib/thumb/v7e-m+dp/hard\libc.a(lib_a-svfprintf.o) (frexp)
c:/vsarm/armcc/bin/../lib/gcc/arm-none-eabi/9.3.1/../../../../arm-none-eabi/lib/thumb/v7e-m+dp/hard\libc.a(lib_a-sbrkr.o)
                              c:/vsarm/armcc/bin/../lib/gcc/arm-none-eabi/9.3.1/../../../../arm-none-eabi/lib/thumb/v7e-m+dp/hard\libc.a(lib_a-freer.o) (_sbrk_r)
c:/vsarm/armcc/bin/../lib/gcc/arm-none-eabi/9.3.1/../../../../arm-none-eabi/lib/thumb/v7e-m+dp/hard\libc.a(lib_a-strncpy.o)
                              c:/vsarm/armcc/bin/../lib/gcc/arm-none-eabi/9.3.1/../../../../arm-none-eabi/lib/thumb/v7e-m+dp/hard\libc.a(lib_a-svfprintf.o) (strncpy)
c:/vsarm/armcc/bin/../lib/gcc/arm-none-eabi/9.3.1/../../../../arm-none-eabi/lib/thumb/v7e-m+dp/hard\libc.a(lib_a-svfiprintf.o)
                              c:/vsarm/armcc/bin/../lib/gcc/arm-none-eabi/9.3.1/../../../../arm-none-eabi/lib/thumb/v7e-m+dp/hard\libc.a(lib_a-svfprintf.o) (__ssprint_r)
c:/vsarm/armcc/bin/../lib/gcc/arm-none-eabi/9.3.1/../../../../arm-none-eabi/lib/thumb/v7e-m+dp/hard\libc.a(lib_a-__atexit.o)
                              c:/vsarm/armcc/bin/../lib/gcc/arm-none-eabi/9.3.1/../../../../arm-none-eabi/lib/thumb/v7e-m+dp/hard\libc.a(lib_a-atexit.o) (__register_exitproc)
c:/vsarm/armcc/bin/../lib/gcc/arm-none-eabi/9.3.1/../../../../arm-none-eabi/lib/thumb/v7e-m+dp/hard\libc.a(lib_a-assert.o)
                              c:/vsarm/armcc/bin/../lib/gcc/arm-none-eabi/9.3.1/../../../../arm-none-eabi/lib/thumb/v7e-m+dp/hard\libc.a(lib_a-dtoa.o) (__assert_func)
c:/vsarm/armcc/bin/../lib/gcc/arm-none-eabi/9.3.1/../../../../arm-none-eabi/lib/thumb/v7e-m+dp/hard\libc.a(lib_a-callocr.o)
                              c:/vsarm/armcc/bin/../lib/gcc/arm-none-eabi/9.3.1/../../../../arm-none-eabi/lib/thumb/v7e-m+dp/hard\libc.a(lib_a-mprec.o) (_calloc_r)
c:/vsarm/armcc/bin/../lib/gcc/arm-none-eabi/9.3.1/../../../../arm-none-eabi/lib/thumb/v7e-m+dp/hard\libc.a(lib_a-fiprintf.o)
                              c:/vsarm/armcc/bin/../lib/gcc/arm-none-eabi/9.3.1/../../../../arm-none-eabi/lib/thumb/v7e-m+dp/hard\libc.a(lib_a-assert.o) (fiprintf)
c:/vsarm/armcc/bin/../lib/gcc/arm-none-eabi/9.3.1/../../../../arm-none-eabi/lib/thumb/v7e-m+dp/hard\libc.a(lib_a-locale.o)
                              c:/vsarm/armcc/bin/../lib/gcc/arm-none-eabi/9.3.1/../../../../arm-none-eabi/lib/thumb/v7e-m+dp/hard\libc.a(lib_a-localeconv.o) (__global_locale)
c:/vsarm/armcc/bin/../lib/gcc/arm-none-eabi/9.3.1/../../../../arm-none-eabi/lib/thumb/v7e-m+dp/hard\libc.a(lib_a-mbtowc_r.o)
                              c:/vsarm/armcc/bin/../lib/gcc/arm-none-eabi/9.3.1/../../../../arm-none-eabi/lib/thumb/v7e-m+dp/hard\libc.a(lib_a-locale.o) (__ascii_mbtowc)
c:/vsarm/armcc/bin/../lib/gcc/arm-none-eabi/9.3.1/../../../../arm-none-eabi/lib/thumb/v7e-m+dp/hard\libc.a(lib_a-memmove.o)
                              c:/vsarm/armcc/bin/../lib/gcc/arm-none-eabi/9.3.1/../../../../arm-none-eabi/lib/thumb/v7e-m+dp/hard\libc.a(lib_a-svfiprintf.o) (memmove)
c:/vsarm/armcc/bin/../lib/gcc/arm-none-eabi/9.3.1/../../../../arm-none-eabi/lib/thumb/v7e-m+dp/hard\libc.a(lib_a-reallocr.o)
                              c:/vsarm/armcc/bin/../lib/gcc/arm-none-eabi/9.3.1/../../../../arm-none-eabi/lib/thumb/v7e-m+dp/hard\libc.a(lib_a-svfiprintf.o) (_realloc_r)
c:/vsarm/armcc/bin/../lib/gcc/arm-none-eabi/9.3.1/../../../../arm-none-eabi/lib/thumb/v7e-m+dp/hard\libc.a(lib_a-reent.o)
                              c:/vsarm/armcc/bin/../lib/gcc/arm-none-eabi/9.3.1/../../../../arm-none-eabi/lib/thumb/v7e-m+dp/hard\libc.a(lib_a-sbrkr.o) (errno)
c:/vsarm/armcc/bin/../lib/gcc/arm-none-eabi/9.3.1/../../../../arm-none-eabi/lib/thumb/v7e-m+dp/hard\libc.a(lib_a-strcmp.o)
                              c:/vsarm/armcc/bin/../lib/gcc/arm-none-eabi/9.3.1/../../../../arm-none-eabi/lib/thumb/v7e-m+dp/hard\libc.a(lib_a-locale.o) (strcmp)
c:/vsarm/armcc/bin/../lib/gcc/arm-none-eabi/9.3.1/../../../../arm-none-eabi/lib/thumb/v7e-m+dp/hard\libc.a(lib_a-vfiprintf.o)
                              c:/vsarm/armcc/bin/../lib/gcc/arm-none-eabi/9.3.1/../../../../arm-none-eabi/lib/thumb/v7e-m+dp/hard\libc.a(lib_a-fiprintf.o) (_vfiprintf_r)
c:/vsarm/armcc/bin/../lib/gcc/arm-none-eabi/9.3.1/../../../../arm-none-eabi/lib/thumb/v7e-m+dp/hard\libc.a(lib_a-wctomb_r.o)
                              c:/vsarm/armcc/bin/../lib/gcc/arm-none-eabi/9.3.1/../../../../arm-none-eabi/lib/thumb/v7e-m+dp/hard\libc.a(lib_a-locale.o) (__ascii_wctomb)
c:/vsarm/armcc/bin/../lib/gcc/arm-none-eabi/9.3.1/../../../../arm-none-eabi/lib/thumb/v7e-m+dp/hard\libc.a(lib_a-wsetup.o)
                              c:/vsarm/armcc/bin/../lib/gcc/arm-none-eabi/9.3.1/../../../../arm-none-eabi/lib/thumb/v7e-m+dp/hard\libc.a(lib_a-vfiprintf.o) (__swsetup_r)
c:/vsarm/armcc/bin/../lib/gcc/arm-none-eabi/9.3.1/../../../../arm-none-eabi/lib/thumb/v7e-m+dp/hard\libc.a(lib_a-abort.o)
                              c:/vsarm/armcc/bin/../lib/gcc/arm-none-eabi/9.3.1/../../../../arm-none-eabi/lib/thumb/v7e-m+dp/hard\libc.a(lib_a-assert.o) (abort)
c:/vsarm/armcc/bin/../lib/gcc/arm-none-eabi/9.3.1/../../../../arm-none-eabi/lib/thumb/v7e-m+dp/hard\libc.a(lib_a-ctype_.o)
                              c:/vsarm/armcc/bin/../lib/gcc/arm-none-eabi/9.3.1/../../../../arm-none-eabi/lib/thumb/v7e-m+dp/hard\libc.a(lib_a-locale.o) (_ctype_)
c:/vsarm/armcc/bin/../lib/gcc/arm-none-eabi/9.3.1/../../../../arm-none-eabi/lib/thumb/v7e-m+dp/hard\libc.a(lib_a-fflush.o)
                              c:/vsarm/armcc/bin/../lib/gcc/arm-none-eabi/9.3.1/../../../../arm-none-eabi/lib/thumb/v7e-m+dp/hard\libc.a(lib_a-vfiprintf.o) (_fflush_r)
c:/vsarm/armcc/bin/../lib/gcc/arm-none-eabi/9.3.1/../../../../arm-none-eabi/lib/thumb/v7e-m+dp/hard\libc.a(lib_a-findfp.o)
                              c:/vsarm/armcc/bin/../lib/gcc/arm-none-eabi/9.3.1/../../../../arm-none-eabi/lib/thumb/v7e-m+dp/hard\libc.a(lib_a-vfiprintf.o) (__sinit)
c:/vsarm/armcc/bin/../lib/gcc/arm-none-eabi/9.3.1/../../../../arm-none-eabi/lib/thumb/v7e-m+dp/hard\libc.a(lib_a-fputwc.o)
                              c:/vsarm/armcc/bin/../lib/gcc/arm-none-eabi/9.3.1/../../../../arm-none-eabi/lib/thumb/v7e-m+dp/hard\libc.a(lib_a-vfiprintf.o) (_fputwc_r)
c:/vsarm/armcc/bin/../lib/gcc/arm-none-eabi/9.3.1/../../../../arm-none-eabi/lib/thumb/v7e-m+dp/hard\libc.a(lib_a-fvwrite.o)
                              c:/vsarm/armcc/bin/../lib/gcc/arm-none-eabi/9.3.1/../../../../arm-none-eabi/lib/thumb/v7e-m+dp/hard\libc.a(lib_a-vfiprintf.o) (__sfvwrite_r)
c:/vsarm/armcc/bin/../lib/gcc/arm-none-eabi/9.3.1/../../../../arm-none-eabi/lib/thumb/v7e-m+dp/hard\libc.a(lib_a-fwalk.o)
                              c:/vsarm/armcc/bin/../lib/gcc/arm-none-eabi/9.3.1/../../../../arm-none-eabi/lib/thumb/v7e-m+dp/hard\libc.a(lib_a-findfp.o) (_fwalk)
c:/vsarm/armcc/bin/../lib/gcc/arm-none-eabi/9.3.1/../../../../arm-none-eabi/lib/thumb/v7e-m+dp/hard\libc.a(lib_a-makebuf.o)
                              c:/vsarm/armcc/bin/../lib/gcc/arm-none-eabi/9.3.1/../../../../arm-none-eabi/lib/thumb/v7e-m+dp/hard\libc.a(lib_a-wsetup.o) (__smakebuf_r)
c:/vsarm/armcc/bin/../lib/gcc/arm-none-eabi/9.3.1/../../../../arm-none-eabi/lib/thumb/v7e-m+dp/hard\libc.a(lib_a-signal.o)
                              c:/vsarm/armcc/bin/../lib/gcc/arm-none-eabi/9.3.1/../../../../arm-none-eabi/lib/thumb/v7e-m+dp/hard\libc.a(lib_a-abort.o) (raise)
c:/vsarm/armcc/bin/../lib/gcc/arm-none-eabi/9.3.1/../../../../arm-none-eabi/lib/thumb/v7e-m+dp/hard\libc.a(lib_a-signalr.o)
                              c:/vsarm/armcc/bin/../lib/gcc/arm-none-eabi/9.3.1/../../../../arm-none-eabi/lib/thumb/v7e-m+dp/hard\libc.a(lib_a-signal.o) (_kill_r)
c:/vsarm/armcc/bin/../lib/gcc/arm-none-eabi/9.3.1/../../../../arm-none-eabi/lib/thumb/v7e-m+dp/hard\libc.a(lib_a-stdio.o)
                              c:/vsarm/armcc/bin/../lib/gcc/arm-none-eabi/9.3.1/../../../../arm-none-eabi/lib/thumb/v7e-m+dp/hard\libc.a(lib_a-findfp.o) (__sread)
c:/vsarm/armcc/bin/../lib/gcc/arm-none-eabi/9.3.1/../../../../arm-none-eabi/lib/thumb/v7e-m+dp/hard\libc.a(lib_a-wbuf.o)
                              c:/vsarm/armcc/bin/../lib/gcc/arm-none-eabi/9.3.1/../../../../arm-none-eabi/lib/thumb/v7e-m+dp/hard\libc.a(lib_a-fputwc.o) (__swbuf_r)
c:/vsarm/armcc/bin/../lib/gcc/arm-none-eabi/9.3.1/../../../../arm-none-eabi/lib/thumb/v7e-m+dp/hard\libc.a(lib_a-wcrtomb.o)
                              c:/vsarm/armcc/bin/../lib/gcc/arm-none-eabi/9.3.1/../../../../arm-none-eabi/lib/thumb/v7e-m+dp/hard\libc.a(lib_a-fputwc.o) (_wcrtomb_r)
c:/vsarm/armcc/bin/../lib/gcc/arm-none-eabi/9.3.1/../../../../arm-none-eabi/lib/thumb/v7e-m+dp/hard\libc.a(lib_a-writer.o)
                              c:/vsarm/armcc/bin/../lib/gcc/arm-none-eabi/9.3.1/../../../../arm-none-eabi/lib/thumb/v7e-m+dp/hard\libc.a(lib_a-stdio.o) (_write_r)
c:/vsarm/armcc/bin/../lib/gcc/arm-none-eabi/9.3.1/../../../../arm-none-eabi/lib/thumb/v7e-m+dp/hard\libc.a(lib_a-closer.o)
                              c:/vsarm/armcc/bin/../lib/gcc/arm-none-eabi/9.3.1/../../../../arm-none-eabi/lib/thumb/v7e-m+dp/hard\libc.a(lib_a-stdio.o) (_close_r)
c:/vsarm/armcc/bin/../lib/gcc/arm-none-eabi/9.3.1/../../../../arm-none-eabi/lib/thumb/v7e-m+dp/hard\libc.a(lib_a-fclose.o)
                              c:/vsarm/armcc/bin/../lib/gcc/arm-none-eabi/9.3.1/../../../../arm-none-eabi/lib/thumb/v7e-m+dp/hard\libc.a(lib_a-findfp.o) (_fclose_r)
c:/vsarm/armcc/bin/../lib/gcc/arm-none-eabi/9.3.1/../../../../arm-none-eabi/lib/thumb/v7e-m+dp/hard\libc.a(lib_a-fstatr.o)
                              c:/vsarm/armcc/bin/../lib/gcc/arm-none-eabi/9.3.1/../../../../arm-none-eabi/lib/thumb/v7e-m+dp/hard\libc.a(lib_a-makebuf.o) (_fstat_r)
c:/vsarm/armcc/bin/../lib/gcc/arm-none-eabi/9.3.1/../../../../arm-none-eabi/lib/thumb/v7e-m+dp/hard\libc.a(lib_a-isattyr.o)
                              c:/vsarm/armcc/bin/../lib/gcc/arm-none-eabi/9.3.1/../../../../arm-none-eabi/lib/thumb/v7e-m+dp/hard\libc.a(lib_a-makebuf.o) (_isatty_r)
c:/vsarm/armcc/bin/../lib/gcc/arm-none-eabi/9.3.1/../../../../arm-none-eabi/lib/thumb/v7e-m+dp/hard\libc.a(lib_a-lseekr.o)
                              c:/vsarm/armcc/bin/../lib/gcc/arm-none-eabi/9.3.1/../../../../arm-none-eabi/lib/thumb/v7e-m+dp/hard\libc.a(lib_a-stdio.o) (_lseek_r)
c:/vsarm/armcc/bin/../lib/gcc/arm-none-eabi/9.3.1/../../../../arm-none-eabi/lib/thumb/v7e-m+dp/hard\libc.a(lib_a-readr.o)
                              c:/vsarm/armcc/bin/../lib/gcc/arm-none-eabi/9.3.1/../../../../arm-none-eabi/lib/thumb/v7e-m+dp/hard\libc.a(lib_a-stdio.o) (_read_r)
c:/vsarm/armcc/bin/../lib/gcc/arm-none-eabi/9.3.1/../../../../arm-none-eabi/lib/thumb/v7e-m+dp/hard\libnosys.a(close.o)
                              c:/vsarm/armcc/bin/../lib/gcc/arm-none-eabi/9.3.1/../../../../arm-none-eabi/lib/thumb/v7e-m+dp/hard\libc.a(lib_a-closer.o) (_close)
c:/vsarm/armcc/bin/../lib/gcc/arm-none-eabi/9.3.1/../../../../arm-none-eabi/lib/thumb/v7e-m+dp/hard\libnosys.a(fstat.o)
                              c:/vsarm/armcc/bin/../lib/gcc/arm-none-eabi/9.3.1/../../../../arm-none-eabi/lib/thumb/v7e-m+dp/hard\libc.a(lib_a-fstatr.o) (_fstat)
c:/vsarm/armcc/bin/../lib/gcc/arm-none-eabi/9.3.1/../../../../arm-none-eabi/lib/thumb/v7e-m+dp/hard\libnosys.a(getpid.o)
                              c:/vsarm/armcc/bin/../lib/gcc/arm-none-eabi/9.3.1/../../../../arm-none-eabi/lib/thumb/v7e-m+dp/hard\libc.a(lib_a-signalr.o) (_getpid)
c:/vsarm/armcc/bin/../lib/gcc/arm-none-eabi/9.3.1/../../../../arm-none-eabi/lib/thumb/v7e-m+dp/hard\libnosys.a(isatty.o)
                              c:/vsarm/armcc/bin/../lib/gcc/arm-none-eabi/9.3.1/../../../../arm-none-eabi/lib/thumb/v7e-m+dp/hard\libc.a(lib_a-isattyr.o) (_isatty)
c:/vsarm/armcc/bin/../lib/gcc/arm-none-eabi/9.3.1/../../../../arm-none-eabi/lib/thumb/v7e-m+dp/hard\libnosys.a(kill.o)
                              c:/vsarm/armcc/bin/../lib/gcc/arm-none-eabi/9.3.1/../../../../arm-none-eabi/lib/thumb/v7e-m+dp/hard\libc.a(lib_a-signalr.o) (_kill)
c:/vsarm/armcc/bin/../lib/gcc/arm-none-eabi/9.3.1/../../../../arm-none-eabi/lib/thumb/v7e-m+dp/hard\libnosys.a(lseek.o)
                              c:/vsarm/armcc/bin/../lib/gcc/arm-none-eabi/9.3.1/../../../../arm-none-eabi/lib/thumb/v7e-m+dp/hard\libc.a(lib_a-lseekr.o) (_lseek)
c:/vsarm/armcc/bin/../lib/gcc/arm-none-eabi/9.3.1/../../../../arm-none-eabi/lib/thumb/v7e-m+dp/hard\libnosys.a(read.o)
                              c:/vsarm/armcc/bin/../lib/gcc/arm-none-eabi/9.3.1/../../../../arm-none-eabi/lib/thumb/v7e-m+dp/hard\libc.a(lib_a-readr.o) (_read)
c:/vsarm/armcc/bin/../lib/gcc/arm-none-eabi/9.3.1/../../../../arm-none-eabi/lib/thumb/v7e-m+dp/hard\libnosys.a(sbrk.o)
                              c:/vsarm/armcc/bin/../lib/gcc/arm-none-eabi/9.3.1/../../../../arm-none-eabi/lib/thumb/v7e-m+dp/hard\libc.a(lib_a-sbrkr.o) (_sbrk)
c:/vsarm/armcc/bin/../lib/gcc/arm-none-eabi/9.3.1/../../../../arm-none-eabi/lib/thumb/v7e-m+dp/hard\libnosys.a(write.o)
                              c:/vsarm/armcc/bin/../lib/gcc/arm-none-eabi/9.3.1/../../../../arm-none-eabi/lib/thumb/v7e-m+dp/hard\libc.a(lib_a-writer.o) (_write)
c:/vsarm/armcc/bin/../lib/gcc/arm-none-eabi/9.3.1/../../../../arm-none-eabi/lib/thumb/v7e-m+dp/hard\libnosys.a(_exit.o)
                              c:/vsarm/armcc/bin/../lib/gcc/arm-none-eabi/9.3.1/../../../../arm-none-eabi/lib/thumb/v7e-m+dp/hard\libc.a(lib_a-exit.o) (_exit)
c:/vsarm/armcc/bin/../lib/gcc/arm-none-eabi/9.3.1/thumb/v7e-m+dp/hard\libgcc.a(_aeabi_uldivmod.o)
                              build/stm32f7xx_hal_rcc.o (__aeabi_uldivmod)
c:/vsarm/armcc/bin/../lib/gcc/arm-none-eabi/9.3.1/thumb/v7e-m+dp/hard\libgcc.a(_udivmoddi4.o)
                              c:/vsarm/armcc/bin/../lib/gcc/arm-none-eabi/9.3.1/thumb/v7e-m+dp/hard\libgcc.a(_aeabi_uldivmod.o) (__udivmoddi4)
c:/vsarm/armcc/bin/../lib/gcc/arm-none-eabi/9.3.1/thumb/v7e-m+dp/hard\libgcc.a(_dvmd_tls.o)
                              c:/vsarm/armcc/bin/../lib/gcc/arm-none-eabi/9.3.1/thumb/v7e-m+dp/hard\libgcc.a(_aeabi_uldivmod.o) (__aeabi_ldiv0)

Allocating common symbols
Common symbol       size              file

__lock___atexit_recursive_mutex
                    0x1               c:/vsarm/armcc/bin/../lib/gcc/arm-none-eabi/9.3.1/../../../../arm-none-eabi/lib/thumb/v7e-m+dp/hard\libc.a(lib_a-lock.o)
__lock___arc4random_mutex
                    0x1               c:/vsarm/armcc/bin/../lib/gcc/arm-none-eabi/9.3.1/../../../../arm-none-eabi/lib/thumb/v7e-m+dp/hard\libc.a(lib_a-lock.o)
hspi5               0x64              build/spi.o
errno               0x4               c:/vsarm/armcc/bin/../lib/gcc/arm-none-eabi/9.3.1/../../../../arm-none-eabi/lib/thumb/v7e-m+dp/hard\libc.a(lib_a-reent.o)
huart3              0x80              build/usart.o
hi2c1               0x4c              build/i2c.o
cmdBuffer           0x3               build/main.o
uwTick              0x4               build/stm32f7xx_hal.o
pFlash              0x1c              build/stm32f7xx_hal_flash.o
__lock___env_recursive_mutex
                    0x1               c:/vsarm/armcc/bin/../lib/gcc/arm-none-eabi/9.3.1/../../../../arm-none-eabi/lib/thumb/v7e-m+dp/hard\libc.a(lib_a-lock.o)
__lock___sinit_recursive_mutex
                    0x1               c:/vsarm/armcc/bin/../lib/gcc/arm-none-eabi/9.3.1/../../../../arm-none-eabi/lib/thumb/v7e-m+dp/hard\libc.a(lib_a-lock.o)
__lock___malloc_recursive_mutex
                    0x1               c:/vsarm/armcc/bin/../lib/gcc/arm-none-eabi/9.3.1/../../../../arm-none-eabi/lib/thumb/v7e-m+dp/hard\libc.a(lib_a-lock.o)
dataBuffer          0x8               build/main.o
tick                0x4               build/main.o
htim1               0x40              build/tim.o
hrng                0x10              build/rng.o
htim2               0x40              build/tim.o
__lock___at_quick_exit_mutex
                    0x1               c:/vsarm/armcc/bin/../lib/gcc/arm-none-eabi/9.3.1/../../../../arm-none-eabi/lib/thumb/v7e-m+dp/hard\libc.a(lib_a-lock.o)
str                 0x32              build/main.o
__lock___dd_hash_mutex
                    0x1               c:/vsarm/armcc/bin/../lib/gcc/arm-none-eabi/9.3.1/../../../../arm-none-eabi/lib/thumb/v7e-m+dp/hard\libc.a(lib_a-lock.o)
__lock___tz_mutex   0x1               c:/vsarm/armcc/bin/../lib/gcc/arm-none-eabi/9.3.1/../../../../arm-none-eabi/lib/thumb/v7e-m+dp/hard\libc.a(lib_a-lock.o)
status              0x1               build/main.o
__lock___sfp_recursive_mutex
                    0x1               c:/vsarm/armcc/bin/../lib/gcc/arm-none-eabi/9.3.1/../../../../arm-none-eabi/lib/thumb/v7e-m+dp/hard\libc.a(lib_a-lock.o)

Discarded input sections

 .text          0x00000000        0x0 c:/vsarm/armcc/bin/../lib/gcc/arm-none-eabi/9.3.1/thumb/v7e-m+dp/hard/crti.o
 .data          0x00000000        0x0 c:/vsarm/armcc/bin/../lib/gcc/arm-none-eabi/9.3.1/thumb/v7e-m+dp/hard/crti.o
 .bss           0x00000000        0x0 c:/vsarm/armcc/bin/../lib/gcc/arm-none-eabi/9.3.1/thumb/v7e-m+dp/hard/crti.o
 .data          0x00000000        0x4 c:/vsarm/armcc/bin/../lib/gcc/arm-none-eabi/9.3.1/thumb/v7e-m+dp/hard/crtbegin.o
 .text          0x00000000       0x7c c:/vsarm/armcc/bin/../lib/gcc/arm-none-eabi/9.3.1/../../../../arm-none-eabi/lib/thumb/v7e-m+dp/hard/crt0.o
 .data          0x00000000        0x0 c:/vsarm/armcc/bin/../lib/gcc/arm-none-eabi/9.3.1/../../../../arm-none-eabi/lib/thumb/v7e-m+dp/hard/crt0.o
 .bss           0x00000000        0x0 c:/vsarm/armcc/bin/../lib/gcc/arm-none-eabi/9.3.1/../../../../arm-none-eabi/lib/thumb/v7e-m+dp/hard/crt0.o
 .ARM.extab     0x00000000        0x0 c:/vsarm/armcc/bin/../lib/gcc/arm-none-eabi/9.3.1/../../../../arm-none-eabi/lib/thumb/v7e-m+dp/hard/crt0.o
 .ARM.exidx     0x00000000       0x10 c:/vsarm/armcc/bin/../lib/gcc/arm-none-eabi/9.3.1/../../../../arm-none-eabi/lib/thumb/v7e-m+dp/hard/crt0.o
 .ARM.attributes
                0x00000000       0x1c c:/vsarm/armcc/bin/../lib/gcc/arm-none-eabi/9.3.1/../../../../arm-none-eabi/lib/thumb/v7e-m+dp/hard/crt0.o
 .text          0x00000000        0x0 build/stm32f7xx_hal.o
 .data          0x00000000        0x0 build/stm32f7xx_hal.o
 .bss           0x00000000        0x0 build/stm32f7xx_hal.o
 .text.HAL_MspInit
                0x00000000        0x2 build/stm32f7xx_hal.o
 .text.HAL_MspDeInit
                0x00000000        0x2 build/stm32f7xx_hal.o
 .text.HAL_DeInit
                0x00000000       0x2c build/stm32f7xx_hal.o
 .text.HAL_GetTickPrio
                0x00000000        0xc build/stm32f7xx_hal.o
 .text.HAL_SetTickFreq
                0x00000000       0x24 build/stm32f7xx_hal.o
 .text.HAL_GetTickFreq
                0x00000000        0xc build/stm32f7xx_hal.o
 .text.HAL_SuspendTick
                0x00000000       0x10 build/stm32f7xx_hal.o
 .text.HAL_ResumeTick
                0x00000000       0x10 build/stm32f7xx_hal.o
 .text.HAL_GetHalVersion
                0x00000000        0x8 build/stm32f7xx_hal.o
 .text.HAL_GetREVID
                0x00000000        0xc build/stm32f7xx_hal.o
 .text.HAL_GetDEVID
                0x00000000       0x10 build/stm32f7xx_hal.o
 .text.HAL_GetUIDw0
                0x00000000        0xc build/stm32f7xx_hal.o
 .text.HAL_GetUIDw1
                0x00000000        0xc build/stm32f7xx_hal.o
 .text.HAL_GetUIDw2
                0x00000000        0xc build/stm32f7xx_hal.o
 .text.HAL_DBGMCU_EnableDBGSleepMode
                0x00000000       0x10 build/stm32f7xx_hal.o
 .text.HAL_DBGMCU_DisableDBGSleepMode
                0x00000000       0x10 build/stm32f7xx_hal.o
 .text.HAL_DBGMCU_EnableDBGStopMode
                0x00000000       0x10 build/stm32f7xx_hal.o
 .text.HAL_DBGMCU_DisableDBGStopMode
                0x00000000       0x10 build/stm32f7xx_hal.o
 .text.HAL_DBGMCU_EnableDBGStandbyMode
                0x00000000       0x10 build/stm32f7xx_hal.o
 .text.HAL_DBGMCU_DisableDBGStandbyMode
                0x00000000       0x10 build/stm32f7xx_hal.o
 .text.HAL_EnableCompensationCell
                0x00000000       0x10 build/stm32f7xx_hal.o
 .text.HAL_DisableCompensationCell
                0x00000000       0x10 build/stm32f7xx_hal.o
 .text.HAL_EnableFMCMemorySwapping
                0x00000000       0x10 build/stm32f7xx_hal.o
 .text.HAL_DisableFMCMemorySwapping
                0x00000000       0x10 build/stm32f7xx_hal.o
 .text.HAL_EnableMemorySwappingBank
                0x00000000       0x10 build/stm32f7xx_hal.o
 .text.HAL_DisableMemorySwappingBank
                0x00000000       0x10 build/stm32f7xx_hal.o
 .text          0x00000000        0x0 build/stm32f7xx_hal_cortex.o
 .data          0x00000000        0x0 build/stm32f7xx_hal_cortex.o
 .bss           0x00000000        0x0 build/stm32f7xx_hal_cortex.o
 .text.HAL_NVIC_DisableIRQ
                0x00000000       0x24 build/stm32f7xx_hal_cortex.o
 .text.HAL_NVIC_SystemReset
                0x00000000       0x24 build/stm32f7xx_hal_cortex.o
 .text.HAL_MPU_Disable
                0x00000000       0x20 build/stm32f7xx_hal_cortex.o
 .text.HAL_MPU_Enable
                0x00000000       0x24 build/stm32f7xx_hal_cortex.o
 .text.HAL_MPU_ConfigRegion
                0x00000000       0x54 build/stm32f7xx_hal_cortex.o
 .text.HAL_NVIC_GetPriorityGrouping
                0x00000000       0x10 build/stm32f7xx_hal_cortex.o
 .text.HAL_NVIC_GetPriority
                0x00000000       0x5c build/stm32f7xx_hal_cortex.o
 .text.HAL_NVIC_SetPendingIRQ
                0x00000000       0x1c build/stm32f7xx_hal_cortex.o
 .text.HAL_NVIC_GetPendingIRQ
                0x00000000       0x24 build/stm32f7xx_hal_cortex.o
 .text.HAL_NVIC_ClearPendingIRQ
                0x00000000       0x1c build/stm32f7xx_hal_cortex.o
 .text.HAL_NVIC_GetActive
                0x00000000       0x24 build/stm32f7xx_hal_cortex.o
 .text.HAL_SYSTICK_CLKSourceConfig
                0x00000000       0x20 build/stm32f7xx_hal_cortex.o
 .text.HAL_SYSTICK_Callback
                0x00000000        0x2 build/stm32f7xx_hal_cortex.o
 .text.HAL_SYSTICK_IRQHandler
                0x00000000        0x8 build/stm32f7xx_hal_cortex.o
 .text          0x00000000        0x0 build/stm32f7xx_hal_dma.o
 .data          0x00000000        0x0 build/stm32f7xx_hal_dma.o
 .bss           0x00000000        0x0 build/stm32f7xx_hal_dma.o
 .text.DMA_SetConfig
                0x00000000       0x2c build/stm32f7xx_hal_dma.o
 .text.DMA_CalcBaseAndBitshift
                0x00000000       0x40 build/stm32f7xx_hal_dma.o
 .text.DMA_CheckFifoParam
                0x00000000       0x8e build/stm32f7xx_hal_dma.o
 .text.HAL_DMA_Init
                0x00000000       0xcc build/stm32f7xx_hal_dma.o
 .text.HAL_DMA_DeInit
                0x00000000       0x64 build/stm32f7xx_hal_dma.o
 .text.HAL_DMA_Start
                0x00000000       0x48 build/stm32f7xx_hal_dma.o
 .text.HAL_DMA_Start_IT
                0x00000000       0x74 build/stm32f7xx_hal_dma.o
 .text.HAL_DMA_Abort
                0x00000000       0x94 build/stm32f7xx_hal_dma.o
 .text.HAL_DMA_Abort_IT
                0x00000000       0x26 build/stm32f7xx_hal_dma.o
 .text.HAL_DMA_PollForTransfer
                0x00000000      0x128 build/stm32f7xx_hal_dma.o
 .text.HAL_DMA_IRQHandler
                0x00000000      0x1dc build/stm32f7xx_hal_dma.o
 .text.HAL_DMA_RegisterCallback
                0x00000000       0x58 build/stm32f7xx_hal_dma.o
 .text.HAL_DMA_UnRegisterCallback
                0x00000000       0x6e build/stm32f7xx_hal_dma.o
 .text.HAL_DMA_GetState
                0x00000000        0x6 build/stm32f7xx_hal_dma.o
 .text.HAL_DMA_GetError
                0x00000000        0x4 build/stm32f7xx_hal_dma.o
 .rodata.flagBitshiftOffset.9223
                0x00000000        0x8 build/stm32f7xx_hal_dma.o
 .debug_info    0x00000000      0xc8b build/stm32f7xx_hal_dma.o
 .debug_abbrev  0x00000000      0x312 build/stm32f7xx_hal_dma.o
 .debug_loc     0x00000000      0xd6d build/stm32f7xx_hal_dma.o
 .debug_aranges
                0x00000000       0x90 build/stm32f7xx_hal_dma.o
 .debug_ranges  0x00000000       0x80 build/stm32f7xx_hal_dma.o
 .debug_line    0x00000000      0xdea build/stm32f7xx_hal_dma.o
 .debug_str     0x00000000      0x81d build/stm32f7xx_hal_dma.o
 .comment       0x00000000       0x4d build/stm32f7xx_hal_dma.o
 .debug_frame   0x00000000      0x188 build/stm32f7xx_hal_dma.o
 .ARM.attributes
                0x00000000       0x32 build/stm32f7xx_hal_dma.o
 .text          0x00000000        0x0 build/stm32f7xx_hal_dma_ex.o
 .data          0x00000000        0x0 build/stm32f7xx_hal_dma_ex.o
 .bss           0x00000000        0x0 build/stm32f7xx_hal_dma_ex.o
 .text.DMA_MultiBufferSetConfig
                0x00000000       0x24 build/stm32f7xx_hal_dma_ex.o
 .text.HAL_DMAEx_MultiBufferStart
                0x00000000       0x5e build/stm32f7xx_hal_dma_ex.o
 .text.HAL_DMAEx_MultiBufferStart_IT
                0x00000000      0xee8 build/stm32f7xx_hal_dma_ex.o
 .text.HAL_DMAEx_ChangeMemory
                0x00000000       0x10 build/stm32f7xx_hal_dma_ex.o
 .debug_info    0x00000000      0x705 build/stm32f7xx_hal_dma_ex.o
 .debug_abbrev  0x00000000      0x215 build/stm32f7xx_hal_dma_ex.o
 .debug_loc     0x00000000      0x46f build/stm32f7xx_hal_dma_ex.o
 .debug_aranges
                0x00000000       0x38 build/stm32f7xx_hal_dma_ex.o
 .debug_ranges  0x00000000       0x28 build/stm32f7xx_hal_dma_ex.o
 .debug_line    0x00000000      0x9ad build/stm32f7xx_hal_dma_ex.o
 .debug_str     0x00000000      0x612 build/stm32f7xx_hal_dma_ex.o
 .comment       0x00000000       0x4d build/stm32f7xx_hal_dma_ex.o
 .debug_frame   0x00000000       0x74 build/stm32f7xx_hal_dma_ex.o
 .ARM.attributes
                0x00000000       0x32 build/stm32f7xx_hal_dma_ex.o
 .text          0x00000000        0x0 build/stm32f7xx_hal_exti.o
 .data          0x00000000        0x0 build/stm32f7xx_hal_exti.o
 .bss           0x00000000        0x0 build/stm32f7xx_hal_exti.o
 .text.HAL_EXTI_SetConfigLine
                0x00000000       0x84 build/stm32f7xx_hal_exti.o
 .text.HAL_EXTI_GetConfigLine
                0x00000000       0x84 build/stm32f7xx_hal_exti.o
 .text.HAL_EXTI_ClearConfigLine
                0x00000000       0x3c build/stm32f7xx_hal_exti.o
 .text.HAL_EXTI_RegisterCallback
                0x00000000        0xe build/stm32f7xx_hal_exti.o
 .text.HAL_EXTI_GetHandle
                0x00000000        0xc build/stm32f7xx_hal_exti.o
 .text.HAL_EXTI_IRQHandler
                0x00000000       0x1c build/stm32f7xx_hal_exti.o
 .text.HAL_EXTI_GetPending
                0x00000000       0x1c build/stm32f7xx_hal_exti.o
 .text.HAL_EXTI_ClearPending
                0x00000000        0xc build/stm32f7xx_hal_exti.o
 .text.HAL_EXTI_GenerateSWI
                0x00000000        0xc build/stm32f7xx_hal_exti.o
 .debug_info    0x00000000      0x5fd build/stm32f7xx_hal_exti.o
 .debug_abbrev  0x00000000      0x252 build/stm32f7xx_hal_exti.o
 .debug_loc     0x00000000      0x3f9 build/stm32f7xx_hal_exti.o
 .debug_aranges
                0x00000000       0x60 build/stm32f7xx_hal_exti.o
 .debug_ranges  0x00000000       0x50 build/stm32f7xx_hal_exti.o
 .debug_line    0x00000000      0x4f7 build/stm32f7xx_hal_exti.o
 .debug_str     0x00000000      0x4ae build/stm32f7xx_hal_exti.o
 .comment       0x00000000       0x4d build/stm32f7xx_hal_exti.o
 .debug_frame   0x00000000       0xc8 build/stm32f7xx_hal_exti.o
 .ARM.attributes
                0x00000000       0x32 build/stm32f7xx_hal_exti.o
 .text          0x00000000        0x0 build/stm32f7xx_hal_flash.o
 .data          0x00000000        0x0 build/stm32f7xx_hal_flash.o
 .bss           0x00000000        0x0 build/stm32f7xx_hal_flash.o
 .text.FLASH_Program_DoubleWord
                0x00000000       0x30 build/stm32f7xx_hal_flash.o
 .text.FLASH_Program_Word
                0x00000000       0x28 build/stm32f7xx_hal_flash.o
 .text.FLASH_Program_HalfWord
                0x00000000       0x28 build/stm32f7xx_hal_flash.o
 .text.FLASH_Program_Byte
                0x00000000       0x24 build/stm32f7xx_hal_flash.o
 .text.FLASH_SetErrorCode
                0x00000000       0x74 build/stm32f7xx_hal_flash.o
 .text.HAL_FLASH_Program_IT
                0x00000000       0x74 build/stm32f7xx_hal_flash.o
 .text.HAL_FLASH_EndOfOperationCallback
                0x00000000        0x2 build/stm32f7xx_hal_flash.o
 .text.HAL_FLASH_OperationErrorCallback
                0x00000000        0x2 build/stm32f7xx_hal_flash.o
 .text.HAL_FLASH_IRQHandler
                0x00000000      0x10c build/stm32f7xx_hal_flash.o
 .text.HAL_FLASH_Unlock
                0x00000000       0x30 build/stm32f7xx_hal_flash.o
 .text.HAL_FLASH_Lock
                0x00000000       0x14 build/stm32f7xx_hal_flash.o
 .text.HAL_FLASH_OB_Unlock
                0x00000000       0x28 build/stm32f7xx_hal_flash.o
 .text.HAL_FLASH_OB_Lock
                0x00000000       0x14 build/stm32f7xx_hal_flash.o
 .text.HAL_FLASH_GetError
                0x00000000        0xc build/stm32f7xx_hal_flash.o
 .text.FLASH_WaitForLastOperation
                0x00000000       0x64 build/stm32f7xx_hal_flash.o
 .text.HAL_FLASH_Program
                0x00000000       0x7c build/stm32f7xx_hal_flash.o
 .text.HAL_FLASH_OB_Launch
                0x00000000       0x1c build/stm32f7xx_hal_flash.o
 .debug_info    0x00000000      0x8b8 build/stm32f7xx_hal_flash.o
 .debug_abbrev  0x00000000      0x303 build/stm32f7xx_hal_flash.o
 .debug_loc     0x00000000      0x4c4 build/stm32f7xx_hal_flash.o
 .debug_aranges
                0x00000000       0xa0 build/stm32f7xx_hal_flash.o
 .debug_ranges  0x00000000       0x90 build/stm32f7xx_hal_flash.o
 .debug_line    0x00000000      0x78c build/stm32f7xx_hal_flash.o
 .debug_str     0x00000000      0x5e4 build/stm32f7xx_hal_flash.o
 .comment       0x00000000       0x4d build/stm32f7xx_hal_flash.o
 .debug_frame   0x00000000      0x16c build/stm32f7xx_hal_flash.o
 .ARM.attributes
                0x00000000       0x32 build/stm32f7xx_hal_flash.o
 COMMON         0x00000000       0x1c build/stm32f7xx_hal_flash.o
 .text          0x00000000        0x0 build/stm32f7xx_hal_flash_ex.o
 .data          0x00000000        0x0 build/stm32f7xx_hal_flash_ex.o
 .bss           0x00000000        0x0 build/stm32f7xx_hal_flash_ex.o
 .text.FLASH_MassErase
                0x00000000       0x4c build/stm32f7xx_hal_flash_ex.o
 .text.FLASH_OB_GetWRP
                0x00000000       0x14 build/stm32f7xx_hal_flash_ex.o
 .text.FLASH_OB_GetUser
                0x00000000       0x14 build/stm32f7xx_hal_flash_ex.o
 .text.FLASH_OB_BOR_LevelConfig
                0x00000000       0x14 build/stm32f7xx_hal_flash_ex.o
 .text.FLASH_OB_GetRDP
                0x00000000       0x1c build/stm32f7xx_hal_flash_ex.o
 .text.FLASH_OB_GetBOR
                0x00000000       0x10 build/stm32f7xx_hal_flash_ex.o
 .text.FLASH_OB_GetBootAddress
                0x00000000       0x18 build/stm32f7xx_hal_flash_ex.o
 .text.FLASH_OB_EnableWRP
                0x00000000       0x20 build/stm32f7xx_hal_flash_ex.o
 .text.FLASH_OB_DisableWRP
                0x00000000       0x1c build/stm32f7xx_hal_flash_ex.o
 .text.FLASH_OB_RDP_LevelConfig
                0x00000000       0x18 build/stm32f7xx_hal_flash_ex.o
 .text.FLASH_OB_UserConfig
                0x00000000       0x48 build/stm32f7xx_hal_flash_ex.o
 .text.FLASH_OB_BootAddressConfig
                0x00000000       0x38 build/stm32f7xx_hal_flash_ex.o
 .text.HAL_FLASHEx_OBProgram
                0x00000000       0xc4 build/stm32f7xx_hal_flash_ex.o
 .text.HAL_FLASHEx_OBGetConfig
                0x00000000       0x32 build/stm32f7xx_hal_flash_ex.o
 .text.FLASH_Erase_Sector
                0x00000000       0x60 build/stm32f7xx_hal_flash_ex.o
 .text.HAL_FLASHEx_Erase
                0x00000000       0x98 build/stm32f7xx_hal_flash_ex.o
 .text.HAL_FLASHEx_Erase_IT
                0x00000000       0x68 build/stm32f7xx_hal_flash_ex.o
 .debug_info    0x00000000      0xae6 build/stm32f7xx_hal_flash_ex.o
 .debug_abbrev  0x00000000      0x295 build/stm32f7xx_hal_flash_ex.o
 .debug_loc     0x00000000      0x934 build/stm32f7xx_hal_flash_ex.o
 .debug_aranges
                0x00000000       0xa0 build/stm32f7xx_hal_flash_ex.o
 .debug_ranges  0x00000000       0x90 build/stm32f7xx_hal_flash_ex.o
 .debug_line    0x00000000      0x7c4 build/stm32f7xx_hal_flash_ex.o
 .debug_str     0x00000000      0x6b3 build/stm32f7xx_hal_flash_ex.o
 .comment       0x00000000       0x4d build/stm32f7xx_hal_flash_ex.o
 .debug_frame   0x00000000      0x19c build/stm32f7xx_hal_flash_ex.o
 .ARM.attributes
                0x00000000       0x32 build/stm32f7xx_hal_flash_ex.o
 .text          0x00000000        0x0 build/stm32f7xx_hal_gpio.o
 .data          0x00000000        0x0 build/stm32f7xx_hal_gpio.o
 .bss           0x00000000        0x0 build/stm32f7xx_hal_gpio.o
 .text.HAL_GPIO_DeInit
                0x00000000      0x14c build/stm32f7xx_hal_gpio.o
 .text.HAL_GPIO_TogglePin
                0x00000000       0x12 build/stm32f7xx_hal_gpio.o
 .text.HAL_GPIO_LockPin
                0x00000000       0x2e build/stm32f7xx_hal_gpio.o
 .text.HAL_GPIO_EXTI_Callback
                0x00000000        0x2 build/stm32f7xx_hal_gpio.o
 .text.HAL_GPIO_EXTI_IRQHandler
                0x00000000       0x1c build/stm32f7xx_hal_gpio.o
 .text          0x00000000        0x0 build/stm32f7xx_hal_i2c.o
 .data          0x00000000        0x0 build/stm32f7xx_hal_i2c.o
 .bss           0x00000000        0x0 build/stm32f7xx_hal_i2c.o
 .text.I2C_Flush_TXDR
                0x00000000       0x22 build/stm32f7xx_hal_i2c.o
 .text.I2C_TransferConfig
                0x00000000       0x36 build/stm32f7xx_hal_i2c.o
 .text.I2C_Enable_IRQ
                0x00000000       0x80 build/stm32f7xx_hal_i2c.o
 .text.I2C_Disable_IRQ
                0x00000000       0xb8 build/stm32f7xx_hal_i2c.o
 .text.I2C_ConvertOtherXferOptions
                0x00000000       0x1e build/stm32f7xx_hal_i2c.o
 .text.I2C_IsAcknowledgeFailed
                0x00000000       0x90 build/stm32f7xx_hal_i2c.o
 .text.I2C_WaitOnTXISFlagUntilTimeout
                0x00000000       0x56 build/stm32f7xx_hal_i2c.o
 .text.I2C_WaitOnFlagUntilTimeout
                0x00000000       0x56 build/stm32f7xx_hal_i2c.o
 .text.I2C_RequestMemoryWrite
                0x00000000       0x7c build/stm32f7xx_hal_i2c.o
 .text.I2C_RequestMemoryRead
                0x00000000       0x78 build/stm32f7xx_hal_i2c.o
 .text.I2C_WaitOnSTOPFlagUntilTimeout
                0x00000000       0x50 build/stm32f7xx_hal_i2c.o
 .text.I2C_WaitOnRXNEFlagUntilTimeout
                0x00000000       0x98 build/stm32f7xx_hal_i2c.o
 .text.HAL_I2C_MspInit
                0x00000000        0x2 build/stm32f7xx_hal_i2c.o
 .text.HAL_I2C_MspDeInit
                0x00000000        0x2 build/stm32f7xx_hal_i2c.o
 .text.HAL_I2C_DeInit
                0x00000000       0x32 build/stm32f7xx_hal_i2c.o
 .text.HAL_I2C_Master_Transmit
                0x00000000      0x17c build/stm32f7xx_hal_i2c.o
 .text.HAL_I2C_Master_Receive
                0x00000000      0x17c build/stm32f7xx_hal_i2c.o
 .text.HAL_I2C_Slave_Transmit
                0x00000000      0x18e build/stm32f7xx_hal_i2c.o
 .text.HAL_I2C_Slave_Receive
                0x00000000      0x170 build/stm32f7xx_hal_i2c.o
 .text.HAL_I2C_Master_Transmit_IT
                0x00000000       0x98 build/stm32f7xx_hal_i2c.o
 .text.HAL_I2C_Master_Receive_IT
                0x00000000       0x98 build/stm32f7xx_hal_i2c.o
 .text.HAL_I2C_Slave_Transmit_IT
                0x00000000       0x64 build/stm32f7xx_hal_i2c.o
 .text.HAL_I2C_Slave_Receive_IT
                0x00000000       0x64 build/stm32f7xx_hal_i2c.o
 .text.HAL_I2C_Master_Transmit_DMA
                0x00000000      0x154 build/stm32f7xx_hal_i2c.o
 .text.HAL_I2C_Master_Receive_DMA
                0x00000000      0x150 build/stm32f7xx_hal_i2c.o
 .text.HAL_I2C_Slave_Transmit_DMA
                0x00000000       0xf4 build/stm32f7xx_hal_i2c.o
 .text.HAL_I2C_Slave_Receive_DMA
                0x00000000       0xf8 build/stm32f7xx_hal_i2c.o
 .text.HAL_I2C_Mem_Write
                0x00000000      0x1ae build/stm32f7xx_hal_i2c.o
 .text.HAL_I2C_Mem_Read
                0x00000000      0x1b4 build/stm32f7xx_hal_i2c.o
 .text.HAL_I2C_Mem_Write_IT
                0x00000000       0xe8 build/stm32f7xx_hal_i2c.o
 .text.HAL_I2C_Mem_Read_IT
                0x00000000       0xf0 build/stm32f7xx_hal_i2c.o
 .text.HAL_I2C_Mem_Write_DMA
                0x00000000      0x16c build/stm32f7xx_hal_i2c.o
 .text.HAL_I2C_Mem_Read_DMA
                0x00000000      0x174 build/stm32f7xx_hal_i2c.o
 .text.HAL_I2C_IsDeviceReady
                0x00000000      0x16c build/stm32f7xx_hal_i2c.o
 .text.HAL_I2C_Master_Seq_Transmit_IT
                0x00000000       0xb4 build/stm32f7xx_hal_i2c.o
 .text.HAL_I2C_Master_Seq_Transmit_DMA
                0x00000000      0x174 build/stm32f7xx_hal_i2c.o
 .text.HAL_I2C_Master_Seq_Receive_IT
                0x00000000       0xb4 build/stm32f7xx_hal_i2c.o
 .text.HAL_I2C_Master_Seq_Receive_DMA
                0x00000000      0x174 build/stm32f7xx_hal_i2c.o
 .text.HAL_I2C_Slave_Seq_Transmit_IT
                0x00000000       0xdc build/stm32f7xx_hal_i2c.o
 .text.HAL_I2C_Slave_Seq_Transmit_DMA
                0x00000000      0x1a8 build/stm32f7xx_hal_i2c.o
 .text.HAL_I2C_Slave_Seq_Receive_IT
                0x00000000       0xdc build/stm32f7xx_hal_i2c.o
 .text.HAL_I2C_Slave_Seq_Receive_DMA
                0x00000000      0x1a4 build/stm32f7xx_hal_i2c.o
 .text.HAL_I2C_EnableListen_IT
                0x00000000       0x28 build/stm32f7xx_hal_i2c.o
 .text.HAL_I2C_DisableListen_IT
                0x00000000       0x38 build/stm32f7xx_hal_i2c.o
 .text.HAL_I2C_Master_Abort_IT
                0x00000000       0x68 build/stm32f7xx_hal_i2c.o
 .text.HAL_I2C_EV_IRQHandler
                0x00000000       0x10 build/stm32f7xx_hal_i2c.o
 .text.HAL_I2C_MasterTxCpltCallback
                0x00000000        0x2 build/stm32f7xx_hal_i2c.o
 .text.HAL_I2C_MasterRxCpltCallback
                0x00000000        0x2 build/stm32f7xx_hal_i2c.o
 .text.I2C_ITMasterSeqCplt
                0x00000000       0x54 build/stm32f7xx_hal_i2c.o
 .text.HAL_I2C_SlaveTxCpltCallback
                0x00000000        0x2 build/stm32f7xx_hal_i2c.o
 .text.HAL_I2C_SlaveRxCpltCallback
                0x00000000        0x2 build/stm32f7xx_hal_i2c.o
 .text.I2C_ITSlaveSeqCplt
                0x00000000       0x5c build/stm32f7xx_hal_i2c.o
 .text.I2C_DMASlaveTransmitCplt
                0x00000000       0x22 build/stm32f7xx_hal_i2c.o
 .text.I2C_DMASlaveReceiveCplt
                0x00000000       0x26 build/stm32f7xx_hal_i2c.o
 .text.HAL_I2C_AddrCallback
                0x00000000        0x2 build/stm32f7xx_hal_i2c.o
 .text.I2C_ITAddrCplt
                0x00000000       0x9c build/stm32f7xx_hal_i2c.o
 .text.HAL_I2C_ListenCpltCallback
                0x00000000        0x2 build/stm32f7xx_hal_i2c.o
 .text.I2C_ITListenCplt
                0x00000000       0x68 build/stm32f7xx_hal_i2c.o
 .text.HAL_I2C_MemTxCpltCallback
                0x00000000        0x2 build/stm32f7xx_hal_i2c.o
 .text.HAL_I2C_MemRxCpltCallback
                0x00000000        0x2 build/stm32f7xx_hal_i2c.o
 .text.HAL_I2C_ErrorCallback
                0x00000000        0x2 build/stm32f7xx_hal_i2c.o
 .text.HAL_I2C_AbortCpltCallback
                0x00000000        0x2 build/stm32f7xx_hal_i2c.o
 .text.I2C_ITError
                0x00000000       0xf4 build/stm32f7xx_hal_i2c.o
 .text.I2C_ITSlaveCplt
                0x00000000      0x120 build/stm32f7xx_hal_i2c.o
 .text.I2C_Slave_ISR_IT
                0x00000000      0x160 build/stm32f7xx_hal_i2c.o
 .text.I2C_ITMasterCplt
                0x00000000       0xe2 build/stm32f7xx_hal_i2c.o
 .text.I2C_Master_ISR_IT
                0x00000000      0x180 build/stm32f7xx_hal_i2c.o
 .text.I2C_Slave_ISR_DMA
                0x00000000      0x10a build/stm32f7xx_hal_i2c.o
 .text.I2C_Master_ISR_DMA
                0x00000000      0x142 build/stm32f7xx_hal_i2c.o
 .text.I2C_DMAError
                0x00000000       0x44 build/stm32f7xx_hal_i2c.o
 .text.I2C_DMAMasterTransmitCplt
                0x00000000       0x5a build/stm32f7xx_hal_i2c.o
 .text.I2C_DMAMasterReceiveCplt
                0x00000000       0x5a build/stm32f7xx_hal_i2c.o
 .text.HAL_I2C_ER_IRQHandler
                0x00000000       0x6a build/stm32f7xx_hal_i2c.o
 .text.I2C_DMAAbort
                0x00000000       0x2a build/stm32f7xx_hal_i2c.o
 .text.HAL_I2C_GetState
                0x00000000        0x6 build/stm32f7xx_hal_i2c.o
 .text.HAL_I2C_GetMode
                0x00000000        0x6 build/stm32f7xx_hal_i2c.o
 .text.HAL_I2C_GetError
                0x00000000        0x4 build/stm32f7xx_hal_i2c.o
 .text          0x00000000        0x0 build/stm32f7xx_hal_i2c_ex.o
 .data          0x00000000        0x0 build/stm32f7xx_hal_i2c_ex.o
 .bss           0x00000000        0x0 build/stm32f7xx_hal_i2c_ex.o
 .text.HAL_I2CEx_EnableFastModePlus
                0x00000000       0x2c build/stm32f7xx_hal_i2c_ex.o
 .text.HAL_I2CEx_DisableFastModePlus
                0x00000000       0x2c build/stm32f7xx_hal_i2c_ex.o
 .text          0x00000000        0x0 build/stm32f7xx_hal_pwr.o
 .data          0x00000000        0x0 build/stm32f7xx_hal_pwr.o
 .bss           0x00000000        0x0 build/stm32f7xx_hal_pwr.o
 .text.HAL_PWR_DeInit
                0x00000000       0x18 build/stm32f7xx_hal_pwr.o
 .text.HAL_PWR_DisableBkUpAccess
                0x00000000       0x10 build/stm32f7xx_hal_pwr.o
 .text.HAL_PWR_ConfigPVD
                0x00000000       0x84 build/stm32f7xx_hal_pwr.o
 .text.HAL_PWR_EnablePVD
                0x00000000       0x10 build/stm32f7xx_hal_pwr.o
 .text.HAL_PWR_DisablePVD
                0x00000000       0x10 build/stm32f7xx_hal_pwr.o
 .text.HAL_PWR_EnableWakeUpPin
                0x00000000       0x24 build/stm32f7xx_hal_pwr.o
 .text.HAL_PWR_DisableWakeUpPin
                0x00000000       0x10 build/stm32f7xx_hal_pwr.o
 .text.HAL_PWR_EnterSLEEPMode
                0x00000000       0x28 build/stm32f7xx_hal_pwr.o
 .text.HAL_PWR_EnterSTOPMode
                0x00000000       0x40 build/stm32f7xx_hal_pwr.o
 .text.HAL_PWR_EnterSTANDBYMode
                0x00000000       0x20 build/stm32f7xx_hal_pwr.o
 .text.HAL_PWR_PVDCallback
                0x00000000        0x2 build/stm32f7xx_hal_pwr.o
 .text.HAL_PWR_PVD_IRQHandler
                0x00000000       0x20 build/stm32f7xx_hal_pwr.o
 .text.HAL_PWR_EnableSleepOnExit
                0x00000000       0x10 build/stm32f7xx_hal_pwr.o
 .text.HAL_PWR_DisableSleepOnExit
                0x00000000       0x10 build/stm32f7xx_hal_pwr.o
 .text.HAL_PWR_EnableSEVOnPend
                0x00000000       0x10 build/stm32f7xx_hal_pwr.o
 .text.HAL_PWR_DisableSEVOnPend
                0x00000000       0x10 build/stm32f7xx_hal_pwr.o
 .text          0x00000000        0x0 build/stm32f7xx_hal_pwr_ex.o
 .data          0x00000000        0x0 build/stm32f7xx_hal_pwr_ex.o
 .bss           0x00000000        0x0 build/stm32f7xx_hal_pwr_ex.o
 .text.HAL_PWREx_EnableBkUpReg
                0x00000000       0x3c build/stm32f7xx_hal_pwr_ex.o
 .text.HAL_PWREx_DisableBkUpReg
                0x00000000       0x3c build/stm32f7xx_hal_pwr_ex.o
 .text.HAL_PWREx_EnableFlashPowerDown
                0x00000000       0x10 build/stm32f7xx_hal_pwr_ex.o
 .text.HAL_PWREx_DisableFlashPowerDown
                0x00000000       0x10 build/stm32f7xx_hal_pwr_ex.o
 .text.HAL_PWREx_EnableMainRegulatorLowVoltage
                0x00000000       0x10 build/stm32f7xx_hal_pwr_ex.o
 .text.HAL_PWREx_DisableMainRegulatorLowVoltage
                0x00000000       0x10 build/stm32f7xx_hal_pwr_ex.o
 .text.HAL_PWREx_EnableLowRegulatorLowVoltage
                0x00000000       0x10 build/stm32f7xx_hal_pwr_ex.o
 .text.HAL_PWREx_DisableLowRegulatorLowVoltage
                0x00000000       0x10 build/stm32f7xx_hal_pwr_ex.o
 .text.HAL_PWREx_DisableOverDrive
                0x00000000       0x7c build/stm32f7xx_hal_pwr_ex.o
 .text.HAL_PWREx_EnterUnderDriveSTOPMode
                0x00000000       0x94 build/stm32f7xx_hal_pwr_ex.o
 .text.HAL_PWREx_GetVoltageRange
                0x00000000       0x10 build/stm32f7xx_hal_pwr_ex.o
 .text.HAL_PWREx_ControlVoltageScaling
                0x00000000       0xc0 build/stm32f7xx_hal_pwr_ex.o
 .text          0x00000000        0x0 build/stm32f7xx_hal_rcc.o
 .data          0x00000000        0x0 build/stm32f7xx_hal_rcc.o
 .bss           0x00000000        0x0 build/stm32f7xx_hal_rcc.o
 .text.HAL_RCC_DeInit
                0x00000000      0x150 build/stm32f7xx_hal_rcc.o
 .text.HAL_RCC_MCOConfig
                0x00000000       0x98 build/stm32f7xx_hal_rcc.o
 .text.HAL_RCC_EnableCSS
                0x00000000       0x10 build/stm32f7xx_hal_rcc.o
 .text.HAL_RCC_DisableCSS
                0x00000000       0x10 build/stm32f7xx_hal_rcc.o
 .text.HAL_RCC_GetOscConfig
                0x00000000       0xe0 build/stm32f7xx_hal_rcc.o
 .text.HAL_RCC_GetClockConfig
                0x00000000       0x3c build/stm32f7xx_hal_rcc.o
 .text.HAL_RCC_CSSCallback
                0x00000000        0x2 build/stm32f7xx_hal_rcc.o
 .text.HAL_RCC_NMI_IRQHandler
                0x00000000       0x24 build/stm32f7xx_hal_rcc.o
 .text          0x00000000        0x0 build/stm32f7xx_hal_rcc_ex.o
 .data          0x00000000        0x0 build/stm32f7xx_hal_rcc_ex.o
 .bss           0x00000000        0x0 build/stm32f7xx_hal_rcc_ex.o
 .text.HAL_RCCEx_GetPeriphCLKConfig
                0x00000000      0x188 build/stm32f7xx_hal_rcc_ex.o
 .text.HAL_RCCEx_GetPeriphCLKFreq
                0x00000000      0x1e8 build/stm32f7xx_hal_rcc_ex.o
 .text.HAL_RCCEx_EnablePLLI2S
                0x00000000       0x78 build/stm32f7xx_hal_rcc_ex.o
 .text.HAL_RCCEx_DisablePLLI2S
                0x00000000       0x34 build/stm32f7xx_hal_rcc_ex.o
 .text.HAL_RCCEx_EnablePLLSAI
                0x00000000       0x78 build/stm32f7xx_hal_rcc_ex.o
 .text.HAL_RCCEx_DisablePLLSAI
                0x00000000       0x34 build/stm32f7xx_hal_rcc_ex.o
 .text          0x00000000        0x0 build/stm32f7xx_hal_rng.o
 .data          0x00000000        0x0 build/stm32f7xx_hal_rng.o
 .bss           0x00000000        0x0 build/stm32f7xx_hal_rng.o
 .text.HAL_RNG_MspInit
                0x00000000        0x2 build/stm32f7xx_hal_rng.o
 .text.HAL_RNG_MspDeInit
                0x00000000        0x2 build/stm32f7xx_hal_rng.o
 .text.HAL_RNG_DeInit
                0x00000000       0x2c build/stm32f7xx_hal_rng.o
 .text.HAL_RNG_GenerateRandomNumber
                0x00000000       0x64 build/stm32f7xx_hal_rng.o
 .text.HAL_RNG_GenerateRandomNumber_IT
                0x00000000       0x34 build/stm32f7xx_hal_rng.o
 .text.HAL_RNG_GetRandomNumber
                0x00000000       0x16 build/stm32f7xx_hal_rng.o
 .text.HAL_RNG_GetRandomNumber_IT
                0x00000000       0x20 build/stm32f7xx_hal_rng.o
 .text.HAL_RNG_ReadLastRandomNumber
                0x00000000        0x4 build/stm32f7xx_hal_rng.o
 .text.HAL_RNG_ReadyDataCallback
                0x00000000        0x2 build/stm32f7xx_hal_rng.o
 .text.HAL_RNG_ErrorCallback
                0x00000000        0x2 build/stm32f7xx_hal_rng.o
 .text.HAL_RNG_IRQHandler
                0x00000000       0x64 build/stm32f7xx_hal_rng.o
 .text.HAL_RNG_GetState
                0x00000000        0x4 build/stm32f7xx_hal_rng.o
 .text.HAL_RNG_GetError
                0x00000000        0x4 build/stm32f7xx_hal_rng.o
 .text          0x00000000        0x0 build/stm32f7xx_hal_spi.o
 .data          0x00000000        0x0 build/stm32f7xx_hal_spi.o
 .bss           0x00000000        0x0 build/stm32f7xx_hal_spi.o
 .text.SPI_EndRxTransaction
                0x00000000       0x82 build/stm32f7xx_hal_spi.o
 .text.SPI_AbortRx_ISR
                0x00000000       0x90 build/stm32f7xx_hal_spi.o
 .text.SPI_AbortTx_ISR
                0x00000000       0xf0 build/stm32f7xx_hal_spi.o
 .text.HAL_SPI_MspInit
                0x00000000        0x2 build/stm32f7xx_hal_spi.o
 .text.HAL_SPI_MspDeInit
                0x00000000        0x2 build/stm32f7xx_hal_spi.o
 .text.HAL_SPI_DeInit
                0x00000000       0x2c build/stm32f7xx_hal_spi.o
 .text.HAL_SPI_TransmitReceive
                0x00000000      0x2de build/stm32f7xx_hal_spi.o
 .text.HAL_SPI_Receive
                0x00000000      0x19c build/stm32f7xx_hal_spi.o
 .text.HAL_SPI_Transmit_IT
                0x00000000       0xac build/stm32f7xx_hal_spi.o
 .text.HAL_SPI_TransmitReceive_IT
                0x00000000       0xf4 build/stm32f7xx_hal_spi.o
 .text.HAL_SPI_Receive_IT
                0x00000000       0xd8 build/stm32f7xx_hal_spi.o
 .text.HAL_SPI_Transmit_DMA
                0x00000000      0x134 build/stm32f7xx_hal_spi.o
 .text.HAL_SPI_TransmitReceive_DMA
                0x00000000      0x218 build/stm32f7xx_hal_spi.o
 .text.HAL_SPI_Receive_DMA
                0x00000000      0x17c build/stm32f7xx_hal_spi.o
 .text.HAL_SPI_Abort
                0x00000000      0x190 build/stm32f7xx_hal_spi.o
 .text.HAL_SPI_DMAPause
                0x00000000       0x26 build/stm32f7xx_hal_spi.o
 .text.HAL_SPI_DMAResume
                0x00000000       0x26 build/stm32f7xx_hal_spi.o
 .text.HAL_SPI_DMAStop
                0x00000000       0x46 build/stm32f7xx_hal_spi.o
 .text.HAL_SPI_TxCpltCallback
                0x00000000        0x2 build/stm32f7xx_hal_spi.o
 .text.HAL_SPI_RxCpltCallback
                0x00000000        0x2 build/stm32f7xx_hal_spi.o
 .text.HAL_SPI_TxRxCpltCallback
                0x00000000        0x2 build/stm32f7xx_hal_spi.o
 .text.HAL_SPI_TxHalfCpltCallback
                0x00000000        0x2 build/stm32f7xx_hal_spi.o
 .text.SPI_DMAHalfTransmitCplt
                0x00000000        0xa build/stm32f7xx_hal_spi.o
 .text.HAL_SPI_RxHalfCpltCallback
                0x00000000        0x2 build/stm32f7xx_hal_spi.o
 .text.SPI_DMAHalfReceiveCplt
                0x00000000        0xa build/stm32f7xx_hal_spi.o
 .text.HAL_SPI_TxRxHalfCpltCallback
                0x00000000        0x2 build/stm32f7xx_hal_spi.o
 .text.SPI_DMAHalfTransmitReceiveCplt
                0x00000000        0xa build/stm32f7xx_hal_spi.o
 .text.HAL_SPI_ErrorCallback
                0x00000000        0x2 build/stm32f7xx_hal_spi.o
 .text.SPI_CloseTx_ISR
                0x00000000       0x56 build/stm32f7xx_hal_spi.o
 .text.SPI_TxISR_8BIT
                0x00000000       0x28 build/stm32f7xx_hal_spi.o
 .text.SPI_TxISR_16BIT
                0x00000000       0x28 build/stm32f7xx_hal_spi.o
 .text.SPI_CloseRx_ISR
                0x00000000       0x40 build/stm32f7xx_hal_spi.o
 .text.SPI_RxISR_8BIT
                0x00000000       0x2e build/stm32f7xx_hal_spi.o
 .text.SPI_RxISR_16BIT
                0x00000000       0x2e build/stm32f7xx_hal_spi.o
 .text.SPI_CloseRxTx_ISR
                0x00000000       0x5e build/stm32f7xx_hal_spi.o
 .text.SPI_2linesTxISR_8BIT
                0x00000000       0x5c build/stm32f7xx_hal_spi.o
 .text.SPI_2linesRxISR_8BIT
                0x00000000       0x7a build/stm32f7xx_hal_spi.o
 .text.SPI_2linesTxISR_16BIT
                0x00000000       0x3a build/stm32f7xx_hal_spi.o
 .text.SPI_2linesRxISR_16BIT
                0x00000000       0x3e build/stm32f7xx_hal_spi.o
 .text.SPI_DMAError
                0x00000000       0x22 build/stm32f7xx_hal_spi.o
 .text.SPI_DMATransmitCplt
                0x00000000       0x70 build/stm32f7xx_hal_spi.o
 .text.SPI_DMAReceiveCplt
                0x00000000       0x58 build/stm32f7xx_hal_spi.o
 .text.SPI_DMATransmitReceiveCplt
                0x00000000       0x5e build/stm32f7xx_hal_spi.o
 .text.HAL_SPI_IRQHandler
                0x00000000      0x124 build/stm32f7xx_hal_spi.o
 .text.SPI_DMAAbortOnError
                0x00000000       0x12 build/stm32f7xx_hal_spi.o
 .text.HAL_SPI_AbortCpltCallback
                0x00000000        0x2 build/stm32f7xx_hal_spi.o
 .text.HAL_SPI_Abort_IT
                0x00000000      0x160 build/stm32f7xx_hal_spi.o
 .text.SPI_DMARxAbortCallback
                0x00000000       0x94 build/stm32f7xx_hal_spi.o
 .text.SPI_DMATxAbortCallback
                0x00000000       0x90 build/stm32f7xx_hal_spi.o
 .text.HAL_SPI_GetState
                0x00000000        0x6 build/stm32f7xx_hal_spi.o
 .text.HAL_SPI_GetError
                0x00000000        0x4 build/stm32f7xx_hal_spi.o
 .text          0x00000000        0x0 build/stm32f7xx_hal_spi_ex.o
 .data          0x00000000        0x0 build/stm32f7xx_hal_spi_ex.o
 .bss           0x00000000        0x0 build/stm32f7xx_hal_spi_ex.o
 .text.HAL_SPIEx_FlushRxFifo
                0x00000000       0x36 build/stm32f7xx_hal_spi_ex.o
 .debug_info    0x00000000      0x7f6 build/stm32f7xx_hal_spi_ex.o
 .debug_abbrev  0x00000000      0x196 build/stm32f7xx_hal_spi_ex.o
 .debug_loc     0x00000000       0xd3 build/stm32f7xx_hal_spi_ex.o
 .debug_aranges
                0x00000000       0x20 build/stm32f7xx_hal_spi_ex.o
 .debug_ranges  0x00000000       0x10 build/stm32f7xx_hal_spi_ex.o
 .debug_line    0x00000000      0x222 build/stm32f7xx_hal_spi_ex.o
 .debug_str     0x00000000      0x747 build/stm32f7xx_hal_spi_ex.o
 .comment       0x00000000       0x4d build/stm32f7xx_hal_spi_ex.o
 .debug_frame   0x00000000       0x2c build/stm32f7xx_hal_spi_ex.o
 .ARM.attributes
                0x00000000       0x32 build/stm32f7xx_hal_spi_ex.o
 .text          0x00000000        0x0 build/stm32f7xx_hal_tim.o
 .data          0x00000000        0x0 build/stm32f7xx_hal_tim.o
 .bss           0x00000000        0x0 build/stm32f7xx_hal_tim.o
 .text.TIM_OC1_SetConfig
                0x00000000       0x68 build/stm32f7xx_hal_tim.o
 .text.TIM_OC3_SetConfig
                0x00000000       0x70 build/stm32f7xx_hal_tim.o
 .text.TIM_OC4_SetConfig
                0x00000000       0x54 build/stm32f7xx_hal_tim.o
 .text.TIM_OC5_SetConfig
                0x00000000       0x54 build/stm32f7xx_hal_tim.o
 .text.TIM_OC6_SetConfig
                0x00000000       0x54 build/stm32f7xx_hal_tim.o
 .text.TIM_TI2_SetConfig
                0x00000000       0x34 build/stm32f7xx_hal_tim.o
 .text.TIM_TI3_SetConfig
                0x00000000       0x32 build/stm32f7xx_hal_tim.o
 .text.TIM_TI4_SetConfig
                0x00000000       0x34 build/stm32f7xx_hal_tim.o
 .text.HAL_TIM_Base_MspInit
                0x00000000        0x2 build/stm32f7xx_hal_tim.o
 .text.HAL_TIM_Base_MspDeInit
                0x00000000        0x2 build/stm32f7xx_hal_tim.o
 .text.HAL_TIM_Base_DeInit
                0x00000000       0x3a build/stm32f7xx_hal_tim.o
 .text.HAL_TIM_Base_Start
                0x00000000       0x30 build/stm32f7xx_hal_tim.o
 .text.HAL_TIM_Base_Stop
                0x00000000       0x2e build/stm32f7xx_hal_tim.o
 .text.HAL_TIM_Base_Stop_IT
                0x00000000       0x2c build/stm32f7xx_hal_tim.o
 .text.HAL_TIM_Base_Start_DMA
                0x00000000       0x88 build/stm32f7xx_hal_tim.o
 .text.HAL_TIM_Base_Stop_DMA
                0x00000000       0x3c build/stm32f7xx_hal_tim.o
 .text.HAL_TIM_OC_MspInit
                0x00000000        0x2 build/stm32f7xx_hal_tim.o
 .text.HAL_TIM_OC_MspDeInit
                0x00000000        0x2 build/stm32f7xx_hal_tim.o
 .text.HAL_TIM_OC_DeInit
                0x00000000       0x3a build/stm32f7xx_hal_tim.o
 .text.HAL_TIM_PWM_MspInit
                0x00000000        0x2 build/stm32f7xx_hal_tim.o
 .text.HAL_TIM_PWM_MspDeInit
                0x00000000        0x2 build/stm32f7xx_hal_tim.o
 .text.HAL_TIM_PWM_DeInit
                0x00000000       0x3a build/stm32f7xx_hal_tim.o
 .text.HAL_TIM_IC_MspInit
                0x00000000        0x2 build/stm32f7xx_hal_tim.o
 .text.HAL_TIM_IC_MspDeInit
                0x00000000        0x2 build/stm32f7xx_hal_tim.o
 .text.HAL_TIM_IC_DeInit
                0x00000000       0x3a build/stm32f7xx_hal_tim.o
 .text.HAL_TIM_OnePulse_MspInit
                0x00000000        0x2 build/stm32f7xx_hal_tim.o
 .text.HAL_TIM_OnePulse_MspDeInit
                0x00000000        0x2 build/stm32f7xx_hal_tim.o
 .text.HAL_TIM_OnePulse_DeInit
                0x00000000       0x3a build/stm32f7xx_hal_tim.o
 .text.HAL_TIM_Encoder_MspInit
                0x00000000        0x2 build/stm32f7xx_hal_tim.o
 .text.HAL_TIM_Encoder_MspDeInit
                0x00000000        0x2 build/stm32f7xx_hal_tim.o
 .text.HAL_TIM_Encoder_DeInit
                0x00000000       0x3a build/stm32f7xx_hal_tim.o
 .text.HAL_TIM_DMABurst_WriteStart
                0x00000000      0x1b8 build/stm32f7xx_hal_tim.o
 .text.HAL_TIM_DMABurst_WriteStop
                0x00000000       0x7e build/stm32f7xx_hal_tim.o
 .text.HAL_TIM_DMABurst_ReadStart
                0x00000000      0x1b8 build/stm32f7xx_hal_tim.o
 .text.HAL_TIM_DMABurst_ReadStop
                0x00000000       0x7e build/stm32f7xx_hal_tim.o
 .text.HAL_TIM_GenerateEvent
                0x00000000       0x26 build/stm32f7xx_hal_tim.o
 .text.HAL_TIM_ConfigTI1Input
                0x00000000       0x10 build/stm32f7xx_hal_tim.o
 .text.HAL_TIM_ReadCapturedValue
                0x00000000       0x32 build/stm32f7xx_hal_tim.o
 .text.TIM_DMAPeriodElapsedCplt
                0x00000000       0x10 build/stm32f7xx_hal_tim.o
 .text.HAL_TIM_PeriodElapsedHalfCpltCallback
                0x00000000        0x2 build/stm32f7xx_hal_tim.o
 .text.TIM_DMAPeriodElapsedHalfCplt
                0x00000000       0x10 build/stm32f7xx_hal_tim.o
 .text.TIM_DMACaptureCplt
                0x00000000       0x44 build/stm32f7xx_hal_tim.o
 .text.HAL_TIM_IC_CaptureHalfCpltCallback
                0x00000000        0x2 build/stm32f7xx_hal_tim.o
 .text.TIM_DMACaptureHalfCplt
                0x00000000       0x44 build/stm32f7xx_hal_tim.o
 .text.TIM_DMADelayPulseCplt
                0x00000000       0x44 build/stm32f7xx_hal_tim.o
 .text.HAL_TIM_PWM_PulseFinishedHalfCpltCallback
                0x00000000        0x2 build/stm32f7xx_hal_tim.o
 .text.TIM_DMADelayPulseHalfCplt
                0x00000000       0x44 build/stm32f7xx_hal_tim.o
 .text.TIM_DMATriggerCplt
                0x00000000       0x10 build/stm32f7xx_hal_tim.o
 .text.HAL_TIM_TriggerHalfCpltCallback
                0x00000000        0x2 build/stm32f7xx_hal_tim.o
 .text.TIM_DMATriggerHalfCplt
                0x00000000       0x10 build/stm32f7xx_hal_tim.o
 .text.HAL_TIM_ErrorCallback
                0x00000000        0x2 build/stm32f7xx_hal_tim.o
 .text.TIM_DMAError
                0x00000000       0x10 build/stm32f7xx_hal_tim.o
 .text.HAL_TIM_Base_GetState
                0x00000000        0x6 build/stm32f7xx_hal_tim.o
 .text.HAL_TIM_OC_GetState
                0x00000000        0x6 build/stm32f7xx_hal_tim.o
 .text.HAL_TIM_PWM_GetState
                0x00000000        0x6 build/stm32f7xx_hal_tim.o
 .text.HAL_TIM_IC_GetState
                0x00000000        0x6 build/stm32f7xx_hal_tim.o
 .text.HAL_TIM_OnePulse_GetState
                0x00000000        0x6 build/stm32f7xx_hal_tim.o
 .text.HAL_TIM_Encoder_GetState
                0x00000000        0x6 build/stm32f7xx_hal_tim.o
 .text.HAL_TIM_OC_Init
                0x00000000       0x34 build/stm32f7xx_hal_tim.o
 .text.HAL_TIM_PWM_Init
                0x00000000       0x34 build/stm32f7xx_hal_tim.o
 .text.HAL_TIM_IC_Init
                0x00000000       0x34 build/stm32f7xx_hal_tim.o
 .text.HAL_TIM_OnePulse_Init
                0x00000000       0x48 build/stm32f7xx_hal_tim.o
 .text.HAL_TIM_Encoder_Init
                0x00000000       0x9c build/stm32f7xx_hal_tim.o
 .text.TIM_OC2_SetConfig
                0x00000000       0x70 build/stm32f7xx_hal_tim.o
 .text.HAL_TIM_OC_ConfigChannel
                0x00000000       0x76 build/stm32f7xx_hal_tim.o
 .text.HAL_TIM_PWM_ConfigChannel
                0x00000000      0x134 build/stm32f7xx_hal_tim.o
 .text.TIM_TI1_SetConfig
                0x00000000       0x90 build/stm32f7xx_hal_tim.o
 .text.HAL_TIM_IC_ConfigChannel
                0x00000000       0xc0 build/stm32f7xx_hal_tim.o
 .text.HAL_TIM_OnePulse_ConfigChannel
                0x00000000       0xf8 build/stm32f7xx_hal_tim.o
 .text.HAL_TIM_ConfigOCrefClear
                0x00000000      0x126 build/stm32f7xx_hal_tim.o
 .text.TIM_SlaveTimer_SetConfig
                0x00000000       0x94 build/stm32f7xx_hal_tim.o
 .text.HAL_TIM_SlaveConfigSynchro
                0x00000000       0x52 build/stm32f7xx_hal_tim.o
 .text.HAL_TIM_SlaveConfigSynchro_IT
                0x00000000       0x52 build/stm32f7xx_hal_tim.o
 .text.TIM_CCxChannelCmd
                0x00000000       0x24 build/stm32f7xx_hal_tim.o
 .text.HAL_TIM_OC_Start
                0x00000000       0x4c build/stm32f7xx_hal_tim.o
 .text.HAL_TIM_OC_Stop
                0x00000000       0x60 build/stm32f7xx_hal_tim.o
 .text.HAL_TIM_OC_Start_IT
                0x00000000       0x90 build/stm32f7xx_hal_tim.o
 .text.HAL_TIM_OC_Stop_IT
                0x00000000       0xa4 build/stm32f7xx_hal_tim.o
 .text.HAL_TIM_OC_Start_DMA
                0x00000000      0x164 build/stm32f7xx_hal_tim.o
 .text.HAL_TIM_OC_Stop_DMA
                0x00000000       0xc8 build/stm32f7xx_hal_tim.o
 .text.HAL_TIM_PWM_Start
                0x00000000       0x4c build/stm32f7xx_hal_tim.o
 .text.HAL_TIM_PWM_Stop
                0x00000000       0x68 build/stm32f7xx_hal_tim.o
 .text.HAL_TIM_PWM_Start_IT
                0x00000000       0x90 build/stm32f7xx_hal_tim.o
 .text.HAL_TIM_PWM_Stop_IT
                0x00000000       0xa4 build/stm32f7xx_hal_tim.o
 .text.HAL_TIM_PWM_Start_DMA
                0x00000000      0x164 build/stm32f7xx_hal_tim.o
 .text.HAL_TIM_PWM_Stop_DMA
                0x00000000       0xc8 build/stm32f7xx_hal_tim.o
 .text.HAL_TIM_IC_Start
                0x00000000       0x30 build/stm32f7xx_hal_tim.o
 .text.HAL_TIM_IC_Stop
                0x00000000       0x2e build/stm32f7xx_hal_tim.o
 .text.HAL_TIM_IC_Start_IT
                0x00000000       0x74 build/stm32f7xx_hal_tim.o
 .text.HAL_TIM_IC_Stop_IT
                0x00000000       0x72 build/stm32f7xx_hal_tim.o
 .text.HAL_TIM_IC_Start_DMA
                0x00000000      0x140 build/stm32f7xx_hal_tim.o
 .text.HAL_TIM_IC_Stop_DMA
                0x00000000       0x94 build/stm32f7xx_hal_tim.o
 .text.HAL_TIM_OnePulse_Start
                0x00000000       0x3c build/stm32f7xx_hal_tim.o
 .text.HAL_TIM_OnePulse_Stop
                0x00000000       0x6c build/stm32f7xx_hal_tim.o
 .text.HAL_TIM_OnePulse_Start_IT
                0x00000000       0x50 build/stm32f7xx_hal_tim.o
 .text.HAL_TIM_OnePulse_Stop_IT
                0x00000000       0x80 build/stm32f7xx_hal_tim.o
 .text.HAL_TIM_Encoder_Start
                0x00000000       0x44 build/stm32f7xx_hal_tim.o
 .text.HAL_TIM_Encoder_Stop
                0x00000000       0x58 build/stm32f7xx_hal_tim.o
 .text.HAL_TIM_Encoder_Start_IT
                0x00000000       0x6c build/stm32f7xx_hal_tim.o
 .text.HAL_TIM_Encoder_Stop_IT
                0x00000000       0x86 build/stm32f7xx_hal_tim.o
 .text.HAL_TIM_Encoder_Start_DMA
                0x00000000      0x164 build/stm32f7xx_hal_tim.o
 .text.HAL_TIM_Encoder_Stop_DMA
                0x00000000       0xa0 build/stm32f7xx_hal_tim.o
 .text          0x00000000        0x0 build/stm32f7xx_hal_tim_ex.o
 .data          0x00000000        0x0 build/stm32f7xx_hal_tim_ex.o
 .bss           0x00000000        0x0 build/stm32f7xx_hal_tim_ex.o
 .text.TIM_CCxNChannelCmd
                0x00000000       0x24 build/stm32f7xx_hal_tim_ex.o
 .text.HAL_TIMEx_HallSensor_MspInit
                0x00000000        0x2 build/stm32f7xx_hal_tim_ex.o
 .text.HAL_TIMEx_HallSensor_Init
                0x00000000       0xc4 build/stm32f7xx_hal_tim_ex.o
 .text.HAL_TIMEx_HallSensor_MspDeInit
                0x00000000        0x2 build/stm32f7xx_hal_tim_ex.o
 .text.HAL_TIMEx_HallSensor_DeInit
                0x00000000       0x3a build/stm32f7xx_hal_tim_ex.o
 .text.HAL_TIMEx_HallSensor_Start
                0x00000000       0x30 build/stm32f7xx_hal_tim_ex.o
 .text.HAL_TIMEx_HallSensor_Stop
                0x00000000       0x30 build/stm32f7xx_hal_tim_ex.o
 .text.HAL_TIMEx_HallSensor_Start_IT
                0x00000000       0x3c build/stm32f7xx_hal_tim_ex.o
 .text.HAL_TIMEx_HallSensor_Stop_IT
                0x00000000       0x3a build/stm32f7xx_hal_tim_ex.o
 .text.HAL_TIMEx_HallSensor_Start_DMA
                0x00000000       0x98 build/stm32f7xx_hal_tim_ex.o
 .text.HAL_TIMEx_HallSensor_Stop_DMA
                0x00000000       0x40 build/stm32f7xx_hal_tim_ex.o
 .text.HAL_TIMEx_OCN_Start
                0x00000000       0x38 build/stm32f7xx_hal_tim_ex.o
 .text.HAL_TIMEx_OCN_Stop
                0x00000000       0x4c build/stm32f7xx_hal_tim_ex.o
 .text.HAL_TIMEx_OCN_Start_IT
                0x00000000       0x70 build/stm32f7xx_hal_tim_ex.o
 .text.HAL_TIMEx_OCN_Stop_IT
                0x00000000       0x90 build/stm32f7xx_hal_tim_ex.o
 .text.HAL_TIMEx_OCN_Start_DMA
                0x00000000      0x110 build/stm32f7xx_hal_tim_ex.o
 .text.HAL_TIMEx_OCN_Stop_DMA
                0x00000000       0x96 build/stm32f7xx_hal_tim_ex.o
 .text.HAL_TIMEx_PWMN_Start
                0x00000000       0x38 build/stm32f7xx_hal_tim_ex.o
 .text.HAL_TIMEx_PWMN_Stop
                0x00000000       0x4c build/stm32f7xx_hal_tim_ex.o
 .text.HAL_TIMEx_PWMN_Start_IT
                0x00000000       0x70 build/stm32f7xx_hal_tim_ex.o
 .text.HAL_TIMEx_PWMN_Stop_IT
                0x00000000       0x90 build/stm32f7xx_hal_tim_ex.o
 .text.HAL_TIMEx_PWMN_Start_DMA
                0x00000000      0x110 build/stm32f7xx_hal_tim_ex.o
 .text.HAL_TIMEx_PWMN_Stop_DMA
                0x00000000       0x96 build/stm32f7xx_hal_tim_ex.o
 .text.HAL_TIMEx_OnePulseN_Start
                0x00000000       0x1a build/stm32f7xx_hal_tim_ex.o
 .text.HAL_TIMEx_OnePulseN_Stop
                0x00000000       0x4c build/stm32f7xx_hal_tim_ex.o
 .text.HAL_TIMEx_OnePulseN_Start_IT
                0x00000000       0x2e build/stm32f7xx_hal_tim_ex.o
 .text.HAL_TIMEx_OnePulseN_Stop_IT
                0x00000000       0x60 build/stm32f7xx_hal_tim_ex.o
 .text.HAL_TIMEx_ConfigCommutEvent
                0x00000000       0x82 build/stm32f7xx_hal_tim_ex.o
 .text.HAL_TIMEx_ConfigCommutEvent_IT
                0x00000000       0x82 build/stm32f7xx_hal_tim_ex.o
 .text.HAL_TIMEx_ConfigCommutEvent_DMA
                0x00000000       0xa0 build/stm32f7xx_hal_tim_ex.o
 .text.HAL_TIMEx_ConfigBreakDeadTime
                0x00000000       0x90 build/stm32f7xx_hal_tim_ex.o
 .text.HAL_TIMEx_ConfigBreakInput
                0x00000000       0x9e build/stm32f7xx_hal_tim_ex.o
 .text.HAL_TIMEx_RemapConfig
                0x00000000       0x20 build/stm32f7xx_hal_tim_ex.o
 .text.HAL_TIMEx_GroupChannel5
                0x00000000       0x3e build/stm32f7xx_hal_tim_ex.o
 .text.TIMEx_DMACommutationCplt
                0x00000000       0x10 build/stm32f7xx_hal_tim_ex.o
 .text.HAL_TIMEx_CommutHalfCpltCallback
                0x00000000        0x2 build/stm32f7xx_hal_tim_ex.o
 .text.TIMEx_DMACommutationHalfCplt
                0x00000000       0x10 build/stm32f7xx_hal_tim_ex.o
 .text.HAL_TIMEx_HallSensor_GetState
                0x00000000        0x6 build/stm32f7xx_hal_tim_ex.o
 .text          0x00000000        0x0 build/stm32f7xx_hal_uart.o
 .data          0x00000000        0x0 build/stm32f7xx_hal_uart.o
 .bss           0x00000000        0x0 build/stm32f7xx_hal_uart.o
 .text.UART_EndTxTransfer
                0x00000000       0x10 build/stm32f7xx_hal_uart.o
 .text.UART_EndRxTransfer
                0x00000000       0x1e build/stm32f7xx_hal_uart.o
 .text.UART_TxISR_8BIT
                0x00000000       0x44 build/stm32f7xx_hal_uart.o
 .text.UART_TxISR_16BIT
                0x00000000       0x48 build/stm32f7xx_hal_uart.o
 .text.HAL_UART_MspInit
                0x00000000        0x2 build/stm32f7xx_hal_uart.o
 .text.HAL_UART_MspDeInit
                0x00000000        0x2 build/stm32f7xx_hal_uart.o
 .text.HAL_UART_DeInit
                0x00000000       0x38 build/stm32f7xx_hal_uart.o
 .text.HAL_UART_Transmit_IT
                0x00000000       0x74 build/stm32f7xx_hal_uart.o
 .text.HAL_UART_Receive_IT
                0x00000000       0xd8 build/stm32f7xx_hal_uart.o
 .text.HAL_UART_Transmit_DMA
                0x00000000       0xa8 build/stm32f7xx_hal_uart.o
 .text.HAL_UART_Receive_DMA
                0x00000000       0xb0 build/stm32f7xx_hal_uart.o
 .text.HAL_UART_DMAPause
                0x00000000       0x6a build/stm32f7xx_hal_uart.o
 .text.HAL_UART_DMAResume
                0x00000000       0x5a build/stm32f7xx_hal_uart.o
 .text.HAL_UART_DMAStop
                0x00000000       0x86 build/stm32f7xx_hal_uart.o
 .text.HAL_UART_Abort
                0x00000000       0xa4 build/stm32f7xx_hal_uart.o
 .text.HAL_UART_AbortTransmit
                0x00000000       0x4e build/stm32f7xx_hal_uart.o
 .text.HAL_UART_AbortReceive
                0x00000000       0x68 build/stm32f7xx_hal_uart.o
 .text.HAL_UART_TxCpltCallback
                0x00000000        0x2 build/stm32f7xx_hal_uart.o
 .text.UART_DMATransmitCplt
                0x00000000       0x30 build/stm32f7xx_hal_uart.o
 .text.UART_EndTransmit_IT
                0x00000000       0x1a build/stm32f7xx_hal_uart.o
 .text.HAL_UART_TxHalfCpltCallback
                0x00000000        0x2 build/stm32f7xx_hal_uart.o
 .text.UART_DMATxHalfCplt
                0x00000000        0xa build/stm32f7xx_hal_uart.o
 .text.HAL_UART_RxCpltCallback
                0x00000000        0x2 build/stm32f7xx_hal_uart.o
 .text.UART_RxISR_8BIT
                0x00000000       0x64 build/stm32f7xx_hal_uart.o
 .text.UART_RxISR_16BIT
                0x00000000       0x62 build/stm32f7xx_hal_uart.o
 .text.UART_DMAReceiveCplt
                0x00000000       0x3c build/stm32f7xx_hal_uart.o
 .text.HAL_UART_RxHalfCpltCallback
                0x00000000        0x2 build/stm32f7xx_hal_uart.o
 .text.UART_DMARxHalfCplt
                0x00000000        0xa build/stm32f7xx_hal_uart.o
 .text.HAL_UART_ErrorCallback
                0x00000000        0x2 build/stm32f7xx_hal_uart.o
 .text.UART_DMAError
                0x00000000       0x50 build/stm32f7xx_hal_uart.o
 .text.HAL_UART_IRQHandler
                0x00000000      0x140 build/stm32f7xx_hal_uart.o
 .text.UART_DMAAbortOnError
                0x00000000       0x14 build/stm32f7xx_hal_uart.o
 .text.HAL_UART_AbortCpltCallback
                0x00000000        0x2 build/stm32f7xx_hal_uart.o
 .text.HAL_UART_Abort_IT
                0x00000000       0xdc build/stm32f7xx_hal_uart.o
 .text.UART_DMARxAbortCallback
                0x00000000       0x3a build/stm32f7xx_hal_uart.o
 .text.UART_DMATxAbortCallback
                0x00000000       0x30 build/stm32f7xx_hal_uart.o
 .text.HAL_UART_AbortTransmitCpltCallback
                0x00000000        0x2 build/stm32f7xx_hal_uart.o
 .text.HAL_UART_AbortTransmit_IT
                0x00000000       0x64 build/stm32f7xx_hal_uart.o
 .text.UART_DMATxOnlyAbortCallback
                0x00000000       0x14 build/stm32f7xx_hal_uart.o
 .text.HAL_UART_AbortReceiveCpltCallback
                0x00000000        0x2 build/stm32f7xx_hal_uart.o
 .text.HAL_UART_AbortReceive_IT
                0x00000000       0x80 build/stm32f7xx_hal_uart.o
 .text.UART_DMARxOnlyAbortCallback
                0x00000000       0x24 build/stm32f7xx_hal_uart.o
 .text.HAL_MultiProcessor_EnterMuteMode
                0x00000000        0xc build/stm32f7xx_hal_uart.o
 .text.HAL_HalfDuplex_EnableTransmitter
                0x00000000       0x38 build/stm32f7xx_hal_uart.o
 .text.HAL_HalfDuplex_EnableReceiver
                0x00000000       0x38 build/stm32f7xx_hal_uart.o
 .text.HAL_LIN_SendBreak
                0x00000000       0x2e build/stm32f7xx_hal_uart.o
 .text.HAL_UART_GetState
                0x00000000        0x8 build/stm32f7xx_hal_uart.o
 .text.HAL_UART_GetError
                0x00000000        0x4 build/stm32f7xx_hal_uart.o
 .text.HAL_HalfDuplex_Init
                0x00000000       0x6e build/stm32f7xx_hal_uart.o
 .text.HAL_LIN_Init
                0x00000000       0x92 build/stm32f7xx_hal_uart.o
 .text.HAL_MultiProcessor_Init
                0x00000000       0x8a build/stm32f7xx_hal_uart.o
 .text.HAL_MultiProcessor_EnableMuteMode
                0x00000000       0x2c build/stm32f7xx_hal_uart.o
 .text.HAL_MultiProcessor_DisableMuteMode
                0x00000000       0x2c build/stm32f7xx_hal_uart.o
 .text          0x00000000        0x0 build/stm32f7xx_hal_uart_ex.o
 .data          0x00000000        0x0 build/stm32f7xx_hal_uart_ex.o
 .bss           0x00000000        0x0 build/stm32f7xx_hal_uart_ex.o
 .text.HAL_RS485Ex_Init
                0x00000000       0x84 build/stm32f7xx_hal_uart_ex.o
 .text.HAL_MultiProcessorEx_AddressLength_Set
                0x00000000       0x36 build/stm32f7xx_hal_uart_ex.o
 .debug_info    0x00000000      0x969 build/stm32f7xx_hal_uart_ex.o
 .debug_abbrev  0x00000000      0x1de build/stm32f7xx_hal_uart_ex.o
 .debug_loc     0x00000000      0x24d build/stm32f7xx_hal_uart_ex.o
 .debug_aranges
                0x00000000       0x28 build/stm32f7xx_hal_uart_ex.o
 .debug_ranges  0x00000000       0x18 build/stm32f7xx_hal_uart_ex.o
 .debug_line    0x00000000      0x291 build/stm32f7xx_hal_uart_ex.o
 .debug_str     0x00000000      0x7c7 build/stm32f7xx_hal_uart_ex.o
 .comment       0x00000000       0x4d build/stm32f7xx_hal_uart_ex.o
 .debug_frame   0x00000000       0x54 build/stm32f7xx_hal_uart_ex.o
 .ARM.attributes
                0x00000000       0x32 build/stm32f7xx_hal_uart_ex.o
 .text          0x00000000        0x0 build/ILI9341_GFX.o
 .data          0x00000000        0x0 build/ILI9341_GFX.o
 .bss           0x00000000        0x0 build/ILI9341_GFX.o
 .text.ILI9341_Draw_Hollow_Circle
                0x00000000       0xf4 build/ILI9341_GFX.o
 .text.ILI9341_Draw_Hollow_Rectangle_Coord
                0x00000000       0xba build/ILI9341_GFX.o
 .text.ILI9341_Draw_Filled_Rectangle_Coord
                0x00000000       0x4a build/ILI9341_GFX.o
 .text.ILI9341_Draw_Image
                0x00000000      0x1e4 build/ILI9341_GFX.o
 .text          0x00000000        0x0 build/ILI9341_STM32_Driver.o
 .data          0x00000000        0x0 build/ILI9341_STM32_Driver.o
 .bss           0x00000000        0x0 build/ILI9341_STM32_Driver.o
 .text.ILI9341_Draw_Colour
                0x00000000       0x4c build/ILI9341_STM32_Driver.o
 .text.ILI9341_Draw_Horizontal_Line
                0x00000000       0x50 build/ILI9341_STM32_Driver.o
 .text.ILI9341_Draw_Vertical_Line
                0x00000000       0x50 build/ILI9341_STM32_Driver.o
 .text          0x00000000        0x0 build/ILI9341_Touchscreen.o
 .data          0x00000000        0x0 build/ILI9341_Touchscreen.o
 .bss           0x00000000        0x0 build/ILI9341_Touchscreen.o
 .text          0x00000000        0x0 build/gpio.o
 .data          0x00000000        0x0 build/gpio.o
 .bss           0x00000000        0x0 build/gpio.o
 .text          0x00000000        0x0 build/i2c.o
 .data          0x00000000        0x0 build/i2c.o
 .bss           0x00000000        0x0 build/i2c.o
 .text.HAL_I2C_MspDeInit
                0x00000000       0x30 build/i2c.o
 .text          0x00000000        0x0 build/main.o
 .data          0x00000000        0x0 build/main.o
 .bss           0x00000000        0x0 build/main.o
 .text.print    0x00000000       0x26 build/main.o
 .text.println  0x00000000       0x34 build/main.o
 .text.printc   0x00000000       0x26 build/main.o
 .text.getch    0x00000000       0x26 build/main.o
 .text.CRC16_2  0x00000000       0x3a build/main.o
 .text.readAM2320
                0x00000000       0xf0 build/main.o
 .text.convert_565
                0x00000000       0x28 build/main.o
 .bss.AM2320_last
                0x00000000        0x4 build/main.o
 .bss.last      0x00000000        0x4 build/main.o
 .bss.r         0x00000000        0x1 build/main.o
 .bss.step      0x00000000        0x1 build/main.o
 .data.b        0x00000000        0x1 build/main.o
 .data.g        0x00000000        0x1 build/main.o
 .data.h        0x00000000        0x4 build/main.o
 .data.t        0x00000000        0x4 build/main.o
 .rodata.snow_tiger
                0x00000000    0x25800 build/main.o
 .text          0x00000000        0x0 build/rng.o
 .data          0x00000000        0x0 build/rng.o
 .bss           0x00000000        0x0 build/rng.o
 .text.HAL_RNG_MspDeInit
                0x00000000       0x20 build/rng.o
 .text          0x00000000        0x0 build/spi.o
 .data          0x00000000        0x0 build/spi.o
 .bss           0x00000000        0x0 build/spi.o
 .text.HAL_SPI_MspDeInit
                0x00000000       0x30 build/spi.o
 .text          0x00000000        0x0 build/stm32f7xx_hal_msp.o
 .data          0x00000000        0x0 build/stm32f7xx_hal_msp.o
 .bss           0x00000000        0x0 build/stm32f7xx_hal_msp.o
 .text          0x00000000        0x0 build/stm32f7xx_it.o
 .data          0x00000000        0x0 build/stm32f7xx_it.o
 .bss           0x00000000        0x0 build/stm32f7xx_it.o
 .text          0x00000000        0x0 build/sys.o
 .data          0x00000000        0x0 build/sys.o
 .bss           0x00000000        0x0 build/sys.o
 .text.MX_SYS_Init
                0x00000000        0x2 build/sys.o
 .debug_info    0x00000000      0x1a4 build/sys.o
 .debug_abbrev  0x00000000       0xb7 build/sys.o
 .debug_aranges
                0x00000000       0x20 build/sys.o
 .debug_ranges  0x00000000       0x10 build/sys.o
 .debug_line    0x00000000      0x14b build/sys.o
 .debug_str     0x00000000      0x26e build/sys.o
 .comment       0x00000000       0x4d build/sys.o
 .debug_frame   0x00000000       0x20 build/sys.o
 .ARM.attributes
                0x00000000       0x32 build/sys.o
 .text          0x00000000        0x0 build/system_stm32f7xx.o
 .data          0x00000000        0x0 build/system_stm32f7xx.o
 .bss           0x00000000        0x0 build/system_stm32f7xx.o
 .text.SystemCoreClockUpdate
                0x00000000       0xa0 build/system_stm32f7xx.o
 .text          0x00000000        0x0 build/tim.o
 .data          0x00000000        0x0 build/tim.o
 .bss           0x00000000        0x0 build/tim.o
 .text.HAL_TIM_Base_MspDeInit
                0x00000000       0x3c build/tim.o
 .text          0x00000000        0x0 build/usart.o
 .data          0x00000000        0x0 build/usart.o
 .bss           0x00000000        0x0 build/usart.o
 .text.HAL_UART_MspDeInit
                0x00000000       0x30 build/usart.o
 .text          0x00000000       0x14 build/startup_stm32f767xx.o
 .data          0x00000000        0x0 build/startup_stm32f767xx.o
 .bss           0x00000000        0x0 build/startup_stm32f767xx.o
 .text          0x00000000        0x0 c:/vsarm/armcc/bin/../lib/gcc/arm-none-eabi/9.3.1/../../../../arm-none-eabi/lib/thumb/v7e-m+dp/hard\libc.a(lib_a-exit.o)
 .data          0x00000000        0x0 c:/vsarm/armcc/bin/../lib/gcc/arm-none-eabi/9.3.1/../../../../arm-none-eabi/lib/thumb/v7e-m+dp/hard\libc.a(lib_a-exit.o)
 .bss           0x00000000        0x0 c:/vsarm/armcc/bin/../lib/gcc/arm-none-eabi/9.3.1/../../../../arm-none-eabi/lib/thumb/v7e-m+dp/hard\libc.a(lib_a-exit.o)
 .text.exit     0x00000000       0x20 c:/vsarm/armcc/bin/../lib/gcc/arm-none-eabi/9.3.1/../../../../arm-none-eabi/lib/thumb/v7e-m+dp/hard\libc.a(lib_a-exit.o)
 .debug_frame   0x00000000       0x28 c:/vsarm/armcc/bin/../lib/gcc/arm-none-eabi/9.3.1/../../../../arm-none-eabi/lib/thumb/v7e-m+dp/hard\libc.a(lib_a-exit.o)
 .ARM.attributes
                0x00000000       0x32 c:/vsarm/armcc/bin/../lib/gcc/arm-none-eabi/9.3.1/../../../../arm-none-eabi/lib/thumb/v7e-m+dp/hard\libc.a(lib_a-exit.o)
 .text          0x00000000        0x0 c:/vsarm/armcc/bin/../lib/gcc/arm-none-eabi/9.3.1/../../../../arm-none-eabi/lib/thumb/v7e-m+dp/hard\libc.a(lib_a-impure.o)
 .data          0x00000000        0x0 c:/vsarm/armcc/bin/../lib/gcc/arm-none-eabi/9.3.1/../../../../arm-none-eabi/lib/thumb/v7e-m+dp/hard\libc.a(lib_a-impure.o)
 .bss           0x00000000        0x0 c:/vsarm/armcc/bin/../lib/gcc/arm-none-eabi/9.3.1/../../../../arm-none-eabi/lib/thumb/v7e-m+dp/hard\libc.a(lib_a-impure.o)
 .text          0x00000000        0x0 c:/vsarm/armcc/bin/../lib/gcc/arm-none-eabi/9.3.1/../../../../arm-none-eabi/lib/thumb/v7e-m+dp/hard\libc.a(lib_a-init.o)
 .data          0x00000000        0x0 c:/vsarm/armcc/bin/../lib/gcc/arm-none-eabi/9.3.1/../../../../arm-none-eabi/lib/thumb/v7e-m+dp/hard\libc.a(lib_a-init.o)
 .bss           0x00000000        0x0 c:/vsarm/armcc/bin/../lib/gcc/arm-none-eabi/9.3.1/../../../../arm-none-eabi/lib/thumb/v7e-m+dp/hard\libc.a(lib_a-init.o)
 .text          0x00000000        0x0 c:/vsarm/armcc/bin/../lib/gcc/arm-none-eabi/9.3.1/../../../../arm-none-eabi/lib/thumb/v7e-m+dp/hard\libc.a(lib_a-memset.o)
 .data          0x00000000        0x0 c:/vsarm/armcc/bin/../lib/gcc/arm-none-eabi/9.3.1/../../../../arm-none-eabi/lib/thumb/v7e-m+dp/hard\libc.a(lib_a-memset.o)
 .bss           0x00000000        0x0 c:/vsarm/armcc/bin/../lib/gcc/arm-none-eabi/9.3.1/../../../../arm-none-eabi/lib/thumb/v7e-m+dp/hard\libc.a(lib_a-memset.o)
 .text          0x00000000        0x0 c:/vsarm/armcc/bin/../lib/gcc/arm-none-eabi/9.3.1/../../../../arm-none-eabi/lib/thumb/v7e-m+dp/hard\libc.a(lib_a-sprintf.o)
 .data          0x00000000        0x0 c:/vsarm/armcc/bin/../lib/gcc/arm-none-eabi/9.3.1/../../../../arm-none-eabi/lib/thumb/v7e-m+dp/hard\libc.a(lib_a-sprintf.o)
 .bss           0x00000000        0x0 c:/vsarm/armcc/bin/../lib/gcc/arm-none-eabi/9.3.1/../../../../arm-none-eabi/lib/thumb/v7e-m+dp/hard\libc.a(lib_a-sprintf.o)
 .text._sprintf_r
                0x00000000       0x38 c:/vsarm/armcc/bin/../lib/gcc/arm-none-eabi/9.3.1/../../../../arm-none-eabi/lib/thumb/v7e-m+dp/hard\libc.a(lib_a-sprintf.o)
 .data          0x00000000        0x0 c:/vsarm/armcc/bin/../lib/gcc/arm-none-eabi/9.3.1/../../../../arm-none-eabi/lib/thumb/v7e-m+dp/hard\libc.a(lib_a-strlen.o)
 .bss           0x00000000        0x0 c:/vsarm/armcc/bin/../lib/gcc/arm-none-eabi/9.3.1/../../../../arm-none-eabi/lib/thumb/v7e-m+dp/hard\libc.a(lib_a-strlen.o)
 .text          0x00000000        0x0 c:/vsarm/armcc/bin/../lib/gcc/arm-none-eabi/9.3.1/../../../../arm-none-eabi/lib/thumb/v7e-m+dp/hard\libc.a(lib_a-svfprintf.o)
 .data          0x00000000        0x0 c:/vsarm/armcc/bin/../lib/gcc/arm-none-eabi/9.3.1/../../../../arm-none-eabi/lib/thumb/v7e-m+dp/hard\libc.a(lib_a-svfprintf.o)
 .bss           0x00000000        0x0 c:/vsarm/armcc/bin/../lib/gcc/arm-none-eabi/9.3.1/../../../../arm-none-eabi/lib/thumb/v7e-m+dp/hard\libc.a(lib_a-svfprintf.o)
 .text          0x00000000        0x0 c:/vsarm/armcc/bin/../lib/gcc/arm-none-eabi/9.3.1/../../../../arm-none-eabi/lib/thumb/v7e-m+dp/hard\libc.a(lib_a-__call_atexit.o)
 .data          0x00000000        0x0 c:/vsarm/armcc/bin/../lib/gcc/arm-none-eabi/9.3.1/../../../../arm-none-eabi/lib/thumb/v7e-m+dp/hard\libc.a(lib_a-__call_atexit.o)
 .bss           0x00000000        0x0 c:/vsarm/armcc/bin/../lib/gcc/arm-none-eabi/9.3.1/../../../../arm-none-eabi/lib/thumb/v7e-m+dp/hard\libc.a(lib_a-__call_atexit.o)
 .text.__call_exitprocs
                0x00000000       0xcc c:/vsarm/armcc/bin/../lib/gcc/arm-none-eabi/9.3.1/../../../../arm-none-eabi/lib/thumb/v7e-m+dp/hard\libc.a(lib_a-__call_atexit.o)
 .text          0x00000000        0x0 c:/vsarm/armcc/bin/../lib/gcc/arm-none-eabi/9.3.1/../../../../arm-none-eabi/lib/thumb/v7e-m+dp/hard\libc.a(lib_a-atexit.o)
 .data          0x00000000        0x0 c:/vsarm/armcc/bin/../lib/gcc/arm-none-eabi/9.3.1/../../../../arm-none-eabi/lib/thumb/v7e-m+dp/hard\libc.a(lib_a-atexit.o)
 .bss           0x00000000        0x0 c:/vsarm/armcc/bin/../lib/gcc/arm-none-eabi/9.3.1/../../../../arm-none-eabi/lib/thumb/v7e-m+dp/hard\libc.a(lib_a-atexit.o)
 .text          0x00000000        0x0 c:/vsarm/armcc/bin/../lib/gcc/arm-none-eabi/9.3.1/../../../../arm-none-eabi/lib/thumb/v7e-m+dp/hard\libc.a(lib_a-dtoa.o)
 .data          0x00000000        0x0 c:/vsarm/armcc/bin/../lib/gcc/arm-none-eabi/9.3.1/../../../../arm-none-eabi/lib/thumb/v7e-m+dp/hard\libc.a(lib_a-dtoa.o)
 .bss           0x00000000        0x0 c:/vsarm/armcc/bin/../lib/gcc/arm-none-eabi/9.3.1/../../../../arm-none-eabi/lib/thumb/v7e-m+dp/hard\libc.a(lib_a-dtoa.o)
 .text          0x00000000        0x0 c:/vsarm/armcc/bin/../lib/gcc/arm-none-eabi/9.3.1/../../../../arm-none-eabi/lib/thumb/v7e-m+dp/hard\libc.a(lib_a-fini.o)
 .data          0x00000000        0x0 c:/vsarm/armcc/bin/../lib/gcc/arm-none-eabi/9.3.1/../../../../arm-none-eabi/lib/thumb/v7e-m+dp/hard\libc.a(lib_a-fini.o)
 .bss           0x00000000        0x0 c:/vsarm/armcc/bin/../lib/gcc/arm-none-eabi/9.3.1/../../../../arm-none-eabi/lib/thumb/v7e-m+dp/hard\libc.a(lib_a-fini.o)
 .text          0x00000000        0x0 c:/vsarm/armcc/bin/../lib/gcc/arm-none-eabi/9.3.1/../../../../arm-none-eabi/lib/thumb/v7e-m+dp/hard\libc.a(lib_a-freer.o)
 .data          0x00000000        0x0 c:/vsarm/armcc/bin/../lib/gcc/arm-none-eabi/9.3.1/../../../../arm-none-eabi/lib/thumb/v7e-m+dp/hard\libc.a(lib_a-freer.o)
 .bss           0x00000000        0x0 c:/vsarm/armcc/bin/../lib/gcc/arm-none-eabi/9.3.1/../../../../arm-none-eabi/lib/thumb/v7e-m+dp/hard\libc.a(lib_a-freer.o)
 .text          0x00000000        0x0 c:/vsarm/armcc/bin/../lib/gcc/arm-none-eabi/9.3.1/../../../../arm-none-eabi/lib/thumb/v7e-m+dp/hard\libc.a(lib_a-localeconv.o)
 .data          0x00000000        0x0 c:/vsarm/armcc/bin/../lib/gcc/arm-none-eabi/9.3.1/../../../../arm-none-eabi/lib/thumb/v7e-m+dp/hard\libc.a(lib_a-localeconv.o)
 .bss           0x00000000        0x0 c:/vsarm/armcc/bin/../lib/gcc/arm-none-eabi/9.3.1/../../../../arm-none-eabi/lib/thumb/v7e-m+dp/hard\libc.a(lib_a-localeconv.o)
 .text.__localeconv_l
                0x00000000        0x4 c:/vsarm/armcc/bin/../lib/gcc/arm-none-eabi/9.3.1/../../../../arm-none-eabi/lib/thumb/v7e-m+dp/hard\libc.a(lib_a-localeconv.o)
 .text.localeconv
                0x00000000        0x8 c:/vsarm/armcc/bin/../lib/gcc/arm-none-eabi/9.3.1/../../../../arm-none-eabi/lib/thumb/v7e-m+dp/hard\libc.a(lib_a-localeconv.o)
 .text          0x00000000        0x0 c:/vsarm/armcc/bin/../lib/gcc/arm-none-eabi/9.3.1/../../../../arm-none-eabi/lib/thumb/v7e-m+dp/hard\libc.a(lib_a-lock.o)
 .data          0x00000000        0x0 c:/vsarm/armcc/bin/../lib/gcc/arm-none-eabi/9.3.1/../../../../arm-none-eabi/lib/thumb/v7e-m+dp/hard\libc.a(lib_a-lock.o)
 .bss           0x00000000        0x0 c:/vsarm/armcc/bin/../lib/gcc/arm-none-eabi/9.3.1/../../../../arm-none-eabi/lib/thumb/v7e-m+dp/hard\libc.a(lib_a-lock.o)
 .text.__retarget_lock_init
                0x00000000        0x4 c:/vsarm/armcc/bin/../lib/gcc/arm-none-eabi/9.3.1/../../../../arm-none-eabi/lib/thumb/v7e-m+dp/hard\libc.a(lib_a-lock.o)
 .text.__retarget_lock_close
                0x00000000        0x4 c:/vsarm/armcc/bin/../lib/gcc/arm-none-eabi/9.3.1/../../../../arm-none-eabi/lib/thumb/v7e-m+dp/hard\libc.a(lib_a-lock.o)
 .text.__retarget_lock_acquire
                0x00000000        0x4 c:/vsarm/armcc/bin/../lib/gcc/arm-none-eabi/9.3.1/../../../../arm-none-eabi/lib/thumb/v7e-m+dp/hard\libc.a(lib_a-lock.o)
 .text.__retarget_lock_try_acquire
                0x00000000        0x4 c:/vsarm/armcc/bin/../lib/gcc/arm-none-eabi/9.3.1/../../../../arm-none-eabi/lib/thumb/v7e-m+dp/hard\libc.a(lib_a-lock.o)
 .text.__retarget_lock_try_acquire_recursive
                0x00000000        0x4 c:/vsarm/armcc/bin/../lib/gcc/arm-none-eabi/9.3.1/../../../../arm-none-eabi/lib/thumb/v7e-m+dp/hard\libc.a(lib_a-lock.o)
 .text.__retarget_lock_release
                0x00000000        0x4 c:/vsarm/armcc/bin/../lib/gcc/arm-none-eabi/9.3.1/../../../../arm-none-eabi/lib/thumb/v7e-m+dp/hard\libc.a(lib_a-lock.o)
 .text          0x00000000        0x0 c:/vsarm/armcc/bin/../lib/gcc/arm-none-eabi/9.3.1/../../../../arm-none-eabi/lib/thumb/v7e-m+dp/hard\libc.a(lib_a-mallocr.o)
 .data          0x00000000        0x0 c:/vsarm/armcc/bin/../lib/gcc/arm-none-eabi/9.3.1/../../../../arm-none-eabi/lib/thumb/v7e-m+dp/hard\libc.a(lib_a-mallocr.o)
 .bss           0x00000000        0x0 c:/vsarm/armcc/bin/../lib/gcc/arm-none-eabi/9.3.1/../../../../arm-none-eabi/lib/thumb/v7e-m+dp/hard\libc.a(lib_a-mallocr.o)
 .data          0x00000000        0x0 c:/vsarm/armcc/bin/../lib/gcc/arm-none-eabi/9.3.1/../../../../arm-none-eabi/lib/thumb/v7e-m+dp/hard\libc.a(lib_a-memchr.o)
 .bss           0x00000000        0x0 c:/vsarm/armcc/bin/../lib/gcc/arm-none-eabi/9.3.1/../../../../arm-none-eabi/lib/thumb/v7e-m+dp/hard\libc.a(lib_a-memchr.o)
 .data          0x00000000        0x0 c:/vsarm/armcc/bin/../lib/gcc/arm-none-eabi/9.3.1/../../../../arm-none-eabi/lib/thumb/v7e-m+dp/hard\libc.a(lib_a-memcpy.o)
 .bss           0x00000000        0x0 c:/vsarm/armcc/bin/../lib/gcc/arm-none-eabi/9.3.1/../../../../arm-none-eabi/lib/thumb/v7e-m+dp/hard\libc.a(lib_a-memcpy.o)
 .text          0x00000000        0x0 c:/vsarm/armcc/bin/../lib/gcc/arm-none-eabi/9.3.1/../../../../arm-none-eabi/lib/thumb/v7e-m+dp/hard\libc.a(lib_a-mlock.o)
 .data          0x00000000        0x0 c:/vsarm/armcc/bin/../lib/gcc/arm-none-eabi/9.3.1/../../../../arm-none-eabi/lib/thumb/v7e-m+dp/hard\libc.a(lib_a-mlock.o)
 .bss           0x00000000        0x0 c:/vsarm/armcc/bin/../lib/gcc/arm-none-eabi/9.3.1/../../../../arm-none-eabi/lib/thumb/v7e-m+dp/hard\libc.a(lib_a-mlock.o)
 .text          0x00000000        0x0 c:/vsarm/armcc/bin/../lib/gcc/arm-none-eabi/9.3.1/../../../../arm-none-eabi/lib/thumb/v7e-m+dp/hard\libc.a(lib_a-mprec.o)
 .data          0x00000000        0x0 c:/vsarm/armcc/bin/../lib/gcc/arm-none-eabi/9.3.1/../../../../arm-none-eabi/lib/thumb/v7e-m+dp/hard\libc.a(lib_a-mprec.o)
 .bss           0x00000000        0x0 c:/vsarm/armcc/bin/../lib/gcc/arm-none-eabi/9.3.1/../../../../arm-none-eabi/lib/thumb/v7e-m+dp/hard\libc.a(lib_a-mprec.o)
 .text.__s2b    0x00000000       0xb4 c:/vsarm/armcc/bin/../lib/gcc/arm-none-eabi/9.3.1/../../../../arm-none-eabi/lib/thumb/v7e-m+dp/hard\libc.a(lib_a-mprec.o)
 .text.__ulp    0x00000000       0x60 c:/vsarm/armcc/bin/../lib/gcc/arm-none-eabi/9.3.1/../../../../arm-none-eabi/lib/thumb/v7e-m+dp/hard\libc.a(lib_a-mprec.o)
 .text.__b2d    0x00000000       0xc4 c:/vsarm/armcc/bin/../lib/gcc/arm-none-eabi/9.3.1/../../../../arm-none-eabi/lib/thumb/v7e-m+dp/hard\libc.a(lib_a-mprec.o)
 .text.__ratio  0x00000000       0x64 c:/vsarm/armcc/bin/../lib/gcc/arm-none-eabi/9.3.1/../../../../arm-none-eabi/lib/thumb/v7e-m+dp/hard\libc.a(lib_a-mprec.o)
 .text._mprec_log10
                0x00000000       0x28 c:/vsarm/armcc/bin/../lib/gcc/arm-none-eabi/9.3.1/../../../../arm-none-eabi/lib/thumb/v7e-m+dp/hard\libc.a(lib_a-mprec.o)
 .text.__copybits
                0x00000000       0x48 c:/vsarm/armcc/bin/../lib/gcc/arm-none-eabi/9.3.1/../../../../arm-none-eabi/lib/thumb/v7e-m+dp/hard\libc.a(lib_a-mprec.o)
 .text.__any_on
                0x00000000       0x64 c:/vsarm/armcc/bin/../lib/gcc/arm-none-eabi/9.3.1/../../../../arm-none-eabi/lib/thumb/v7e-m+dp/hard\libc.a(lib_a-mprec.o)
 .rodata.__mprec_tinytens
                0x00000000       0x28 c:/vsarm/armcc/bin/../lib/gcc/arm-none-eabi/9.3.1/../../../../arm-none-eabi/lib/thumb/v7e-m+dp/hard\libc.a(lib_a-mprec.o)
 .text          0x00000000        0x0 c:/vsarm/armcc/bin/../lib/gcc/arm-none-eabi/9.3.1/../../../../arm-none-eabi/lib/thumb/v7e-m+dp/hard\libc.a(lib_a-s_frexp.o)
 .data          0x00000000        0x0 c:/vsarm/armcc/bin/../lib/gcc/arm-none-eabi/9.3.1/../../../../arm-none-eabi/lib/thumb/v7e-m+dp/hard\libc.a(lib_a-s_frexp.o)
 .bss           0x00000000        0x0 c:/vsarm/armcc/bin/../lib/gcc/arm-none-eabi/9.3.1/../../../../arm-none-eabi/lib/thumb/v7e-m+dp/hard\libc.a(lib_a-s_frexp.o)
 .text          0x00000000        0x0 c:/vsarm/armcc/bin/../lib/gcc/arm-none-eabi/9.3.1/../../../../arm-none-eabi/lib/thumb/v7e-m+dp/hard\libc.a(lib_a-sbrkr.o)
 .data          0x00000000        0x0 c:/vsarm/armcc/bin/../lib/gcc/arm-none-eabi/9.3.1/../../../../arm-none-eabi/lib/thumb/v7e-m+dp/hard\libc.a(lib_a-sbrkr.o)
 .bss           0x00000000        0x0 c:/vsarm/armcc/bin/../lib/gcc/arm-none-eabi/9.3.1/../../../../arm-none-eabi/lib/thumb/v7e-m+dp/hard\libc.a(lib_a-sbrkr.o)
 .text          0x00000000        0x0 c:/vsarm/armcc/bin/../lib/gcc/arm-none-eabi/9.3.1/../../../../arm-none-eabi/lib/thumb/v7e-m+dp/hard\libc.a(lib_a-strncpy.o)
 .data          0x00000000        0x0 c:/vsarm/armcc/bin/../lib/gcc/arm-none-eabi/9.3.1/../../../../arm-none-eabi/lib/thumb/v7e-m+dp/hard\libc.a(lib_a-strncpy.o)
 .bss           0x00000000        0x0 c:/vsarm/armcc/bin/../lib/gcc/arm-none-eabi/9.3.1/../../../../arm-none-eabi/lib/thumb/v7e-m+dp/hard\libc.a(lib_a-strncpy.o)
 .text          0x00000000        0x0 c:/vsarm/armcc/bin/../lib/gcc/arm-none-eabi/9.3.1/../../../../arm-none-eabi/lib/thumb/v7e-m+dp/hard\libc.a(lib_a-svfiprintf.o)
 .data          0x00000000        0x0 c:/vsarm/armcc/bin/../lib/gcc/arm-none-eabi/9.3.1/../../../../arm-none-eabi/lib/thumb/v7e-m+dp/hard\libc.a(lib_a-svfiprintf.o)
 .bss           0x00000000        0x0 c:/vsarm/armcc/bin/../lib/gcc/arm-none-eabi/9.3.1/../../../../arm-none-eabi/lib/thumb/v7e-m+dp/hard\libc.a(lib_a-svfiprintf.o)
 .rodata._svfiprintf_r.str1.4
                0x00000000       0x2f c:/vsarm/armcc/bin/../lib/gcc/arm-none-eabi/9.3.1/../../../../arm-none-eabi/lib/thumb/v7e-m+dp/hard\libc.a(lib_a-svfiprintf.o)
 .text._svfiprintf_r
                0x00000000      0xb6c c:/vsarm/armcc/bin/../lib/gcc/arm-none-eabi/9.3.1/../../../../arm-none-eabi/lib/thumb/v7e-m+dp/hard\libc.a(lib_a-svfiprintf.o)
 .rodata.blanks.8677
                0x00000000       0x10 c:/vsarm/armcc/bin/../lib/gcc/arm-none-eabi/9.3.1/../../../../arm-none-eabi/lib/thumb/v7e-m+dp/hard\libc.a(lib_a-svfiprintf.o)
 .rodata.zeroes.8678
                0x00000000       0x10 c:/vsarm/armcc/bin/../lib/gcc/arm-none-eabi/9.3.1/../../../../arm-none-eabi/lib/thumb/v7e-m+dp/hard\libc.a(lib_a-svfiprintf.o)
 .text          0x00000000        0x0 c:/vsarm/armcc/bin/../lib/gcc/arm-none-eabi/9.3.1/../../../../arm-none-eabi/lib/thumb/v7e-m+dp/hard\libc.a(lib_a-__atexit.o)
 .data          0x00000000        0x0 c:/vsarm/armcc/bin/../lib/gcc/arm-none-eabi/9.3.1/../../../../arm-none-eabi/lib/thumb/v7e-m+dp/hard\libc.a(lib_a-__atexit.o)
 .bss           0x00000000        0x0 c:/vsarm/armcc/bin/../lib/gcc/arm-none-eabi/9.3.1/../../../../arm-none-eabi/lib/thumb/v7e-m+dp/hard\libc.a(lib_a-__atexit.o)
 .text          0x00000000        0x0 c:/vsarm/armcc/bin/../lib/gcc/arm-none-eabi/9.3.1/../../../../arm-none-eabi/lib/thumb/v7e-m+dp/hard\libc.a(lib_a-assert.o)
 .data          0x00000000        0x0 c:/vsarm/armcc/bin/../lib/gcc/arm-none-eabi/9.3.1/../../../../arm-none-eabi/lib/thumb/v7e-m+dp/hard\libc.a(lib_a-assert.o)
 .bss           0x00000000        0x0 c:/vsarm/armcc/bin/../lib/gcc/arm-none-eabi/9.3.1/../../../../arm-none-eabi/lib/thumb/v7e-m+dp/hard\libc.a(lib_a-assert.o)
 .text.__assert
                0x00000000        0xc c:/vsarm/armcc/bin/../lib/gcc/arm-none-eabi/9.3.1/../../../../arm-none-eabi/lib/thumb/v7e-m+dp/hard\libc.a(lib_a-assert.o)
 .text          0x00000000        0x0 c:/vsarm/armcc/bin/../lib/gcc/arm-none-eabi/9.3.1/../../../../arm-none-eabi/lib/thumb/v7e-m+dp/hard\libc.a(lib_a-callocr.o)
 .data          0x00000000        0x0 c:/vsarm/armcc/bin/../lib/gcc/arm-none-eabi/9.3.1/../../../../arm-none-eabi/lib/thumb/v7e-m+dp/hard\libc.a(lib_a-callocr.o)
 .bss           0x00000000        0x0 c:/vsarm/armcc/bin/../lib/gcc/arm-none-eabi/9.3.1/../../../../arm-none-eabi/lib/thumb/v7e-m+dp/hard\libc.a(lib_a-callocr.o)
 .text          0x00000000        0x0 c:/vsarm/armcc/bin/../lib/gcc/arm-none-eabi/9.3.1/../../../../arm-none-eabi/lib/thumb/v7e-m+dp/hard\libc.a(lib_a-fiprintf.o)
 .data          0x00000000        0x0 c:/vsarm/armcc/bin/../lib/gcc/arm-none-eabi/9.3.1/../../../../arm-none-eabi/lib/thumb/v7e-m+dp/hard\libc.a(lib_a-fiprintf.o)
 .bss           0x00000000        0x0 c:/vsarm/armcc/bin/../lib/gcc/arm-none-eabi/9.3.1/../../../../arm-none-eabi/lib/thumb/v7e-m+dp/hard\libc.a(lib_a-fiprintf.o)
 .text._fiprintf_r
                0x00000000       0x1c c:/vsarm/armcc/bin/../lib/gcc/arm-none-eabi/9.3.1/../../../../arm-none-eabi/lib/thumb/v7e-m+dp/hard\libc.a(lib_a-fiprintf.o)
 .text          0x00000000        0x0 c:/vsarm/armcc/bin/../lib/gcc/arm-none-eabi/9.3.1/../../../../arm-none-eabi/lib/thumb/v7e-m+dp/hard\libc.a(lib_a-locale.o)
 .data          0x00000000        0x0 c:/vsarm/armcc/bin/../lib/gcc/arm-none-eabi/9.3.1/../../../../arm-none-eabi/lib/thumb/v7e-m+dp/hard\libc.a(lib_a-locale.o)
 .bss           0x00000000        0x0 c:/vsarm/armcc/bin/../lib/gcc/arm-none-eabi/9.3.1/../../../../arm-none-eabi/lib/thumb/v7e-m+dp/hard\libc.a(lib_a-locale.o)
 .text._setlocale_r
                0x00000000       0x40 c:/vsarm/armcc/bin/../lib/gcc/arm-none-eabi/9.3.1/../../../../arm-none-eabi/lib/thumb/v7e-m+dp/hard\libc.a(lib_a-locale.o)
 .text.setlocale
                0x00000000       0x10 c:/vsarm/armcc/bin/../lib/gcc/arm-none-eabi/9.3.1/../../../../arm-none-eabi/lib/thumb/v7e-m+dp/hard\libc.a(lib_a-locale.o)
 .bss._PathLocale
                0x00000000        0x4 c:/vsarm/armcc/bin/../lib/gcc/arm-none-eabi/9.3.1/../../../../arm-none-eabi/lib/thumb/v7e-m+dp/hard\libc.a(lib_a-locale.o)
 .text          0x00000000        0x0 c:/vsarm/armcc/bin/../lib/gcc/arm-none-eabi/9.3.1/../../../../arm-none-eabi/lib/thumb/v7e-m+dp/hard\libc.a(lib_a-mbtowc_r.o)
 .data          0x00000000        0x0 c:/vsarm/armcc/bin/../lib/gcc/arm-none-eabi/9.3.1/../../../../arm-none-eabi/lib/thumb/v7e-m+dp/hard\libc.a(lib_a-mbtowc_r.o)
 .bss           0x00000000        0x0 c:/vsarm/armcc/bin/../lib/gcc/arm-none-eabi/9.3.1/../../../../arm-none-eabi/lib/thumb/v7e-m+dp/hard\libc.a(lib_a-mbtowc_r.o)
 .text._mbtowc_r
                0x00000000       0x14 c:/vsarm/armcc/bin/../lib/gcc/arm-none-eabi/9.3.1/../../../../arm-none-eabi/lib/thumb/v7e-m+dp/hard\libc.a(lib_a-mbtowc_r.o)
 .text          0x00000000        0x0 c:/vsarm/armcc/bin/../lib/gcc/arm-none-eabi/9.3.1/../../../../arm-none-eabi/lib/thumb/v7e-m+dp/hard\libc.a(lib_a-memmove.o)
 .data          0x00000000        0x0 c:/vsarm/armcc/bin/../lib/gcc/arm-none-eabi/9.3.1/../../../../arm-none-eabi/lib/thumb/v7e-m+dp/hard\libc.a(lib_a-memmove.o)
 .bss           0x00000000        0x0 c:/vsarm/armcc/bin/../lib/gcc/arm-none-eabi/9.3.1/../../../../arm-none-eabi/lib/thumb/v7e-m+dp/hard\libc.a(lib_a-memmove.o)
 .text          0x00000000        0x0 c:/vsarm/armcc/bin/../lib/gcc/arm-none-eabi/9.3.1/../../../../arm-none-eabi/lib/thumb/v7e-m+dp/hard\libc.a(lib_a-reallocr.o)
 .data          0x00000000        0x0 c:/vsarm/armcc/bin/../lib/gcc/arm-none-eabi/9.3.1/../../../../arm-none-eabi/lib/thumb/v7e-m+dp/hard\libc.a(lib_a-reallocr.o)
 .bss           0x00000000        0x0 c:/vsarm/armcc/bin/../lib/gcc/arm-none-eabi/9.3.1/../../../../arm-none-eabi/lib/thumb/v7e-m+dp/hard\libc.a(lib_a-reallocr.o)
 .text          0x00000000        0x0 c:/vsarm/armcc/bin/../lib/gcc/arm-none-eabi/9.3.1/../../../../arm-none-eabi/lib/thumb/v7e-m+dp/hard\libc.a(lib_a-reent.o)
 .data          0x00000000        0x0 c:/vsarm/armcc/bin/../lib/gcc/arm-none-eabi/9.3.1/../../../../arm-none-eabi/lib/thumb/v7e-m+dp/hard\libc.a(lib_a-reent.o)
 .bss           0x00000000        0x0 c:/vsarm/armcc/bin/../lib/gcc/arm-none-eabi/9.3.1/../../../../arm-none-eabi/lib/thumb/v7e-m+dp/hard\libc.a(lib_a-reent.o)
 .text.cleanup_glue
                0x00000000       0x1c c:/vsarm/armcc/bin/../lib/gcc/arm-none-eabi/9.3.1/../../../../arm-none-eabi/lib/thumb/v7e-m+dp/hard\libc.a(lib_a-reent.o)
 .text._reclaim_reent
                0x00000000       0x84 c:/vsarm/armcc/bin/../lib/gcc/arm-none-eabi/9.3.1/../../../../arm-none-eabi/lib/thumb/v7e-m+dp/hard\libc.a(lib_a-reent.o)
 .text          0x00000000      0x2dc c:/vsarm/armcc/bin/../lib/gcc/arm-none-eabi/9.3.1/../../../../arm-none-eabi/lib/thumb/v7e-m+dp/hard\libc.a(lib_a-strcmp.o)
 .data          0x00000000        0x0 c:/vsarm/armcc/bin/../lib/gcc/arm-none-eabi/9.3.1/../../../../arm-none-eabi/lib/thumb/v7e-m+dp/hard\libc.a(lib_a-strcmp.o)
 .bss           0x00000000        0x0 c:/vsarm/armcc/bin/../lib/gcc/arm-none-eabi/9.3.1/../../../../arm-none-eabi/lib/thumb/v7e-m+dp/hard\libc.a(lib_a-strcmp.o)
 .debug_frame   0x00000000       0x68 c:/vsarm/armcc/bin/../lib/gcc/arm-none-eabi/9.3.1/../../../../arm-none-eabi/lib/thumb/v7e-m+dp/hard\libc.a(lib_a-strcmp.o)
 .ARM.attributes
                0x00000000       0x1c c:/vsarm/armcc/bin/../lib/gcc/arm-none-eabi/9.3.1/../../../../arm-none-eabi/lib/thumb/v7e-m+dp/hard\libc.a(lib_a-strcmp.o)
 .text          0x00000000        0x0 c:/vsarm/armcc/bin/../lib/gcc/arm-none-eabi/9.3.1/../../../../arm-none-eabi/lib/thumb/v7e-m+dp/hard\libc.a(lib_a-vfiprintf.o)
 .data          0x00000000        0x0 c:/vsarm/armcc/bin/../lib/gcc/arm-none-eabi/9.3.1/../../../../arm-none-eabi/lib/thumb/v7e-m+dp/hard\libc.a(lib_a-vfiprintf.o)
 .bss           0x00000000        0x0 c:/vsarm/armcc/bin/../lib/gcc/arm-none-eabi/9.3.1/../../../../arm-none-eabi/lib/thumb/v7e-m+dp/hard\libc.a(lib_a-vfiprintf.o)
 .text.__sprint_r
                0x00000000       0x18 c:/vsarm/armcc/bin/../lib/gcc/arm-none-eabi/9.3.1/../../../../arm-none-eabi/lib/thumb/v7e-m+dp/hard\libc.a(lib_a-vfiprintf.o)
 .text.vfiprintf
                0x00000000       0x18 c:/vsarm/armcc/bin/../lib/gcc/arm-none-eabi/9.3.1/../../../../arm-none-eabi/lib/thumb/v7e-m+dp/hard\libc.a(lib_a-vfiprintf.o)
 .text          0x00000000        0x0 c:/vsarm/armcc/bin/../lib/gcc/arm-none-eabi/9.3.1/../../../../arm-none-eabi/lib/thumb/v7e-m+dp/hard\libc.a(lib_a-wctomb_r.o)
 .data          0x00000000        0x0 c:/vsarm/armcc/bin/../lib/gcc/arm-none-eabi/9.3.1/../../../../arm-none-eabi/lib/thumb/v7e-m+dp/hard\libc.a(lib_a-wctomb_r.o)
 .bss           0x00000000        0x0 c:/vsarm/armcc/bin/../lib/gcc/arm-none-eabi/9.3.1/../../../../arm-none-eabi/lib/thumb/v7e-m+dp/hard\libc.a(lib_a-wctomb_r.o)
 .text._wctomb_r
                0x00000000       0x14 c:/vsarm/armcc/bin/../lib/gcc/arm-none-eabi/9.3.1/../../../../arm-none-eabi/lib/thumb/v7e-m+dp/hard\libc.a(lib_a-wctomb_r.o)
 .text          0x00000000        0x0 c:/vsarm/armcc/bin/../lib/gcc/arm-none-eabi/9.3.1/../../../../arm-none-eabi/lib/thumb/v7e-m+dp/hard\libc.a(lib_a-wsetup.o)
 .data          0x00000000        0x0 c:/vsarm/armcc/bin/../lib/gcc/arm-none-eabi/9.3.1/../../../../arm-none-eabi/lib/thumb/v7e-m+dp/hard\libc.a(lib_a-wsetup.o)
 .bss           0x00000000        0x0 c:/vsarm/armcc/bin/../lib/gcc/arm-none-eabi/9.3.1/../../../../arm-none-eabi/lib/thumb/v7e-m+dp/hard\libc.a(lib_a-wsetup.o)
 .text          0x00000000        0x0 c:/vsarm/armcc/bin/../lib/gcc/arm-none-eabi/9.3.1/../../../../arm-none-eabi/lib/thumb/v7e-m+dp/hard\libc.a(lib_a-abort.o)
 .data          0x00000000        0x0 c:/vsarm/armcc/bin/../lib/gcc/arm-none-eabi/9.3.1/../../../../arm-none-eabi/lib/thumb/v7e-m+dp/hard\libc.a(lib_a-abort.o)
 .bss           0x00000000        0x0 c:/vsarm/armcc/bin/../lib/gcc/arm-none-eabi/9.3.1/../../../../arm-none-eabi/lib/thumb/v7e-m+dp/hard\libc.a(lib_a-abort.o)
 .text          0x00000000        0x0 c:/vsarm/armcc/bin/../lib/gcc/arm-none-eabi/9.3.1/../../../../arm-none-eabi/lib/thumb/v7e-m+dp/hard\libc.a(lib_a-ctype_.o)
 .data          0x00000000        0x0 c:/vsarm/armcc/bin/../lib/gcc/arm-none-eabi/9.3.1/../../../../arm-none-eabi/lib/thumb/v7e-m+dp/hard\libc.a(lib_a-ctype_.o)
 .bss           0x00000000        0x0 c:/vsarm/armcc/bin/../lib/gcc/arm-none-eabi/9.3.1/../../../../arm-none-eabi/lib/thumb/v7e-m+dp/hard\libc.a(lib_a-ctype_.o)
 .text          0x00000000        0x0 c:/vsarm/armcc/bin/../lib/gcc/arm-none-eabi/9.3.1/../../../../arm-none-eabi/lib/thumb/v7e-m+dp/hard\libc.a(lib_a-fflush.o)
 .data          0x00000000        0x0 c:/vsarm/armcc/bin/../lib/gcc/arm-none-eabi/9.3.1/../../../../arm-none-eabi/lib/thumb/v7e-m+dp/hard\libc.a(lib_a-fflush.o)
 .bss           0x00000000        0x0 c:/vsarm/armcc/bin/../lib/gcc/arm-none-eabi/9.3.1/../../../../arm-none-eabi/lib/thumb/v7e-m+dp/hard\libc.a(lib_a-fflush.o)
 .text.fflush   0x00000000       0x24 c:/vsarm/armcc/bin/../lib/gcc/arm-none-eabi/9.3.1/../../../../arm-none-eabi/lib/thumb/v7e-m+dp/hard\libc.a(lib_a-fflush.o)
 .text          0x00000000        0x0 c:/vsarm/armcc/bin/../lib/gcc/arm-none-eabi/9.3.1/../../../../arm-none-eabi/lib/thumb/v7e-m+dp/hard\libc.a(lib_a-findfp.o)
 .data          0x00000000        0x0 c:/vsarm/armcc/bin/../lib/gcc/arm-none-eabi/9.3.1/../../../../arm-none-eabi/lib/thumb/v7e-m+dp/hard\libc.a(lib_a-findfp.o)
 .bss           0x00000000        0x0 c:/vsarm/armcc/bin/../lib/gcc/arm-none-eabi/9.3.1/../../../../arm-none-eabi/lib/thumb/v7e-m+dp/hard\libc.a(lib_a-findfp.o)
 .text.__fp_lock
                0x00000000       0x1c c:/vsarm/armcc/bin/../lib/gcc/arm-none-eabi/9.3.1/../../../../arm-none-eabi/lib/thumb/v7e-m+dp/hard\libc.a(lib_a-findfp.o)
 .text.__fp_unlock
                0x00000000       0x1c c:/vsarm/armcc/bin/../lib/gcc/arm-none-eabi/9.3.1/../../../../arm-none-eabi/lib/thumb/v7e-m+dp/hard\libc.a(lib_a-findfp.o)
 .text.__sfmoreglue
                0x00000000       0x30 c:/vsarm/armcc/bin/../lib/gcc/arm-none-eabi/9.3.1/../../../../arm-none-eabi/lib/thumb/v7e-m+dp/hard\libc.a(lib_a-findfp.o)
 .text._cleanup
                0x00000000       0x14 c:/vsarm/armcc/bin/../lib/gcc/arm-none-eabi/9.3.1/../../../../arm-none-eabi/lib/thumb/v7e-m+dp/hard\libc.a(lib_a-findfp.o)
 .text.__sfp    0x00000000       0xa4 c:/vsarm/armcc/bin/../lib/gcc/arm-none-eabi/9.3.1/../../../../arm-none-eabi/lib/thumb/v7e-m+dp/hard\libc.a(lib_a-findfp.o)
 .text.__sinit_lock_acquire
                0x00000000        0xc c:/vsarm/armcc/bin/../lib/gcc/arm-none-eabi/9.3.1/../../../../arm-none-eabi/lib/thumb/v7e-m+dp/hard\libc.a(lib_a-findfp.o)
 .text.__sinit_lock_release
                0x00000000        0xc c:/vsarm/armcc/bin/../lib/gcc/arm-none-eabi/9.3.1/../../../../arm-none-eabi/lib/thumb/v7e-m+dp/hard\libc.a(lib_a-findfp.o)
 .text.__fp_lock_all
                0x00000000       0x24 c:/vsarm/armcc/bin/../lib/gcc/arm-none-eabi/9.3.1/../../../../arm-none-eabi/lib/thumb/v7e-m+dp/hard\libc.a(lib_a-findfp.o)
 .text.__fp_unlock_all
                0x00000000       0x24 c:/vsarm/armcc/bin/../lib/gcc/arm-none-eabi/9.3.1/../../../../arm-none-eabi/lib/thumb/v7e-m+dp/hard\libc.a(lib_a-findfp.o)
 .text          0x00000000        0x0 c:/vsarm/armcc/bin/../lib/gcc/arm-none-eabi/9.3.1/../../../../arm-none-eabi/lib/thumb/v7e-m+dp/hard\libc.a(lib_a-fputwc.o)
 .data          0x00000000        0x0 c:/vsarm/armcc/bin/../lib/gcc/arm-none-eabi/9.3.1/../../../../arm-none-eabi/lib/thumb/v7e-m+dp/hard\libc.a(lib_a-fputwc.o)
 .bss           0x00000000        0x0 c:/vsarm/armcc/bin/../lib/gcc/arm-none-eabi/9.3.1/../../../../arm-none-eabi/lib/thumb/v7e-m+dp/hard\libc.a(lib_a-fputwc.o)
 .text.fputwc   0x00000000       0x3c c:/vsarm/armcc/bin/../lib/gcc/arm-none-eabi/9.3.1/../../../../arm-none-eabi/lib/thumb/v7e-m+dp/hard\libc.a(lib_a-fputwc.o)
 .text          0x00000000        0x0 c:/vsarm/armcc/bin/../lib/gcc/arm-none-eabi/9.3.1/../../../../arm-none-eabi/lib/thumb/v7e-m+dp/hard\libc.a(lib_a-fvwrite.o)
 .data          0x00000000        0x0 c:/vsarm/armcc/bin/../lib/gcc/arm-none-eabi/9.3.1/../../../../arm-none-eabi/lib/thumb/v7e-m+dp/hard\libc.a(lib_a-fvwrite.o)
 .bss           0x00000000        0x0 c:/vsarm/armcc/bin/../lib/gcc/arm-none-eabi/9.3.1/../../../../arm-none-eabi/lib/thumb/v7e-m+dp/hard\libc.a(lib_a-fvwrite.o)
 .text          0x00000000        0x0 c:/vsarm/armcc/bin/../lib/gcc/arm-none-eabi/9.3.1/../../../../arm-none-eabi/lib/thumb/v7e-m+dp/hard\libc.a(lib_a-fwalk.o)
 .data          0x00000000        0x0 c:/vsarm/armcc/bin/../lib/gcc/arm-none-eabi/9.3.1/../../../../arm-none-eabi/lib/thumb/v7e-m+dp/hard\libc.a(lib_a-fwalk.o)
 .bss           0x00000000        0x0 c:/vsarm/armcc/bin/../lib/gcc/arm-none-eabi/9.3.1/../../../../arm-none-eabi/lib/thumb/v7e-m+dp/hard\libc.a(lib_a-fwalk.o)
 .text._fwalk   0x00000000       0x40 c:/vsarm/armcc/bin/../lib/gcc/arm-none-eabi/9.3.1/../../../../arm-none-eabi/lib/thumb/v7e-m+dp/hard\libc.a(lib_a-fwalk.o)
 .text          0x00000000        0x0 c:/vsarm/armcc/bin/../lib/gcc/arm-none-eabi/9.3.1/../../../../arm-none-eabi/lib/thumb/v7e-m+dp/hard\libc.a(lib_a-makebuf.o)
 .data          0x00000000        0x0 c:/vsarm/armcc/bin/../lib/gcc/arm-none-eabi/9.3.1/../../../../arm-none-eabi/lib/thumb/v7e-m+dp/hard\libc.a(lib_a-makebuf.o)
 .bss           0x00000000        0x0 c:/vsarm/armcc/bin/../lib/gcc/arm-none-eabi/9.3.1/../../../../arm-none-eabi/lib/thumb/v7e-m+dp/hard\libc.a(lib_a-makebuf.o)
 .text          0x00000000        0x0 c:/vsarm/armcc/bin/../lib/gcc/arm-none-eabi/9.3.1/../../../../arm-none-eabi/lib/thumb/v7e-m+dp/hard\libc.a(lib_a-signal.o)
 .data          0x00000000        0x0 c:/vsarm/armcc/bin/../lib/gcc/arm-none-eabi/9.3.1/../../../../arm-none-eabi/lib/thumb/v7e-m+dp/hard\libc.a(lib_a-signal.o)
 .bss           0x00000000        0x0 c:/vsarm/armcc/bin/../lib/gcc/arm-none-eabi/9.3.1/../../../../arm-none-eabi/lib/thumb/v7e-m+dp/hard\libc.a(lib_a-signal.o)
 .text._init_signal_r.part.0
                0x00000000       0x2c c:/vsarm/armcc/bin/../lib/gcc/arm-none-eabi/9.3.1/../../../../arm-none-eabi/lib/thumb/v7e-m+dp/hard\libc.a(lib_a-signal.o)
 .text._init_signal_r
                0x00000000       0x10 c:/vsarm/armcc/bin/../lib/gcc/arm-none-eabi/9.3.1/../../../../arm-none-eabi/lib/thumb/v7e-m+dp/hard\libc.a(lib_a-signal.o)
 .text._signal_r
                0x00000000       0x38 c:/vsarm/armcc/bin/../lib/gcc/arm-none-eabi/9.3.1/../../../../arm-none-eabi/lib/thumb/v7e-m+dp/hard\libc.a(lib_a-signal.o)
 .text.__sigtramp_r
                0x00000000       0x54 c:/vsarm/armcc/bin/../lib/gcc/arm-none-eabi/9.3.1/../../../../arm-none-eabi/lib/thumb/v7e-m+dp/hard\libc.a(lib_a-signal.o)
 .text.signal   0x00000000       0x10 c:/vsarm/armcc/bin/../lib/gcc/arm-none-eabi/9.3.1/../../../../arm-none-eabi/lib/thumb/v7e-m+dp/hard\libc.a(lib_a-signal.o)
 .text._init_signal
                0x00000000       0x18 c:/vsarm/armcc/bin/../lib/gcc/arm-none-eabi/9.3.1/../../../../arm-none-eabi/lib/thumb/v7e-m+dp/hard\libc.a(lib_a-signal.o)
 .text.__sigtramp
                0x00000000       0x10 c:/vsarm/armcc/bin/../lib/gcc/arm-none-eabi/9.3.1/../../../../arm-none-eabi/lib/thumb/v7e-m+dp/hard\libc.a(lib_a-signal.o)
 .text          0x00000000        0x0 c:/vsarm/armcc/bin/../lib/gcc/arm-none-eabi/9.3.1/../../../../arm-none-eabi/lib/thumb/v7e-m+dp/hard\libc.a(lib_a-signalr.o)
 .data          0x00000000        0x0 c:/vsarm/armcc/bin/../lib/gcc/arm-none-eabi/9.3.1/../../../../arm-none-eabi/lib/thumb/v7e-m+dp/hard\libc.a(lib_a-signalr.o)
 .bss           0x00000000        0x0 c:/vsarm/armcc/bin/../lib/gcc/arm-none-eabi/9.3.1/../../../../arm-none-eabi/lib/thumb/v7e-m+dp/hard\libc.a(lib_a-signalr.o)
 .text          0x00000000        0x0 c:/vsarm/armcc/bin/../lib/gcc/arm-none-eabi/9.3.1/../../../../arm-none-eabi/lib/thumb/v7e-m+dp/hard\libc.a(lib_a-stdio.o)
 .data          0x00000000        0x0 c:/vsarm/armcc/bin/../lib/gcc/arm-none-eabi/9.3.1/../../../../arm-none-eabi/lib/thumb/v7e-m+dp/hard\libc.a(lib_a-stdio.o)
 .bss           0x00000000        0x0 c:/vsarm/armcc/bin/../lib/gcc/arm-none-eabi/9.3.1/../../../../arm-none-eabi/lib/thumb/v7e-m+dp/hard\libc.a(lib_a-stdio.o)
 .text.__seofread
                0x00000000        0x4 c:/vsarm/armcc/bin/../lib/gcc/arm-none-eabi/9.3.1/../../../../arm-none-eabi/lib/thumb/v7e-m+dp/hard\libc.a(lib_a-stdio.o)
 .text          0x00000000        0x0 c:/vsarm/armcc/bin/../lib/gcc/arm-none-eabi/9.3.1/../../../../arm-none-eabi/lib/thumb/v7e-m+dp/hard\libc.a(lib_a-wbuf.o)
 .data          0x00000000        0x0 c:/vsarm/armcc/bin/../lib/gcc/arm-none-eabi/9.3.1/../../../../arm-none-eabi/lib/thumb/v7e-m+dp/hard\libc.a(lib_a-wbuf.o)
 .bss           0x00000000        0x0 c:/vsarm/armcc/bin/../lib/gcc/arm-none-eabi/9.3.1/../../../../arm-none-eabi/lib/thumb/v7e-m+dp/hard\libc.a(lib_a-wbuf.o)
 .text.__swbuf  0x00000000       0x10 c:/vsarm/armcc/bin/../lib/gcc/arm-none-eabi/9.3.1/../../../../arm-none-eabi/lib/thumb/v7e-m+dp/hard\libc.a(lib_a-wbuf.o)
 .text          0x00000000        0x0 c:/vsarm/armcc/bin/../lib/gcc/arm-none-eabi/9.3.1/../../../../arm-none-eabi/lib/thumb/v7e-m+dp/hard\libc.a(lib_a-wcrtomb.o)
 .data          0x00000000        0x0 c:/vsarm/armcc/bin/../lib/gcc/arm-none-eabi/9.3.1/../../../../arm-none-eabi/lib/thumb/v7e-m+dp/hard\libc.a(lib_a-wcrtomb.o)
 .bss           0x00000000        0x0 c:/vsarm/armcc/bin/../lib/gcc/arm-none-eabi/9.3.1/../../../../arm-none-eabi/lib/thumb/v7e-m+dp/hard\libc.a(lib_a-wcrtomb.o)
 .text.wcrtomb  0x00000000       0x4c c:/vsarm/armcc/bin/../lib/gcc/arm-none-eabi/9.3.1/../../../../arm-none-eabi/lib/thumb/v7e-m+dp/hard\libc.a(lib_a-wcrtomb.o)
 .text          0x00000000        0x0 c:/vsarm/armcc/bin/../lib/gcc/arm-none-eabi/9.3.1/../../../../arm-none-eabi/lib/thumb/v7e-m+dp/hard\libc.a(lib_a-writer.o)
 .data          0x00000000        0x0 c:/vsarm/armcc/bin/../lib/gcc/arm-none-eabi/9.3.1/../../../../arm-none-eabi/lib/thumb/v7e-m+dp/hard\libc.a(lib_a-writer.o)
 .bss           0x00000000        0x0 c:/vsarm/armcc/bin/../lib/gcc/arm-none-eabi/9.3.1/../../../../arm-none-eabi/lib/thumb/v7e-m+dp/hard\libc.a(lib_a-writer.o)
 .text          0x00000000        0x0 c:/vsarm/armcc/bin/../lib/gcc/arm-none-eabi/9.3.1/../../../../arm-none-eabi/lib/thumb/v7e-m+dp/hard\libc.a(lib_a-closer.o)
 .data          0x00000000        0x0 c:/vsarm/armcc/bin/../lib/gcc/arm-none-eabi/9.3.1/../../../../arm-none-eabi/lib/thumb/v7e-m+dp/hard\libc.a(lib_a-closer.o)
 .bss           0x00000000        0x0 c:/vsarm/armcc/bin/../lib/gcc/arm-none-eabi/9.3.1/../../../../arm-none-eabi/lib/thumb/v7e-m+dp/hard\libc.a(lib_a-closer.o)
 .text          0x00000000        0x0 c:/vsarm/armcc/bin/../lib/gcc/arm-none-eabi/9.3.1/../../../../arm-none-eabi/lib/thumb/v7e-m+dp/hard\libc.a(lib_a-fclose.o)
 .data          0x00000000        0x0 c:/vsarm/armcc/bin/../lib/gcc/arm-none-eabi/9.3.1/../../../../arm-none-eabi/lib/thumb/v7e-m+dp/hard\libc.a(lib_a-fclose.o)
 .bss           0x00000000        0x0 c:/vsarm/armcc/bin/../lib/gcc/arm-none-eabi/9.3.1/../../../../arm-none-eabi/lib/thumb/v7e-m+dp/hard\libc.a(lib_a-fclose.o)
 .text.fclose   0x00000000       0x10 c:/vsarm/armcc/bin/../lib/gcc/arm-none-eabi/9.3.1/../../../../arm-none-eabi/lib/thumb/v7e-m+dp/hard\libc.a(lib_a-fclose.o)
 .text          0x00000000        0x0 c:/vsarm/armcc/bin/../lib/gcc/arm-none-eabi/9.3.1/../../../../arm-none-eabi/lib/thumb/v7e-m+dp/hard\libc.a(lib_a-fstatr.o)
 .data          0x00000000        0x0 c:/vsarm/armcc/bin/../lib/gcc/arm-none-eabi/9.3.1/../../../../arm-none-eabi/lib/thumb/v7e-m+dp/hard\libc.a(lib_a-fstatr.o)
 .bss           0x00000000        0x0 c:/vsarm/armcc/bin/../lib/gcc/arm-none-eabi/9.3.1/../../../../arm-none-eabi/lib/thumb/v7e-m+dp/hard\libc.a(lib_a-fstatr.o)
 .text          0x00000000        0x0 c:/vsarm/armcc/bin/../lib/gcc/arm-none-eabi/9.3.1/../../../../arm-none-eabi/lib/thumb/v7e-m+dp/hard\libc.a(lib_a-isattyr.o)
 .data          0x00000000        0x0 c:/vsarm/armcc/bin/../lib/gcc/arm-none-eabi/9.3.1/../../../../arm-none-eabi/lib/thumb/v7e-m+dp/hard\libc.a(lib_a-isattyr.o)
 .bss           0x00000000        0x0 c:/vsarm/armcc/bin/../lib/gcc/arm-none-eabi/9.3.1/../../../../arm-none-eabi/lib/thumb/v7e-m+dp/hard\libc.a(lib_a-isattyr.o)
 .text          0x00000000        0x0 c:/vsarm/armcc/bin/../lib/gcc/arm-none-eabi/9.3.1/../../../../arm-none-eabi/lib/thumb/v7e-m+dp/hard\libc.a(lib_a-lseekr.o)
 .data          0x00000000        0x0 c:/vsarm/armcc/bin/../lib/gcc/arm-none-eabi/9.3.1/../../../../arm-none-eabi/lib/thumb/v7e-m+dp/hard\libc.a(lib_a-lseekr.o)
 .bss           0x00000000        0x0 c:/vsarm/armcc/bin/../lib/gcc/arm-none-eabi/9.3.1/../../../../arm-none-eabi/lib/thumb/v7e-m+dp/hard\libc.a(lib_a-lseekr.o)
 .text          0x00000000        0x0 c:/vsarm/armcc/bin/../lib/gcc/arm-none-eabi/9.3.1/../../../../arm-none-eabi/lib/thumb/v7e-m+dp/hard\libc.a(lib_a-readr.o)
 .data          0x00000000        0x0 c:/vsarm/armcc/bin/../lib/gcc/arm-none-eabi/9.3.1/../../../../arm-none-eabi/lib/thumb/v7e-m+dp/hard\libc.a(lib_a-readr.o)
 .bss           0x00000000        0x0 c:/vsarm/armcc/bin/../lib/gcc/arm-none-eabi/9.3.1/../../../../arm-none-eabi/lib/thumb/v7e-m+dp/hard\libc.a(lib_a-readr.o)
 .text          0x00000000        0x0 c:/vsarm/armcc/bin/../lib/gcc/arm-none-eabi/9.3.1/../../../../arm-none-eabi/lib/thumb/v7e-m+dp/hard\libnosys.a(close.o)
 .data          0x00000000        0x0 c:/vsarm/armcc/bin/../lib/gcc/arm-none-eabi/9.3.1/../../../../arm-none-eabi/lib/thumb/v7e-m+dp/hard\libnosys.a(close.o)
 .bss           0x00000000        0x0 c:/vsarm/armcc/bin/../lib/gcc/arm-none-eabi/9.3.1/../../../../arm-none-eabi/lib/thumb/v7e-m+dp/hard\libnosys.a(close.o)
 .text          0x00000000        0x0 c:/vsarm/armcc/bin/../lib/gcc/arm-none-eabi/9.3.1/../../../../arm-none-eabi/lib/thumb/v7e-m+dp/hard\libnosys.a(fstat.o)
 .data          0x00000000        0x0 c:/vsarm/armcc/bin/../lib/gcc/arm-none-eabi/9.3.1/../../../../arm-none-eabi/lib/thumb/v7e-m+dp/hard\libnosys.a(fstat.o)
 .bss           0x00000000        0x0 c:/vsarm/armcc/bin/../lib/gcc/arm-none-eabi/9.3.1/../../../../arm-none-eabi/lib/thumb/v7e-m+dp/hard\libnosys.a(fstat.o)
 .text          0x00000000        0x0 c:/vsarm/armcc/bin/../lib/gcc/arm-none-eabi/9.3.1/../../../../arm-none-eabi/lib/thumb/v7e-m+dp/hard\libnosys.a(getpid.o)
 .data          0x00000000        0x0 c:/vsarm/armcc/bin/../lib/gcc/arm-none-eabi/9.3.1/../../../../arm-none-eabi/lib/thumb/v7e-m+dp/hard\libnosys.a(getpid.o)
 .bss           0x00000000        0x0 c:/vsarm/armcc/bin/../lib/gcc/arm-none-eabi/9.3.1/../../../../arm-none-eabi/lib/thumb/v7e-m+dp/hard\libnosys.a(getpid.o)
 .text          0x00000000        0x0 c:/vsarm/armcc/bin/../lib/gcc/arm-none-eabi/9.3.1/../../../../arm-none-eabi/lib/thumb/v7e-m+dp/hard\libnosys.a(isatty.o)
 .data          0x00000000        0x0 c:/vsarm/armcc/bin/../lib/gcc/arm-none-eabi/9.3.1/../../../../arm-none-eabi/lib/thumb/v7e-m+dp/hard\libnosys.a(isatty.o)
 .bss           0x00000000        0x0 c:/vsarm/armcc/bin/../lib/gcc/arm-none-eabi/9.3.1/../../../../arm-none-eabi/lib/thumb/v7e-m+dp/hard\libnosys.a(isatty.o)
 .text          0x00000000        0x0 c:/vsarm/armcc/bin/../lib/gcc/arm-none-eabi/9.3.1/../../../../arm-none-eabi/lib/thumb/v7e-m+dp/hard\libnosys.a(kill.o)
 .data          0x00000000        0x0 c:/vsarm/armcc/bin/../lib/gcc/arm-none-eabi/9.3.1/../../../../arm-none-eabi/lib/thumb/v7e-m+dp/hard\libnosys.a(kill.o)
 .bss           0x00000000        0x0 c:/vsarm/armcc/bin/../lib/gcc/arm-none-eabi/9.3.1/../../../../arm-none-eabi/lib/thumb/v7e-m+dp/hard\libnosys.a(kill.o)
 .text          0x00000000        0x0 c:/vsarm/armcc/bin/../lib/gcc/arm-none-eabi/9.3.1/../../../../arm-none-eabi/lib/thumb/v7e-m+dp/hard\libnosys.a(lseek.o)
 .data          0x00000000        0x0 c:/vsarm/armcc/bin/../lib/gcc/arm-none-eabi/9.3.1/../../../../arm-none-eabi/lib/thumb/v7e-m+dp/hard\libnosys.a(lseek.o)
 .bss           0x00000000        0x0 c:/vsarm/armcc/bin/../lib/gcc/arm-none-eabi/9.3.1/../../../../arm-none-eabi/lib/thumb/v7e-m+dp/hard\libnosys.a(lseek.o)
 .text          0x00000000        0x0 c:/vsarm/armcc/bin/../lib/gcc/arm-none-eabi/9.3.1/../../../../arm-none-eabi/lib/thumb/v7e-m+dp/hard\libnosys.a(read.o)
 .data          0x00000000        0x0 c:/vsarm/armcc/bin/../lib/gcc/arm-none-eabi/9.3.1/../../../../arm-none-eabi/lib/thumb/v7e-m+dp/hard\libnosys.a(read.o)
 .bss           0x00000000        0x0 c:/vsarm/armcc/bin/../lib/gcc/arm-none-eabi/9.3.1/../../../../arm-none-eabi/lib/thumb/v7e-m+dp/hard\libnosys.a(read.o)
 .text          0x00000000        0x0 c:/vsarm/armcc/bin/../lib/gcc/arm-none-eabi/9.3.1/../../../../arm-none-eabi/lib/thumb/v7e-m+dp/hard\libnosys.a(sbrk.o)
 .data          0x00000000        0x0 c:/vsarm/armcc/bin/../lib/gcc/arm-none-eabi/9.3.1/../../../../arm-none-eabi/lib/thumb/v7e-m+dp/hard\libnosys.a(sbrk.o)
 .bss           0x00000000        0x0 c:/vsarm/armcc/bin/../lib/gcc/arm-none-eabi/9.3.1/../../../../arm-none-eabi/lib/thumb/v7e-m+dp/hard\libnosys.a(sbrk.o)
 .text          0x00000000        0x0 c:/vsarm/armcc/bin/../lib/gcc/arm-none-eabi/9.3.1/../../../../arm-none-eabi/lib/thumb/v7e-m+dp/hard\libnosys.a(write.o)
 .data          0x00000000        0x0 c:/vsarm/armcc/bin/../lib/gcc/arm-none-eabi/9.3.1/../../../../arm-none-eabi/lib/thumb/v7e-m+dp/hard\libnosys.a(write.o)
 .bss           0x00000000        0x0 c:/vsarm/armcc/bin/../lib/gcc/arm-none-eabi/9.3.1/../../../../arm-none-eabi/lib/thumb/v7e-m+dp/hard\libnosys.a(write.o)
 .text          0x00000000        0x0 c:/vsarm/armcc/bin/../lib/gcc/arm-none-eabi/9.3.1/../../../../arm-none-eabi/lib/thumb/v7e-m+dp/hard\libnosys.a(_exit.o)
 .data          0x00000000        0x0 c:/vsarm/armcc/bin/../lib/gcc/arm-none-eabi/9.3.1/../../../../arm-none-eabi/lib/thumb/v7e-m+dp/hard\libnosys.a(_exit.o)
 .bss           0x00000000        0x0 c:/vsarm/armcc/bin/../lib/gcc/arm-none-eabi/9.3.1/../../../../arm-none-eabi/lib/thumb/v7e-m+dp/hard\libnosys.a(_exit.o)
 .data          0x00000000        0x0 c:/vsarm/armcc/bin/../lib/gcc/arm-none-eabi/9.3.1/thumb/v7e-m+dp/hard\libgcc.a(_aeabi_uldivmod.o)
 .bss           0x00000000        0x0 c:/vsarm/armcc/bin/../lib/gcc/arm-none-eabi/9.3.1/thumb/v7e-m+dp/hard\libgcc.a(_aeabi_uldivmod.o)
 .data          0x00000000        0x0 c:/vsarm/armcc/bin/../lib/gcc/arm-none-eabi/9.3.1/thumb/v7e-m+dp/hard\libgcc.a(_udivmoddi4.o)
 .bss           0x00000000        0x0 c:/vsarm/armcc/bin/../lib/gcc/arm-none-eabi/9.3.1/thumb/v7e-m+dp/hard\libgcc.a(_udivmoddi4.o)
 .ARM.extab     0x00000000        0x0 c:/vsarm/armcc/bin/../lib/gcc/arm-none-eabi/9.3.1/thumb/v7e-m+dp/hard\libgcc.a(_udivmoddi4.o)
 .data          0x00000000        0x0 c:/vsarm/armcc/bin/../lib/gcc/arm-none-eabi/9.3.1/thumb/v7e-m+dp/hard\libgcc.a(_dvmd_tls.o)
 .bss           0x00000000        0x0 c:/vsarm/armcc/bin/../lib/gcc/arm-none-eabi/9.3.1/thumb/v7e-m+dp/hard\libgcc.a(_dvmd_tls.o)
 .text          0x00000000        0x0 c:/vsarm/armcc/bin/../lib/gcc/arm-none-eabi/9.3.1/thumb/v7e-m+dp/hard/crtend.o
 .data          0x00000000        0x0 c:/vsarm/armcc/bin/../lib/gcc/arm-none-eabi/9.3.1/thumb/v7e-m+dp/hard/crtend.o
 .bss           0x00000000        0x0 c:/vsarm/armcc/bin/../lib/gcc/arm-none-eabi/9.3.1/thumb/v7e-m+dp/hard/crtend.o
 .eh_frame      0x00000000        0x4 c:/vsarm/armcc/bin/../lib/gcc/arm-none-eabi/9.3.1/thumb/v7e-m+dp/hard/crtend.o
 .ARM.attributes
                0x00000000       0x30 c:/vsarm/armcc/bin/../lib/gcc/arm-none-eabi/9.3.1/thumb/v7e-m+dp/hard/crtend.o
 .text          0x00000000        0x0 c:/vsarm/armcc/bin/../lib/gcc/arm-none-eabi/9.3.1/thumb/v7e-m+dp/hard/crtn.o
 .data          0x00000000        0x0 c:/vsarm/armcc/bin/../lib/gcc/arm-none-eabi/9.3.1/thumb/v7e-m+dp/hard/crtn.o
 .bss           0x00000000        0x0 c:/vsarm/armcc/bin/../lib/gcc/arm-none-eabi/9.3.1/thumb/v7e-m+dp/hard/crtn.o

Memory Configuration

Name             Origin             Length             Attributes
RAM              0x20000000         0x00080000         xrw
FLASH            0x08000000         0x00200000         xr
*default*        0x00000000         0xffffffff

Linker script and memory map

LOAD c:/vsarm/armcc/bin/../lib/gcc/arm-none-eabi/9.3.1/thumb/v7e-m+dp/hard/crti.o
LOAD c:/vsarm/armcc/bin/../lib/gcc/arm-none-eabi/9.3.1/thumb/v7e-m+dp/hard/crtbegin.o
LOAD c:/vsarm/armcc/bin/../lib/gcc/arm-none-eabi/9.3.1/../../../../arm-none-eabi/lib/thumb/v7e-m+dp/hard/crt0.o
LOAD build/stm32f7xx_hal.o
LOAD build/stm32f7xx_hal_cortex.o
LOAD build/stm32f7xx_hal_dma.o
LOAD build/stm32f7xx_hal_dma_ex.o
LOAD build/stm32f7xx_hal_exti.o
LOAD build/stm32f7xx_hal_flash.o
LOAD build/stm32f7xx_hal_flash_ex.o
LOAD build/stm32f7xx_hal_gpio.o
LOAD build/stm32f7xx_hal_i2c.o
LOAD build/stm32f7xx_hal_i2c_ex.o
LOAD build/stm32f7xx_hal_pwr.o
LOAD build/stm32f7xx_hal_pwr_ex.o
LOAD build/stm32f7xx_hal_rcc.o
LOAD build/stm32f7xx_hal_rcc_ex.o
LOAD build/stm32f7xx_hal_rng.o
LOAD build/stm32f7xx_hal_spi.o
LOAD build/stm32f7xx_hal_spi_ex.o
LOAD build/stm32f7xx_hal_tim.o
LOAD build/stm32f7xx_hal_tim_ex.o
LOAD build/stm32f7xx_hal_uart.o
LOAD build/stm32f7xx_hal_uart_ex.o
LOAD build/ILI9341_GFX.o
LOAD build/ILI9341_STM32_Driver.o
LOAD build/ILI9341_Touchscreen.o
LOAD build/gpio.o
LOAD build/i2c.o
LOAD build/main.o
LOAD build/rng.o
LOAD build/spi.o
LOAD build/stm32f7xx_hal_msp.o
LOAD build/stm32f7xx_it.o
LOAD build/sys.o
LOAD build/system_stm32f7xx.o
LOAD build/tim.o
LOAD build/usart.o
LOAD build/startup_stm32f767xx.o
LOAD c:/vsarm/armcc/bin/../lib/gcc/arm-none-eabi/9.3.1/../../../../arm-none-eabi/lib/thumb/v7e-m+dp/hard\libc.a
LOAD c:/vsarm/armcc/bin/../lib/gcc/arm-none-eabi/9.3.1/../../../../arm-none-eabi/lib/thumb/v7e-m+dp/hard\libm.a
LOAD c:/vsarm/armcc/bin/../lib/gcc/arm-none-eabi/9.3.1/../../../../arm-none-eabi/lib/thumb/v7e-m+dp/hard\libnosys.a
START GROUP
LOAD c:/vsarm/armcc/bin/../lib/gcc/arm-none-eabi/9.3.1/thumb/v7e-m+dp/hard\libgcc.a
LOAD c:/vsarm/armcc/bin/../lib/gcc/arm-none-eabi/9.3.1/../../../../arm-none-eabi/lib/thumb/v7e-m+dp/hard\libc.a
END GROUP
START GROUP
LOAD c:/vsarm/armcc/bin/../lib/gcc/arm-none-eabi/9.3.1/thumb/v7e-m+dp/hard\libgcc.a
LOAD c:/vsarm/armcc/bin/../lib/gcc/arm-none-eabi/9.3.1/../../../../arm-none-eabi/lib/thumb/v7e-m+dp/hard\libc.a
LOAD c:/vsarm/armcc/bin/../lib/gcc/arm-none-eabi/9.3.1/../../../../arm-none-eabi/lib/thumb/v7e-m+dp/hard\libnosys.a
END GROUP
LOAD c:/vsarm/armcc/bin/../lib/gcc/arm-none-eabi/9.3.1/thumb/v7e-m+dp/hard/crtend.o
LOAD c:/vsarm/armcc/bin/../lib/gcc/arm-none-eabi/9.3.1/thumb/v7e-m+dp/hard/crtn.o
                0x20080000                _estack = 0x20080000
                0x00000200                _Min_Heap_Size = 0x200
                0x00000400                _Min_Stack_Size = 0x400

.isr_vector     0x08000000      0x1f8
                0x08000000                . = ALIGN (0x4)
 *(.isr_vector)
 .isr_vector    0x08000000      0x1f8 build/startup_stm32f767xx.o
                0x08000000                g_pfnVectors
                0x080001f8                . = ALIGN (0x4)

.text           0x08000200     0x9854
                0x08000200                . = ALIGN (0x4)
 *(.text)
 .text          0x08000200       0x40 c:/vsarm/armcc/bin/../lib/gcc/arm-none-eabi/9.3.1/thumb/v7e-m+dp/hard/crtbegin.o
 .text          0x08000240       0xdc c:/vsarm/armcc/bin/../lib/gcc/arm-none-eabi/9.3.1/../../../../arm-none-eabi/lib/thumb/v7e-m+dp/hard\libc.a(lib_a-strlen.o)
                0x08000240                strlen
 *fill*         0x0800031c        0x4 
 .text          0x08000320       0xa0 c:/vsarm/armcc/bin/../lib/gcc/arm-none-eabi/9.3.1/../../../../arm-none-eabi/lib/thumb/v7e-m+dp/hard\libc.a(lib_a-memchr.o)
                0x08000320                memchr
 .text          0x080003c0      0x134 c:/vsarm/armcc/bin/../lib/gcc/arm-none-eabi/9.3.1/../../../../arm-none-eabi/lib/thumb/v7e-m+dp/hard\libc.a(lib_a-memcpy.o)
                0x080003c0                memcpy
 .text          0x080004f4       0x30 c:/vsarm/armcc/bin/../lib/gcc/arm-none-eabi/9.3.1/thumb/v7e-m+dp/hard\libgcc.a(_aeabi_uldivmod.o)
                0x080004f4                __aeabi_uldivmod
 .text          0x08000524      0x2c4 c:/vsarm/armcc/bin/../lib/gcc/arm-none-eabi/9.3.1/thumb/v7e-m+dp/hard\libgcc.a(_udivmoddi4.o)
                0x08000524                __udivmoddi4
 .text          0x080007e8        0x4 c:/vsarm/armcc/bin/../lib/gcc/arm-none-eabi/9.3.1/thumb/v7e-m+dp/hard\libgcc.a(_dvmd_tls.o)
                0x080007e8                __aeabi_idiv0
                0x080007e8                __aeabi_ldiv0
 *(.text*)
 .text.HAL_InitTick
                0x080007ec       0x4c build/stm32f7xx_hal.o
                0x080007ec                HAL_InitTick
 .text.HAL_Init
                0x08000838       0x2c build/stm32f7xx_hal.o
                0x08000838                HAL_Init
 .text.HAL_IncTick
                0x08000864       0x18 build/stm32f7xx_hal.o
                0x08000864                HAL_IncTick
 .text.HAL_GetTick
                0x0800087c        0xc build/stm32f7xx_hal.o
                0x0800087c                HAL_GetTick
 .text.HAL_Delay
                0x08000888       0x28 build/stm32f7xx_hal.o
                0x08000888                HAL_Delay
 .text.HAL_NVIC_SetPriorityGrouping
                0x080008b0       0x24 build/stm32f7xx_hal_cortex.o
                0x080008b0                HAL_NVIC_SetPriorityGrouping
 .text.HAL_NVIC_SetPriority
                0x080008d4       0x64 build/stm32f7xx_hal_cortex.o
                0x080008d4                HAL_NVIC_SetPriority
 .text.HAL_NVIC_EnableIRQ
                0x08000938       0x1c build/stm32f7xx_hal_cortex.o
                0x08000938                HAL_NVIC_EnableIRQ
 .text.HAL_SYSTICK_Config
                0x08000954       0x2c build/stm32f7xx_hal_cortex.o
                0x08000954                HAL_SYSTICK_Config
 .text.HAL_GPIO_Init
                0x08000980      0x1e0 build/stm32f7xx_hal_gpio.o
                0x08000980                HAL_GPIO_Init
 .text.HAL_GPIO_ReadPin
                0x08000b60        0xe build/stm32f7xx_hal_gpio.o
                0x08000b60                HAL_GPIO_ReadPin
 .text.HAL_GPIO_WritePin
                0x08000b6e        0xc build/stm32f7xx_hal_gpio.o
                0x08000b6e                HAL_GPIO_WritePin
 *fill*         0x08000b7a        0x2 
 .text.HAL_I2C_Init
                0x08000b7c       0xbc build/stm32f7xx_hal_i2c.o
                0x08000b7c                HAL_I2C_Init
 .text.HAL_I2CEx_ConfigAnalogFilter
                0x08000c38       0x5c build/stm32f7xx_hal_i2c_ex.o
                0x08000c38                HAL_I2CEx_ConfigAnalogFilter
 .text.HAL_I2CEx_ConfigDigitalFilter
                0x08000c94       0x58 build/stm32f7xx_hal_i2c_ex.o
                0x08000c94                HAL_I2CEx_ConfigDigitalFilter
 .text.HAL_PWR_EnableBkUpAccess
                0x08000cec       0x10 build/stm32f7xx_hal_pwr.o
                0x08000cec                HAL_PWR_EnableBkUpAccess
 .text.HAL_PWREx_EnableOverDrive
                0x08000cfc       0x7c build/stm32f7xx_hal_pwr_ex.o
                0x08000cfc                HAL_PWREx_EnableOverDrive
 .text.HAL_RCC_OscConfig
                0x08000d78      0x3d4 build/stm32f7xx_hal_rcc.o
                0x08000d78                HAL_RCC_OscConfig
 .text.HAL_RCC_GetSysClockFreq
                0x0800114c       0xcc build/stm32f7xx_hal_rcc.o
                0x0800114c                HAL_RCC_GetSysClockFreq
 .text.HAL_RCC_ClockConfig
                0x08001218      0x164 build/stm32f7xx_hal_rcc.o
                0x08001218                HAL_RCC_ClockConfig
 .text.HAL_RCC_GetHCLKFreq
                0x0800137c        0xc build/stm32f7xx_hal_rcc.o
                0x0800137c                HAL_RCC_GetHCLKFreq
 .text.HAL_RCC_GetPCLK1Freq
                0x08001388       0x20 build/stm32f7xx_hal_rcc.o
                0x08001388                HAL_RCC_GetPCLK1Freq
 .text.HAL_RCC_GetPCLK2Freq
                0x080013a8       0x20 build/stm32f7xx_hal_rcc.o
                0x080013a8                HAL_RCC_GetPCLK2Freq
 .text.HAL_RCCEx_PeriphCLKConfig
                0x080013c8      0x604 build/stm32f7xx_hal_rcc_ex.o
                0x080013c8                HAL_RCCEx_PeriphCLKConfig
 .text.HAL_RNG_Init
                0x080019cc       0x2e build/stm32f7xx_hal_rng.o
                0x080019cc                HAL_RNG_Init
 .text.SPI_WaitFlagStateUntilTimeout
                0x080019fa       0x94 build/stm32f7xx_hal_spi.o
 .text.SPI_WaitFifoStateUntilTimeout
                0x08001a8e       0xae build/stm32f7xx_hal_spi.o
 .text.SPI_EndRxTxTransaction
                0x08001b3c       0x62 build/stm32f7xx_hal_spi.o
 .text.HAL_SPI_Init
                0x08001b9e       0xba build/stm32f7xx_hal_spi.o
                0x08001b9e                HAL_SPI_Init
 .text.HAL_SPI_Transmit
                0x08001c58      0x1f2 build/stm32f7xx_hal_spi.o
                0x08001c58                HAL_SPI_Transmit
 .text.TIM_TI1_ConfigInputStage
                0x08001e4a       0x24 build/stm32f7xx_hal_tim.o
 .text.TIM_TI2_ConfigInputStage
                0x08001e6e       0x26 build/stm32f7xx_hal_tim.o
 .text.TIM_ITRx_SetConfig
                0x08001e94       0x10 build/stm32f7xx_hal_tim.o
 .text.HAL_TIM_Base_Start_IT
                0x08001ea4       0x2c build/stm32f7xx_hal_tim.o
                0x08001ea4                HAL_TIM_Base_Start_IT
 .text.HAL_TIM_PeriodElapsedCallback
                0x08001ed0        0x2 build/stm32f7xx_hal_tim.o
                0x08001ed0                HAL_TIM_PeriodElapsedCallback
 .text.HAL_TIM_OC_DelayElapsedCallback
                0x08001ed2        0x2 build/stm32f7xx_hal_tim.o
                0x08001ed2                HAL_TIM_OC_DelayElapsedCallback
 .text.HAL_TIM_IC_CaptureCallback
                0x08001ed4        0x2 build/stm32f7xx_hal_tim.o
                0x08001ed4                HAL_TIM_IC_CaptureCallback
 .text.HAL_TIM_PWM_PulseFinishedCallback
                0x08001ed6        0x2 build/stm32f7xx_hal_tim.o
                0x08001ed6                HAL_TIM_PWM_PulseFinishedCallback
 .text.HAL_TIM_TriggerCallback
                0x08001ed8        0x2 build/stm32f7xx_hal_tim.o
                0x08001ed8                HAL_TIM_TriggerCallback
 .text.HAL_TIM_IRQHandler
                0x08001eda      0x19a build/stm32f7xx_hal_tim.o
                0x08001eda                HAL_TIM_IRQHandler
 .text.TIM_Base_SetConfig
                0x08002074      0x10c build/stm32f7xx_hal_tim.o
                0x08002074                TIM_Base_SetConfig
 .text.HAL_TIM_Base_Init
                0x08002180       0x34 build/stm32f7xx_hal_tim.o
                0x08002180                HAL_TIM_Base_Init
 .text.TIM_ETR_SetConfig
                0x080021b4       0x18 build/stm32f7xx_hal_tim.o
                0x080021b4                TIM_ETR_SetConfig
 .text.HAL_TIM_ConfigClockSource
                0x080021cc       0xdc build/stm32f7xx_hal_tim.o
                0x080021cc                HAL_TIM_ConfigClockSource
 .text.HAL_TIMEx_MasterConfigSynchronization
                0x080022a8       0x64 build/stm32f7xx_hal_tim_ex.o
                0x080022a8                HAL_TIMEx_MasterConfigSynchronization
 .text.HAL_TIMEx_CommutCallback
                0x0800230c        0x2 build/stm32f7xx_hal_tim_ex.o
                0x0800230c                HAL_TIMEx_CommutCallback
 .text.HAL_TIMEx_BreakCallback
                0x0800230e        0x2 build/stm32f7xx_hal_tim_ex.o
                0x0800230e                HAL_TIMEx_BreakCallback
 .text.HAL_TIMEx_Break2Callback
                0x08002310        0x2 build/stm32f7xx_hal_tim_ex.o
                0x08002310                HAL_TIMEx_Break2Callback
 *fill*         0x08002312        0x2 
 .text.UART_SetConfig
                0x08002314      0x3a0 build/stm32f7xx_hal_uart.o
                0x08002314                UART_SetConfig
 .text.UART_AdvFeatureConfig
                0x080026b4       0xca build/stm32f7xx_hal_uart.o
                0x080026b4                UART_AdvFeatureConfig
 .text.UART_WaitOnFlagUntilTimeout
                0x0800277e       0x64 build/stm32f7xx_hal_uart.o
                0x0800277e                UART_WaitOnFlagUntilTimeout
 .text.HAL_UART_Transmit
                0x080027e2       0xda build/stm32f7xx_hal_uart.o
                0x080027e2                HAL_UART_Transmit
 .text.HAL_UART_Receive
                0x080028bc      0x122 build/stm32f7xx_hal_uart.o
                0x080028bc                HAL_UART_Receive
 .text.UART_CheckIdleState
                0x080029de       0x44 build/stm32f7xx_hal_uart.o
                0x080029de                UART_CheckIdleState
 .text.HAL_UART_Init
                0x08002a22       0x62 build/stm32f7xx_hal_uart.o
                0x08002a22                HAL_UART_Init
 .text.ILI9341_Draw_Filled_Circle
                0x08002a84       0xb8 build/ILI9341_GFX.o
                0x08002a84                ILI9341_Draw_Filled_Circle
 .text.ILI9341_Draw_Char
                0x08002b3c       0xb8 build/ILI9341_GFX.o
                0x08002b3c                ILI9341_Draw_Char
 .text.ILI9341_Draw_Text
                0x08002bf4       0x3e build/ILI9341_GFX.o
                0x08002bf4                ILI9341_Draw_Text
 *fill*         0x08002c32        0x2 
 .text.ILI9341_SPI_Init
                0x08002c34       0x1c build/ILI9341_STM32_Driver.o
                0x08002c34                ILI9341_SPI_Init
 .text.ILI9341_SPI_Send
                0x08002c50       0x20 build/ILI9341_STM32_Driver.o
                0x08002c50                ILI9341_SPI_Send
 .text.ILI9341_Write_Command
                0x08002c70       0x38 build/ILI9341_STM32_Driver.o
                0x08002c70                ILI9341_Write_Command
 .text.ILI9341_Write_Data
                0x08002ca8       0x38 build/ILI9341_STM32_Driver.o
                0x08002ca8                ILI9341_Write_Data
 .text.ILI9341_Set_Address
                0x08002ce0       0x4e build/ILI9341_STM32_Driver.o
                0x08002ce0                ILI9341_Set_Address
 *fill*         0x08002d2e        0x2 
 .text.ILI9341_Reset
                0x08002d30       0x3c build/ILI9341_STM32_Driver.o
                0x08002d30                ILI9341_Reset
 .text.ILI9341_Set_Rotation
                0x08002d6c       0x7c build/ILI9341_STM32_Driver.o
                0x08002d6c                ILI9341_Set_Rotation
 .text.ILI9341_Enable
                0x08002de8       0x14 build/ILI9341_STM32_Driver.o
                0x08002de8                ILI9341_Enable
 .text.ILI9341_Init
                0x08002dfc      0x216 build/ILI9341_STM32_Driver.o
                0x08002dfc                ILI9341_Init
 *fill*         0x08003012        0x2 
 .text.ILI9341_Draw_Colour_Burst
                0x08003014       0x9c build/ILI9341_STM32_Driver.o
                0x08003014                ILI9341_Draw_Colour_Burst
 .text.ILI9341_Fill_Screen
                0x080030b0       0x34 build/ILI9341_STM32_Driver.o
                0x080030b0                ILI9341_Fill_Screen
 .text.ILI9341_Draw_Pixel
                0x080030e4      0x188 build/ILI9341_STM32_Driver.o
                0x080030e4                ILI9341_Draw_Pixel
 .text.ILI9341_Draw_Rectangle
                0x0800326c       0x70 build/ILI9341_STM32_Driver.o
                0x0800326c                ILI9341_Draw_Rectangle
 .text.TP_Read  0x080032dc       0x44 build/ILI9341_Touchscreen.o
                0x080032dc                TP_Read
 .text.TP_Write
                0x08003320       0x54 build/ILI9341_Touchscreen.o
                0x08003320                TP_Write
 *fill*         0x08003374        0x4 
 .text.TP_Read_Coordinates
                0x08003378      0x104 build/ILI9341_Touchscreen.o
                0x08003378                TP_Read_Coordinates
 .text.TP_Touchpad_Pressed
                0x0800347c       0x18 build/ILI9341_Touchscreen.o
                0x0800347c                TP_Touchpad_Pressed
 .text.MX_GPIO_Init
                0x08003494      0x1e8 build/gpio.o
                0x08003494                MX_GPIO_Init
 .text.MX_I2C1_Init
                0x0800367c       0x58 build/i2c.o
                0x0800367c                MX_I2C1_Init
 .text.HAL_I2C_MspInit
                0x080036d4       0x70 build/i2c.o
                0x080036d4                HAL_I2C_MspInit
 .text.h3_print
                0x08003744       0x2c build/main.o
                0x08003744                h3_print
 .text.h3_println
                0x08003770       0x34 build/main.o
                0x08003770                h3_println
 .text.h3_printc
                0x080037a4       0x30 build/main.o
                0x080037a4                h3_printc
 .text.h3_getch
                0x080037d4       0x30 build/main.o
                0x080037d4                h3_getch
 .text.clearUART
                0x08003804       0x2c build/main.o
                0x08003804                clearUART
 .text.Error_Handler
                0x08003830        0x2 build/main.o
                0x08003830                Error_Handler
 *fill*         0x08003832        0x2 
 .text.SystemClock_Config
                0x08003834       0xd8 build/main.o
                0x08003834                SystemClock_Config
 .text.main     0x0800390c      0x1c8 build/main.o
                0x0800390c                main
 .text.MX_RNG_Init
                0x08003ad4       0x20 build/rng.o
                0x08003ad4                MX_RNG_Init
 .text.HAL_RNG_MspInit
                0x08003af4       0x2c build/rng.o
                0x08003af4                HAL_RNG_MspInit
 .text.MX_SPI5_Init
                0x08003b20       0x48 build/spi.o
                0x08003b20                MX_SPI5_Init
 .text.HAL_SPI_MspInit
                0x08003b68       0x70 build/spi.o
                0x08003b68                HAL_SPI_MspInit
 .text.HAL_MspInit
                0x08003bd8       0x30 build/stm32f7xx_hal_msp.o
                0x08003bd8                HAL_MspInit
 .text.SysTick_Handler
                0x08003c08        0x8 build/stm32f7xx_it.o
                0x08003c08                SysTick_Handler
 .text.TIM2_IRQHandler
                0x08003c10       0x1c build/stm32f7xx_it.o
                0x08003c10                TIM2_IRQHandler
 .text.SystemInit
                0x08003c2c       0x50 build/system_stm32f7xx.o
                0x08003c2c                SystemInit
 .text.MX_TIM1_Init
                0x08003c7c       0x78 build/tim.o
                0x08003c7c                MX_TIM1_Init
 .text.MX_TIM2_Init
                0x08003cf4       0x70 build/tim.o
                0x08003cf4                MX_TIM2_Init
 .text.HAL_TIM_Base_MspInit
                0x08003d64       0x60 build/tim.o
                0x08003d64                HAL_TIM_Base_MspInit
 .text.MX_USART3_UART_Init
                0x08003dc4       0x38 build/usart.o
                0x08003dc4                MX_USART3_UART_Init
 .text.HAL_UART_MspInit
                0x08003dfc       0x70 build/usart.o
                0x08003dfc                HAL_UART_MspInit
 .text.Reset_Handler
                0x08003e6c       0x50 build/startup_stm32f767xx.o
                0x08003e6c                Reset_Handler
 .text.Default_Handler
                0x08003ebc        0x2 build/startup_stm32f767xx.o
                0x08003ebc                RTC_Alarm_IRQHandler
                0x08003ebc                EXTI2_IRQHandler
                0x08003ebc                TIM8_CC_IRQHandler
                0x08003ebc                DebugMon_Handler
                0x08003ebc                UART8_IRQHandler
                0x08003ebc                SPI4_IRQHandler
                0x08003ebc                TIM1_CC_IRQHandler
                0x08003ebc                DMA2_Stream5_IRQHandler
                0x08003ebc                HardFault_Handler
                0x08003ebc                JPEG_IRQHandler
                0x08003ebc                DMA1_Stream5_IRQHandler
                0x08003ebc                CAN3_RX1_IRQHandler
                0x08003ebc                PVD_IRQHandler
                0x08003ebc                TAMP_STAMP_IRQHandler
                0x08003ebc                PendSV_Handler
                0x08003ebc                NMI_Handler
                0x08003ebc                CAN2_RX1_IRQHandler
                0x08003ebc                EXTI3_IRQHandler
                0x08003ebc                TIM8_TRG_COM_TIM14_IRQHandler
                0x08003ebc                DFSDM1_FLT1_IRQHandler
                0x08003ebc                TIM1_UP_TIM10_IRQHandler
                0x08003ebc                TIM8_UP_TIM13_IRQHandler
                0x08003ebc                I2C3_ER_IRQHandler
                0x08003ebc                DFSDM1_FLT2_IRQHandler
                0x08003ebc                EXTI0_IRQHandler
                0x08003ebc                I2C2_EV_IRQHandler
                0x08003ebc                DMA1_Stream2_IRQHandler
                0x08003ebc                CAN1_RX0_IRQHandler
                0x08003ebc                FPU_IRQHandler
                0x08003ebc                OTG_HS_WKUP_IRQHandler
                0x08003ebc                CAN3_SCE_IRQHandler
                0x08003ebc                UsageFault_Handler
                0x08003ebc                LTDC_ER_IRQHandler
                0x08003ebc                CAN2_SCE_IRQHandler
                0x08003ebc                DMA2_Stream2_IRQHandler
                0x08003ebc                SPI1_IRQHandler
                0x08003ebc                TIM6_DAC_IRQHandler
                0x08003ebc                TIM1_BRK_TIM9_IRQHandler
                0x08003ebc                DCMI_IRQHandler
                0x08003ebc                CAN2_RX0_IRQHandler
                0x08003ebc                DMA2_Stream3_IRQHandler
                0x08003ebc                SAI2_IRQHandler
                0x08003ebc                DFSDM1_FLT3_IRQHandler
                0x08003ebc                USART6_IRQHandler
                0x08003ebc                CAN3_RX0_IRQHandler
                0x08003ebc                USART3_IRQHandler
                0x08003ebc                CAN1_RX1_IRQHandler
                0x08003ebc                UART5_IRQHandler
                0x08003ebc                DMA2_Stream0_IRQHandler
                0x08003ebc                TIM4_IRQHandler
                0x08003ebc                QUADSPI_IRQHandler
                0x08003ebc                I2C1_EV_IRQHandler
                0x08003ebc                DMA1_Stream6_IRQHandler
                0x08003ebc                DMA1_Stream1_IRQHandler
                0x08003ebc                UART4_IRQHandler
                0x08003ebc                TIM3_IRQHandler
                0x08003ebc                RCC_IRQHandler
                0x08003ebc                TIM8_BRK_TIM12_IRQHandler
                0x08003ebc                Default_Handler
                0x08003ebc                CEC_IRQHandler
                0x08003ebc                EXTI15_10_IRQHandler
                0x08003ebc                ADC_IRQHandler
                0x08003ebc                DMA1_Stream7_IRQHandler
                0x08003ebc                SPI5_IRQHandler
                0x08003ebc                TIM7_IRQHandler
                0x08003ebc                SDMMC1_IRQHandler
                0x08003ebc                CAN2_TX_IRQHandler
                0x08003ebc                TIM5_IRQHandler
                0x08003ebc                DMA2_Stream7_IRQHandler
                0x08003ebc                I2C3_EV_IRQHandler
                0x08003ebc                EXTI9_5_IRQHandler
                0x08003ebc                RTC_WKUP_IRQHandler
                0x08003ebc                LTDC_IRQHandler
                0x08003ebc                ETH_WKUP_IRQHandler
                0x08003ebc                SPDIF_RX_IRQHandler
                0x08003ebc                SPI2_IRQHandler
                0x08003ebc                OTG_HS_EP1_IN_IRQHandler
                0x08003ebc                MemManage_Handler
                0x08003ebc                DMA1_Stream0_IRQHandler
                0x08003ebc                CAN1_TX_IRQHandler
                0x08003ebc                SVC_Handler
                0x08003ebc                EXTI4_IRQHandler
                0x08003ebc                RNG_IRQHandler
                0x08003ebc                ETH_IRQHandler
                0x08003ebc                OTG_HS_EP1_OUT_IRQHandler
                0x08003ebc                WWDG_IRQHandler
                0x08003ebc                SPI6_IRQHandler
                0x08003ebc                MDIOS_IRQHandler
                0x08003ebc                I2C4_EV_IRQHandler
                0x08003ebc                CAN3_TX_IRQHandler
                0x08003ebc                OTG_FS_WKUP_IRQHandler
                0x08003ebc                TIM1_TRG_COM_TIM11_IRQHandler
                0x08003ebc                OTG_HS_IRQHandler
                0x08003ebc                DMA2D_IRQHandler
                0x08003ebc                EXTI1_IRQHandler
                0x08003ebc                SDMMC2_IRQHandler
                0x08003ebc                UART7_IRQHandler
                0x08003ebc                USART2_IRQHandler
                0x08003ebc                DFSDM1_FLT0_IRQHandler
                0x08003ebc                I2C2_ER_IRQHandler
                0x08003ebc                DMA2_Stream1_IRQHandler
                0x08003ebc                CAN1_SCE_IRQHandler
                0x08003ebc                FLASH_IRQHandler
                0x08003ebc                DMA2_Stream4_IRQHandler
                0x08003ebc                BusFault_Handler
                0x08003ebc                USART1_IRQHandler
                0x08003ebc                OTG_FS_IRQHandler
                0x08003ebc                SPI3_IRQHandler
                0x08003ebc                DMA1_Stream4_IRQHandler
                0x08003ebc                I2C1_ER_IRQHandler
                0x08003ebc                FMC_IRQHandler
                0x08003ebc                LPTIM1_IRQHandler
                0x08003ebc                I2C4_ER_IRQHandler
                0x08003ebc                DMA2_Stream6_IRQHandler
                0x08003ebc                SAI1_IRQHandler
                0x08003ebc                DMA1_Stream3_IRQHandler
 *fill*         0x08003ebe        0x2 
 .text.__libc_init_array
                0x08003ec0       0x48 c:/vsarm/armcc/bin/../lib/gcc/arm-none-eabi/9.3.1/../../../../arm-none-eabi/lib/thumb/v7e-m+dp/hard\libc.a(lib_a-init.o)
                0x08003ec0                __libc_init_array
 .text.memset   0x08003f08       0xa0 c:/vsarm/armcc/bin/../lib/gcc/arm-none-eabi/9.3.1/../../../../arm-none-eabi/lib/thumb/v7e-m+dp/hard\libc.a(lib_a-memset.o)
                0x08003f08                memset
 .text.sprintf  0x08003fa8       0x44 c:/vsarm/armcc/bin/../lib/gcc/arm-none-eabi/9.3.1/../../../../arm-none-eabi/lib/thumb/v7e-m+dp/hard\libc.a(lib_a-sprintf.o)
                0x08003fa8                sprintf
 *fill*         0x08003fec        0x4 
 .text._svfprintf_r
                0x08003ff0     0x1918 c:/vsarm/armcc/bin/../lib/gcc/arm-none-eabi/9.3.1/../../../../arm-none-eabi/lib/thumb/v7e-m+dp/hard\libc.a(lib_a-svfprintf.o)
                0x08003ff0                _svfprintf_r
 .text.startup.register_fini
                0x08005908       0x14 c:/vsarm/armcc/bin/../lib/gcc/arm-none-eabi/9.3.1/../../../../arm-none-eabi/lib/thumb/v7e-m+dp/hard\libc.a(lib_a-__call_atexit.o)
 .text.atexit   0x0800591c        0xc c:/vsarm/armcc/bin/../lib/gcc/arm-none-eabi/9.3.1/../../../../arm-none-eabi/lib/thumb/v7e-m+dp/hard\libc.a(lib_a-atexit.o)
                0x0800591c                atexit
 .text.quorem   0x08005928      0x11c c:/vsarm/armcc/bin/../lib/gcc/arm-none-eabi/9.3.1/../../../../arm-none-eabi/lib/thumb/v7e-m+dp/hard\libc.a(lib_a-dtoa.o)
 *fill*         0x08005a44        0x4 
 .text._dtoa_r  0x08005a48      0xcfc c:/vsarm/armcc/bin/../lib/gcc/arm-none-eabi/9.3.1/../../../../arm-none-eabi/lib/thumb/v7e-m+dp/hard\libc.a(lib_a-dtoa.o)
                0x08005a48                _dtoa_r
 .text.__libc_fini_array
                0x08006744       0x2c c:/vsarm/armcc/bin/../lib/gcc/arm-none-eabi/9.3.1/../../../../arm-none-eabi/lib/thumb/v7e-m+dp/hard\libc.a(lib_a-fini.o)
                0x08006744                __libc_fini_array
 .text._malloc_trim_r
                0x08006770       0xa0 c:/vsarm/armcc/bin/../lib/gcc/arm-none-eabi/9.3.1/../../../../arm-none-eabi/lib/thumb/v7e-m+dp/hard\libc.a(lib_a-freer.o)
                0x08006770                _malloc_trim_r
 .text._free_r  0x08006810      0x208 c:/vsarm/armcc/bin/../lib/gcc/arm-none-eabi/9.3.1/../../../../arm-none-eabi/lib/thumb/v7e-m+dp/hard\libc.a(lib_a-freer.o)
                0x08006810                _free_r
 .text._localeconv_r
                0x08006a18        0x8 c:/vsarm/armcc/bin/../lib/gcc/arm-none-eabi/9.3.1/../../../../arm-none-eabi/lib/thumb/v7e-m+dp/hard\libc.a(lib_a-localeconv.o)
                0x08006a18                _localeconv_r
 .text.__retarget_lock_init_recursive
                0x08006a20        0x4 c:/vsarm/armcc/bin/../lib/gcc/arm-none-eabi/9.3.1/../../../../arm-none-eabi/lib/thumb/v7e-m+dp/hard\libc.a(lib_a-lock.o)
                0x08006a20                __retarget_lock_init_recursive
 .text.__retarget_lock_close_recursive
                0x08006a24        0x4 c:/vsarm/armcc/bin/../lib/gcc/arm-none-eabi/9.3.1/../../../../arm-none-eabi/lib/thumb/v7e-m+dp/hard\libc.a(lib_a-lock.o)
                0x08006a24                __retarget_lock_close_recursive
 .text.__retarget_lock_acquire_recursive
                0x08006a28        0x4 c:/vsarm/armcc/bin/../lib/gcc/arm-none-eabi/9.3.1/../../../../arm-none-eabi/lib/thumb/v7e-m+dp/hard\libc.a(lib_a-lock.o)
                0x08006a28                __retarget_lock_acquire_recursive
 .text.__retarget_lock_release_recursive
                0x08006a2c        0x4 c:/vsarm/armcc/bin/../lib/gcc/arm-none-eabi/9.3.1/../../../../arm-none-eabi/lib/thumb/v7e-m+dp/hard\libc.a(lib_a-lock.o)
                0x08006a2c                __retarget_lock_release_recursive
 .text._malloc_r
                0x08006a30      0x574 c:/vsarm/armcc/bin/../lib/gcc/arm-none-eabi/9.3.1/../../../../arm-none-eabi/lib/thumb/v7e-m+dp/hard\libc.a(lib_a-mallocr.o)
                0x08006a30                _malloc_r
 .text.__malloc_lock
                0x08006fa4        0xc c:/vsarm/armcc/bin/../lib/gcc/arm-none-eabi/9.3.1/../../../../arm-none-eabi/lib/thumb/v7e-m+dp/hard\libc.a(lib_a-mlock.o)
                0x08006fa4                __malloc_lock
 .text.__malloc_unlock
                0x08006fb0        0xc c:/vsarm/armcc/bin/../lib/gcc/arm-none-eabi/9.3.1/../../../../arm-none-eabi/lib/thumb/v7e-m+dp/hard\libc.a(lib_a-mlock.o)
                0x08006fb0                __malloc_unlock
 .text._Balloc  0x08006fbc       0x4c c:/vsarm/armcc/bin/../lib/gcc/arm-none-eabi/9.3.1/../../../../arm-none-eabi/lib/thumb/v7e-m+dp/hard\libc.a(lib_a-mprec.o)
                0x08006fbc                _Balloc
 .text._Bfree   0x08007008       0x14 c:/vsarm/armcc/bin/../lib/gcc/arm-none-eabi/9.3.1/../../../../arm-none-eabi/lib/thumb/v7e-m+dp/hard\libc.a(lib_a-mprec.o)
                0x08007008                _Bfree
 .text.__multadd
                0x0800701c       0xac c:/vsarm/armcc/bin/../lib/gcc/arm-none-eabi/9.3.1/../../../../arm-none-eabi/lib/thumb/v7e-m+dp/hard\libc.a(lib_a-mprec.o)
                0x0800701c                __multadd
 .text.__hi0bits
                0x080070c8       0x40 c:/vsarm/armcc/bin/../lib/gcc/arm-none-eabi/9.3.1/../../../../arm-none-eabi/lib/thumb/v7e-m+dp/hard\libc.a(lib_a-mprec.o)
                0x080070c8                __hi0bits
 .text.__lo0bits
                0x08007108       0x60 c:/vsarm/armcc/bin/../lib/gcc/arm-none-eabi/9.3.1/../../../../arm-none-eabi/lib/thumb/v7e-m+dp/hard\libc.a(lib_a-mprec.o)
                0x08007108                __lo0bits
 .text.__i2b    0x08007168       0x2c c:/vsarm/armcc/bin/../lib/gcc/arm-none-eabi/9.3.1/../../../../arm-none-eabi/lib/thumb/v7e-m+dp/hard\libc.a(lib_a-mprec.o)
                0x08007168                __i2b
 .text.__multiply
                0x08007194      0x160 c:/vsarm/armcc/bin/../lib/gcc/arm-none-eabi/9.3.1/../../../../arm-none-eabi/lib/thumb/v7e-m+dp/hard\libc.a(lib_a-mprec.o)
                0x08007194                __multiply
 .text.__pow5mult
                0x080072f4       0x98 c:/vsarm/armcc/bin/../lib/gcc/arm-none-eabi/9.3.1/../../../../arm-none-eabi/lib/thumb/v7e-m+dp/hard\libc.a(lib_a-mprec.o)
                0x080072f4                __pow5mult
 .text.__lshift
                0x0800738c       0xe8 c:/vsarm/armcc/bin/../lib/gcc/arm-none-eabi/9.3.1/../../../../arm-none-eabi/lib/thumb/v7e-m+dp/hard\libc.a(lib_a-mprec.o)
                0x0800738c                __lshift
 .text.__mcmp   0x08007474       0x3c c:/vsarm/armcc/bin/../lib/gcc/arm-none-eabi/9.3.1/../../../../arm-none-eabi/lib/thumb/v7e-m+dp/hard\libc.a(lib_a-mprec.o)
                0x08007474                __mcmp
 .text.__mdiff  0x080074b0      0x148 c:/vsarm/armcc/bin/../lib/gcc/arm-none-eabi/9.3.1/../../../../arm-none-eabi/lib/thumb/v7e-m+dp/hard\libc.a(lib_a-mprec.o)
                0x080074b0                __mdiff
 .text.__d2b    0x080075f8       0xd0 c:/vsarm/armcc/bin/../lib/gcc/arm-none-eabi/9.3.1/../../../../arm-none-eabi/lib/thumb/v7e-m+dp/hard\libc.a(lib_a-mprec.o)
                0x080075f8                __d2b
 .text.frexp    0x080076c8       0x78 c:/vsarm/armcc/bin/../lib/gcc/arm-none-eabi/9.3.1/../../../../arm-none-eabi/lib/thumb/v7e-m+dp/hard\libc.a(lib_a-s_frexp.o)
                0x080076c8                frexp
 .text._sbrk_r  0x08007740       0x24 c:/vsarm/armcc/bin/../lib/gcc/arm-none-eabi/9.3.1/../../../../arm-none-eabi/lib/thumb/v7e-m+dp/hard\libc.a(lib_a-sbrkr.o)
                0x08007740                _sbrk_r
 .text.strncpy  0x08007764       0x68 c:/vsarm/armcc/bin/../lib/gcc/arm-none-eabi/9.3.1/../../../../arm-none-eabi/lib/thumb/v7e-m+dp/hard\libc.a(lib_a-strncpy.o)
                0x08007764                strncpy
 .text.__ssprint_r
                0x080077cc       0xf8 c:/vsarm/armcc/bin/../lib/gcc/arm-none-eabi/9.3.1/../../../../arm-none-eabi/lib/thumb/v7e-m+dp/hard\libc.a(lib_a-svfiprintf.o)
                0x080077cc                __ssprint_r
 .text.__register_exitproc
                0x080078c4       0x8c c:/vsarm/armcc/bin/../lib/gcc/arm-none-eabi/9.3.1/../../../../arm-none-eabi/lib/thumb/v7e-m+dp/hard\libc.a(lib_a-__atexit.o)
                0x080078c4                __register_exitproc
 .text.__assert_func
                0x08007950       0x3c c:/vsarm/armcc/bin/../lib/gcc/arm-none-eabi/9.3.1/../../../../arm-none-eabi/lib/thumb/v7e-m+dp/hard\libc.a(lib_a-assert.o)
                0x08007950                __assert_func
 .text._calloc_r
                0x0800798c       0x60 c:/vsarm/armcc/bin/../lib/gcc/arm-none-eabi/9.3.1/../../../../arm-none-eabi/lib/thumb/v7e-m+dp/hard\libc.a(lib_a-callocr.o)
                0x0800798c                _calloc_r
 .text.fiprintf
                0x080079ec       0x28 c:/vsarm/armcc/bin/../lib/gcc/arm-none-eabi/9.3.1/../../../../arm-none-eabi/lib/thumb/v7e-m+dp/hard\libc.a(lib_a-fiprintf.o)
                0x080079ec                fiprintf
 .text.__locale_mb_cur_max
                0x08007a14        0xc c:/vsarm/armcc/bin/../lib/gcc/arm-none-eabi/9.3.1/../../../../arm-none-eabi/lib/thumb/v7e-m+dp/hard\libc.a(lib_a-locale.o)
                0x08007a14                __locale_mb_cur_max
 .text.__ascii_mbtowc
                0x08007a20       0x2c c:/vsarm/armcc/bin/../lib/gcc/arm-none-eabi/9.3.1/../../../../arm-none-eabi/lib/thumb/v7e-m+dp/hard\libc.a(lib_a-mbtowc_r.o)
                0x08007a20                __ascii_mbtowc
 .text.memmove  0x08007a4c       0xd8 c:/vsarm/armcc/bin/../lib/gcc/arm-none-eabi/9.3.1/../../../../arm-none-eabi/lib/thumb/v7e-m+dp/hard\libc.a(lib_a-memmove.o)
                0x08007a4c                memmove
 .text._realloc_r
                0x08007b24      0x3e0 c:/vsarm/armcc/bin/../lib/gcc/arm-none-eabi/9.3.1/../../../../arm-none-eabi/lib/thumb/v7e-m+dp/hard\libc.a(lib_a-reallocr.o)
                0x08007b24                _realloc_r
 .text.__sprint_r.part.0
                0x08007f04       0x78 c:/vsarm/armcc/bin/../lib/gcc/arm-none-eabi/9.3.1/../../../../arm-none-eabi/lib/thumb/v7e-m+dp/hard\libc.a(lib_a-vfiprintf.o)
 .text._vfiprintf_r
                0x08007f7c      0xd4c c:/vsarm/armcc/bin/../lib/gcc/arm-none-eabi/9.3.1/../../../../arm-none-eabi/lib/thumb/v7e-m+dp/hard\libc.a(lib_a-vfiprintf.o)
                0x08007f7c                _vfiprintf_r
 .text.__sbprintf
                0x08008cc8       0x84 c:/vsarm/armcc/bin/../lib/gcc/arm-none-eabi/9.3.1/../../../../arm-none-eabi/lib/thumb/v7e-m+dp/hard\libc.a(lib_a-vfiprintf.o)
 .text.__ascii_wctomb
                0x08008d4c       0x1c c:/vsarm/armcc/bin/../lib/gcc/arm-none-eabi/9.3.1/../../../../arm-none-eabi/lib/thumb/v7e-m+dp/hard\libc.a(lib_a-wctomb_r.o)
                0x08008d4c                __ascii_wctomb
 .text.__swsetup_r
                0x08008d68       0xd0 c:/vsarm/armcc/bin/../lib/gcc/arm-none-eabi/9.3.1/../../../../arm-none-eabi/lib/thumb/v7e-m+dp/hard\libc.a(lib_a-wsetup.o)
                0x08008d68                __swsetup_r
 .text.abort    0x08008e38       0x10 c:/vsarm/armcc/bin/../lib/gcc/arm-none-eabi/9.3.1/../../../../arm-none-eabi/lib/thumb/v7e-m+dp/hard\libc.a(lib_a-abort.o)
                0x08008e38                abort
 .text.__sflush_r
                0x08008e48      0x130 c:/vsarm/armcc/bin/../lib/gcc/arm-none-eabi/9.3.1/../../../../arm-none-eabi/lib/thumb/v7e-m+dp/hard\libc.a(lib_a-fflush.o)
                0x08008e48                __sflush_r
 .text._fflush_r
                0x08008f78       0x5c c:/vsarm/armcc/bin/../lib/gcc/arm-none-eabi/9.3.1/../../../../arm-none-eabi/lib/thumb/v7e-m+dp/hard\libc.a(lib_a-fflush.o)
                0x08008f78                _fflush_r
 .text.std      0x08008fd4       0x50 c:/vsarm/armcc/bin/../lib/gcc/arm-none-eabi/9.3.1/../../../../arm-none-eabi/lib/thumb/v7e-m+dp/hard\libc.a(lib_a-findfp.o)
 .text._cleanup_r
                0x08009024        0xc c:/vsarm/armcc/bin/../lib/gcc/arm-none-eabi/9.3.1/../../../../arm-none-eabi/lib/thumb/v7e-m+dp/hard\libc.a(lib_a-findfp.o)
                0x08009024                _cleanup_r
 .text.__sinit  0x08009030       0x54 c:/vsarm/armcc/bin/../lib/gcc/arm-none-eabi/9.3.1/../../../../arm-none-eabi/lib/thumb/v7e-m+dp/hard\libc.a(lib_a-findfp.o)
                0x08009030                __sinit
 .text.__sfp_lock_acquire
                0x08009084        0xc c:/vsarm/armcc/bin/../lib/gcc/arm-none-eabi/9.3.1/../../../../arm-none-eabi/lib/thumb/v7e-m+dp/hard\libc.a(lib_a-findfp.o)
                0x08009084                __sfp_lock_acquire
 .text.__sfp_lock_release
                0x08009090        0xc c:/vsarm/armcc/bin/../lib/gcc/arm-none-eabi/9.3.1/../../../../arm-none-eabi/lib/thumb/v7e-m+dp/hard\libc.a(lib_a-findfp.o)
                0x08009090                __sfp_lock_release
 .text.__fputwc
                0x0800909c       0xa8 c:/vsarm/armcc/bin/../lib/gcc/arm-none-eabi/9.3.1/../../../../arm-none-eabi/lib/thumb/v7e-m+dp/hard\libc.a(lib_a-fputwc.o)
                0x0800909c                __fputwc
 .text._fputwc_r
                0x08009144       0x68 c:/vsarm/armcc/bin/../lib/gcc/arm-none-eabi/9.3.1/../../../../arm-none-eabi/lib/thumb/v7e-m+dp/hard\libc.a(lib_a-fputwc.o)
                0x08009144                _fputwc_r
 .text.__sfvwrite_r
                0x080091ac      0x2e0 c:/vsarm/armcc/bin/../lib/gcc/arm-none-eabi/9.3.1/../../../../arm-none-eabi/lib/thumb/v7e-m+dp/hard\libc.a(lib_a-fvwrite.o)
                0x080091ac                __sfvwrite_r
 .text._fwalk_reent
                0x0800948c       0x48 c:/vsarm/armcc/bin/../lib/gcc/arm-none-eabi/9.3.1/../../../../arm-none-eabi/lib/thumb/v7e-m+dp/hard\libc.a(lib_a-fwalk.o)
                0x0800948c                _fwalk_reent
 .text.__swhatbuf_r
                0x080094d4       0x5c c:/vsarm/armcc/bin/../lib/gcc/arm-none-eabi/9.3.1/../../../../arm-none-eabi/lib/thumb/v7e-m+dp/hard\libc.a(lib_a-makebuf.o)
                0x080094d4                __swhatbuf_r
 .text.__smakebuf_r
                0x08009530       0x98 c:/vsarm/armcc/bin/../lib/gcc/arm-none-eabi/9.3.1/../../../../arm-none-eabi/lib/thumb/v7e-m+dp/hard\libc.a(lib_a-makebuf.o)
                0x08009530                __smakebuf_r
 .text._raise_r
                0x080095c8       0x58 c:/vsarm/armcc/bin/../lib/gcc/arm-none-eabi/9.3.1/../../../../arm-none-eabi/lib/thumb/v7e-m+dp/hard\libc.a(lib_a-signal.o)
                0x080095c8                _raise_r
 .text.raise    0x08009620       0x10 c:/vsarm/armcc/bin/../lib/gcc/arm-none-eabi/9.3.1/../../../../arm-none-eabi/lib/thumb/v7e-m+dp/hard\libc.a(lib_a-signal.o)
                0x08009620                raise
 .text._kill_r  0x08009630       0x2c c:/vsarm/armcc/bin/../lib/gcc/arm-none-eabi/9.3.1/../../../../arm-none-eabi/lib/thumb/v7e-m+dp/hard\libc.a(lib_a-signalr.o)
                0x08009630                _kill_r
 .text._getpid_r
                0x0800965c        0x4 c:/vsarm/armcc/bin/../lib/gcc/arm-none-eabi/9.3.1/../../../../arm-none-eabi/lib/thumb/v7e-m+dp/hard\libc.a(lib_a-signalr.o)
                0x0800965c                _getpid_r
 .text.__sread  0x08009660       0x24 c:/vsarm/armcc/bin/../lib/gcc/arm-none-eabi/9.3.1/../../../../arm-none-eabi/lib/thumb/v7e-m+dp/hard\libc.a(lib_a-stdio.o)
                0x08009660                __sread
 .text.__swrite
                0x08009684       0x40 c:/vsarm/armcc/bin/../lib/gcc/arm-none-eabi/9.3.1/../../../../arm-none-eabi/lib/thumb/v7e-m+dp/hard\libc.a(lib_a-stdio.o)
                0x08009684                __swrite
 .text.__sseek  0x080096c4       0x20 c:/vsarm/armcc/bin/../lib/gcc/arm-none-eabi/9.3.1/../../../../arm-none-eabi/lib/thumb/v7e-m+dp/hard\libc.a(lib_a-stdio.o)
                0x080096c4                __sseek
 .text.__sclose
                0x080096e4        0x8 c:/vsarm/armcc/bin/../lib/gcc/arm-none-eabi/9.3.1/../../../../arm-none-eabi/lib/thumb/v7e-m+dp/hard\libc.a(lib_a-stdio.o)
                0x080096e4                __sclose
 .text.__swbuf_r
                0x080096ec       0xb0 c:/vsarm/armcc/bin/../lib/gcc/arm-none-eabi/9.3.1/../../../../arm-none-eabi/lib/thumb/v7e-m+dp/hard\libc.a(lib_a-wbuf.o)
                0x080096ec                __swbuf_r
 .text._wcrtomb_r
                0x0800979c       0x3c c:/vsarm/armcc/bin/../lib/gcc/arm-none-eabi/9.3.1/../../../../arm-none-eabi/lib/thumb/v7e-m+dp/hard\libc.a(lib_a-wcrtomb.o)
                0x0800979c                _wcrtomb_r
 .text._write_r
                0x080097d8       0x2c c:/vsarm/armcc/bin/../lib/gcc/arm-none-eabi/9.3.1/../../../../arm-none-eabi/lib/thumb/v7e-m+dp/hard\libc.a(lib_a-writer.o)
                0x080097d8                _write_r
 .text._close_r
                0x08009804       0x24 c:/vsarm/armcc/bin/../lib/gcc/arm-none-eabi/9.3.1/../../../../arm-none-eabi/lib/thumb/v7e-m+dp/hard\libc.a(lib_a-closer.o)
                0x08009804                _close_r
 .text._fclose_r
                0x08009828       0xcc c:/vsarm/armcc/bin/../lib/gcc/arm-none-eabi/9.3.1/../../../../arm-none-eabi/lib/thumb/v7e-m+dp/hard\libc.a(lib_a-fclose.o)
                0x08009828                _fclose_r
 .text._fstat_r
                0x080098f4       0x2c c:/vsarm/armcc/bin/../lib/gcc/arm-none-eabi/9.3.1/../../../../arm-none-eabi/lib/thumb/v7e-m+dp/hard\libc.a(lib_a-fstatr.o)
                0x080098f4                _fstat_r
 .text._isatty_r
                0x08009920       0x24 c:/vsarm/armcc/bin/../lib/gcc/arm-none-eabi/9.3.1/../../../../arm-none-eabi/lib/thumb/v7e-m+dp/hard\libc.a(lib_a-isattyr.o)
                0x08009920                _isatty_r
 .text._lseek_r
                0x08009944       0x2c c:/vsarm/armcc/bin/../lib/gcc/arm-none-eabi/9.3.1/../../../../arm-none-eabi/lib/thumb/v7e-m+dp/hard\libc.a(lib_a-lseekr.o)
                0x08009944                _lseek_r
 .text._read_r  0x08009970       0x2c c:/vsarm/armcc/bin/../lib/gcc/arm-none-eabi/9.3.1/../../../../arm-none-eabi/lib/thumb/v7e-m+dp/hard\libc.a(lib_a-readr.o)
                0x08009970                _read_r
 .text._close   0x0800999c       0x10 c:/vsarm/armcc/bin/../lib/gcc/arm-none-eabi/9.3.1/../../../../arm-none-eabi/lib/thumb/v7e-m+dp/hard\libnosys.a(close.o)
                0x0800999c                _close
 .text._fstat   0x080099ac       0x10 c:/vsarm/armcc/bin/../lib/gcc/arm-none-eabi/9.3.1/../../../../arm-none-eabi/lib/thumb/v7e-m+dp/hard\libnosys.a(fstat.o)
                0x080099ac                _fstat
 .text._getpid  0x080099bc       0x10 c:/vsarm/armcc/bin/../lib/gcc/arm-none-eabi/9.3.1/../../../../arm-none-eabi/lib/thumb/v7e-m+dp/hard\libnosys.a(getpid.o)
                0x080099bc                _getpid
 .text._isatty  0x080099cc       0x10 c:/vsarm/armcc/bin/../lib/gcc/arm-none-eabi/9.3.1/../../../../arm-none-eabi/lib/thumb/v7e-m+dp/hard\libnosys.a(isatty.o)
                0x080099cc                _isatty
 .text._kill    0x080099dc       0x10 c:/vsarm/armcc/bin/../lib/gcc/arm-none-eabi/9.3.1/../../../../arm-none-eabi/lib/thumb/v7e-m+dp/hard\libnosys.a(kill.o)
                0x080099dc                _kill
 .text._lseek   0x080099ec       0x10 c:/vsarm/armcc/bin/../lib/gcc/arm-none-eabi/9.3.1/../../../../arm-none-eabi/lib/thumb/v7e-m+dp/hard\libnosys.a(lseek.o)
                0x080099ec                _lseek
 .text._read    0x080099fc       0x10 c:/vsarm/armcc/bin/../lib/gcc/arm-none-eabi/9.3.1/../../../../arm-none-eabi/lib/thumb/v7e-m+dp/hard\libnosys.a(read.o)
                0x080099fc                _read
 .text._sbrk    0x08009a0c       0x1c c:/vsarm/armcc/bin/../lib/gcc/arm-none-eabi/9.3.1/../../../../arm-none-eabi/lib/thumb/v7e-m+dp/hard\libnosys.a(sbrk.o)
                0x08009a0c                _sbrk
 .text._write   0x08009a28       0x10 c:/vsarm/armcc/bin/../lib/gcc/arm-none-eabi/9.3.1/../../../../arm-none-eabi/lib/thumb/v7e-m+dp/hard\libnosys.a(write.o)
                0x08009a28                _write
 .text._exit    0x08009a38        0x4 c:/vsarm/armcc/bin/../lib/gcc/arm-none-eabi/9.3.1/../../../../arm-none-eabi/lib/thumb/v7e-m+dp/hard\libnosys.a(_exit.o)
                0x08009a38                _exit
 *(.glue_7)
 .glue_7        0x08009a3c        0x0 linker stubs
 *(.glue_7t)
 .glue_7t       0x08009a3c        0x0 linker stubs
 *(.eh_frame)
 .eh_frame      0x08009a3c        0x0 c:/vsarm/armcc/bin/../lib/gcc/arm-none-eabi/9.3.1/thumb/v7e-m+dp/hard/crtbegin.o
 *(.init)
 .init          0x08009a3c        0x4 c:/vsarm/armcc/bin/../lib/gcc/arm-none-eabi/9.3.1/thumb/v7e-m+dp/hard/crti.o
                0x08009a3c                _init
 .init          0x08009a40        0x8 c:/vsarm/armcc/bin/../lib/gcc/arm-none-eabi/9.3.1/thumb/v7e-m+dp/hard/crtn.o
 *(.fini)
 .fini          0x08009a48        0x4 c:/vsarm/armcc/bin/../lib/gcc/arm-none-eabi/9.3.1/thumb/v7e-m+dp/hard/crti.o
                0x08009a48                _fini
 .fini          0x08009a4c        0x8 c:/vsarm/armcc/bin/../lib/gcc/arm-none-eabi/9.3.1/thumb/v7e-m+dp/hard/crtn.o
                0x08009a54                . = ALIGN (0x4)
                0x08009a54                _etext = .

.vfp11_veneer   0x08009a54        0x0
 .vfp11_veneer  0x08009a54        0x0 linker stubs

.v4_bx          0x08009a54        0x0
 .v4_bx         0x08009a54        0x0 linker stubs

.iplt           0x08009a54        0x0
 .iplt          0x08009a54        0x0 c:/vsarm/armcc/bin/../lib/gcc/arm-none-eabi/9.3.1/thumb/v7e-m+dp/hard/crtbegin.o

.rodata         0x08009a58      0x6a4
                0x08009a58                . = ALIGN (0x4)
 *(.rodata)
 *(.rodata*)
 .rodata.font   0x08009a58      0x240 build/ILI9341_GFX.o
 .rodata.h3_println.str1.4
                0x08009c98        0x3 build/main.o
 *fill*         0x08009c9b        0x1 
 .rodata.clearUART.str1.4
                0x08009c9c        0x7 build/main.o
 *fill*         0x08009ca3        0x1 
 .rodata.main.str1.4
                0x08009ca4       0x4c build/main.o
 .rodata.AHBPrescTable
                0x08009cf0       0x10 build/system_stm32f7xx.o
                0x08009cf0                AHBPrescTable
 .rodata.APBPrescTable
                0x08009d00        0x8 build/system_stm32f7xx.o
                0x08009d00                APBPrescTable
 .rodata._global_impure_ptr
                0x08009d08        0x4 c:/vsarm/armcc/bin/../lib/gcc/arm-none-eabi/9.3.1/../../../../arm-none-eabi/lib/thumb/v7e-m+dp/hard\libc.a(lib_a-impure.o)
                0x08009d08                _global_impure_ptr
 .rodata._svfprintf_r.str1.4
                0x08009d0c       0x42 c:/vsarm/armcc/bin/../lib/gcc/arm-none-eabi/9.3.1/../../../../arm-none-eabi/lib/thumb/v7e-m+dp/hard\libc.a(lib_a-svfprintf.o)
 *fill*         0x08009d4e        0x2 
 .rodata.blanks.8698
                0x08009d50       0x10 c:/vsarm/armcc/bin/../lib/gcc/arm-none-eabi/9.3.1/../../../../arm-none-eabi/lib/thumb/v7e-m+dp/hard\libc.a(lib_a-svfprintf.o)
 .rodata.zeroes.8699
                0x08009d60       0x10 c:/vsarm/armcc/bin/../lib/gcc/arm-none-eabi/9.3.1/../../../../arm-none-eabi/lib/thumb/v7e-m+dp/hard\libc.a(lib_a-svfprintf.o)
 .rodata._dtoa_r.str1.4
                0x08009d70       0xa0 c:/vsarm/armcc/bin/../lib/gcc/arm-none-eabi/9.3.1/../../../../arm-none-eabi/lib/thumb/v7e-m+dp/hard\libc.a(lib_a-dtoa.o)
                                 0xa4 (size before relaxing)
 .rodata.__multadd.str1.4
                0x08009e10       0x7d c:/vsarm/armcc/bin/../lib/gcc/arm-none-eabi/9.3.1/../../../../arm-none-eabi/lib/thumb/v7e-m+dp/hard\libc.a(lib_a-mprec.o)
                                 0x91 (size before relaxing)
 *fill*         0x08009e8d        0x3 
 .rodata.__mprec_bigtens
                0x08009e90       0x28 c:/vsarm/armcc/bin/../lib/gcc/arm-none-eabi/9.3.1/../../../../arm-none-eabi/lib/thumb/v7e-m+dp/hard\libc.a(lib_a-mprec.o)
                0x08009e90                __mprec_bigtens
 .rodata.__mprec_tens
                0x08009eb8       0xc8 c:/vsarm/armcc/bin/../lib/gcc/arm-none-eabi/9.3.1/../../../../arm-none-eabi/lib/thumb/v7e-m+dp/hard\libc.a(lib_a-mprec.o)
                0x08009eb8                __mprec_tens
 .rodata.p05.7485
                0x08009f80        0xc c:/vsarm/armcc/bin/../lib/gcc/arm-none-eabi/9.3.1/../../../../arm-none-eabi/lib/thumb/v7e-m+dp/hard\libc.a(lib_a-mprec.o)
 .rodata.__assert_func.str1.4
                0x08009f8c       0x3f c:/vsarm/armcc/bin/../lib/gcc/arm-none-eabi/9.3.1/../../../../arm-none-eabi/lib/thumb/v7e-m+dp/hard\libc.a(lib_a-assert.o)
                                 0x43 (size before relaxing)
 *fill*         0x08009fcb        0x1 
 .rodata._setlocale_r.str1.4
                0x08009fcc        0x6 c:/vsarm/armcc/bin/../lib/gcc/arm-none-eabi/9.3.1/../../../../arm-none-eabi/lib/thumb/v7e-m+dp/hard\libc.a(lib_a-locale.o)
                                  0xd (size before relaxing)
 *fill*         0x08009fd2        0x2 
 .rodata.str1.4
                0x08009fd4        0x2 c:/vsarm/armcc/bin/../lib/gcc/arm-none-eabi/9.3.1/../../../../arm-none-eabi/lib/thumb/v7e-m+dp/hard\libc.a(lib_a-locale.o)
 .rodata._vfiprintf_r.str1.4
                0x08009fd6       0x2f c:/vsarm/armcc/bin/../lib/gcc/arm-none-eabi/9.3.1/../../../../arm-none-eabi/lib/thumb/v7e-m+dp/hard\libc.a(lib_a-vfiprintf.o)
 *fill*         0x08009fd6        0x2 
 .rodata.blanks.8691
                0x08009fd8       0x10 c:/vsarm/armcc/bin/../lib/gcc/arm-none-eabi/9.3.1/../../../../arm-none-eabi/lib/thumb/v7e-m+dp/hard\libc.a(lib_a-vfiprintf.o)
 .rodata.zeroes.8692
                0x08009fe8       0x10 c:/vsarm/armcc/bin/../lib/gcc/arm-none-eabi/9.3.1/../../../../arm-none-eabi/lib/thumb/v7e-m+dp/hard\libc.a(lib_a-vfiprintf.o)
 .rodata._ctype_
                0x08009ff8      0x101 c:/vsarm/armcc/bin/../lib/gcc/arm-none-eabi/9.3.1/../../../../arm-none-eabi/lib/thumb/v7e-m+dp/hard\libc.a(lib_a-ctype_.o)
                0x08009ff8                _ctype_
                0x0800a0fc                . = ALIGN (0x4)
 *fill*         0x0800a0f9        0x3 

.ARM.extab
 *(.ARM.extab* .gnu.linkonce.armextab.*)

.ARM            0x0800a0fc        0x8
                0x0800a0fc                __exidx_start = .
 *(.ARM.exidx*)
 .ARM.exidx     0x0800a0fc        0x8 c:/vsarm/armcc/bin/../lib/gcc/arm-none-eabi/9.3.1/thumb/v7e-m+dp/hard\libgcc.a(_udivmoddi4.o)
                0x0800a104                __exidx_end = .

.rel.dyn        0x0800a104        0x0
 .rel.iplt      0x0800a104        0x0 c:/vsarm/armcc/bin/../lib/gcc/arm-none-eabi/9.3.1/thumb/v7e-m+dp/hard/crtbegin.o

.preinit_array  0x0800a104        0x0
                0x0800a104                PROVIDE (__preinit_array_start = .)
 *(.preinit_array*)
                0x0800a104                PROVIDE (__preinit_array_end = .)

.init_array     0x0800a104        0x8
                0x0800a104                PROVIDE (__init_array_start = .)
 *(SORT_BY_NAME(.init_array.*))
 .init_array.00000
                0x0800a104        0x4 c:/vsarm/armcc/bin/../lib/gcc/arm-none-eabi/9.3.1/../../../../arm-none-eabi/lib/thumb/v7e-m+dp/hard\libc.a(lib_a-__call_atexit.o)
 *(.init_array*)
 .init_array    0x0800a108        0x4 c:/vsarm/armcc/bin/../lib/gcc/arm-none-eabi/9.3.1/thumb/v7e-m+dp/hard/crtbegin.o
                0x0800a10c                PROVIDE (__init_array_end = .)

.fini_array     0x0800a10c        0x4
                0x0800a10c                PROVIDE (__fini_array_start = .)
 *(SORT_BY_NAME(.fini_array.*))
 *(.fini_array*)
 .fini_array    0x0800a10c        0x4 c:/vsarm/armcc/bin/../lib/gcc/arm-none-eabi/9.3.1/thumb/v7e-m+dp/hard/crtbegin.o
                0x0800a110                PROVIDE (__fini_array_end = .)
                0x0800a110                _sidata = LOADADDR (.data)

.data           0x20000000      0x9d0 load address 0x0800a110
                0x20000000                . = ALIGN (0x4)
                0x20000000                _sdata = .
 *(.data)
 *(.data*)
 .data.uwTickFreq
                0x20000000        0x1 build/stm32f7xx_hal.o
                0x20000000                uwTickFreq
 *fill*         0x20000001        0x3 
 .data.uwTickPrio
                0x20000004        0x4 build/stm32f7xx_hal.o
                0x20000004                uwTickPrio
 .data.LCD_HEIGHT
                0x20000008        0x2 build/ILI9341_STM32_Driver.o
                0x20000008                LCD_HEIGHT
 .data.LCD_WIDTH
                0x2000000a        0x2 build/ILI9341_STM32_Driver.o
                0x2000000a                LCD_WIDTH
 .data.Serial   0x2000000c       0x10 build/main.o
                0x2000000c                Serial
 .data.SystemCoreClock
                0x2000001c        0x4 build/system_stm32f7xx.o
                0x2000001c                SystemCoreClock
 .data._impure_ptr
                0x20000020        0x4 c:/vsarm/armcc/bin/../lib/gcc/arm-none-eabi/9.3.1/../../../../arm-none-eabi/lib/thumb/v7e-m+dp/hard\libc.a(lib_a-impure.o)
                0x20000020                _impure_ptr
 *fill*         0x20000024        0x4 
 .data.impure_data
                0x20000028      0x428 c:/vsarm/armcc/bin/../lib/gcc/arm-none-eabi/9.3.1/../../../../arm-none-eabi/lib/thumb/v7e-m+dp/hard\libc.a(lib_a-impure.o)
 .data.__atexit_recursive_mutex
                0x20000450        0x4 c:/vsarm/armcc/bin/../lib/gcc/arm-none-eabi/9.3.1/../../../../arm-none-eabi/lib/thumb/v7e-m+dp/hard\libc.a(lib_a-__call_atexit.o)
                0x20000450                __atexit_recursive_mutex
 .data.__malloc_av_
                0x20000454      0x408 c:/vsarm/armcc/bin/../lib/gcc/arm-none-eabi/9.3.1/../../../../arm-none-eabi/lib/thumb/v7e-m+dp/hard\libc.a(lib_a-mallocr.o)
                0x20000454                __malloc_av_
 .data.__malloc_sbrk_base
                0x2000085c        0x4 c:/vsarm/armcc/bin/../lib/gcc/arm-none-eabi/9.3.1/../../../../arm-none-eabi/lib/thumb/v7e-m+dp/hard\libc.a(lib_a-mallocr.o)
                0x2000085c                __malloc_sbrk_base
 .data.__malloc_trim_threshold
                0x20000860        0x4 c:/vsarm/armcc/bin/../lib/gcc/arm-none-eabi/9.3.1/../../../../arm-none-eabi/lib/thumb/v7e-m+dp/hard\libc.a(lib_a-mallocr.o)
                0x20000860                __malloc_trim_threshold
 .data.__global_locale
                0x20000864      0x16c c:/vsarm/armcc/bin/../lib/gcc/arm-none-eabi/9.3.1/../../../../arm-none-eabi/lib/thumb/v7e-m+dp/hard\libc.a(lib_a-locale.o)
                0x20000864                __global_locale
                0x200009d0                . = ALIGN (0x4)
                0x200009d0                _edata = .

.igot.plt       0x200009d0        0x0 load address 0x0800aae0
 .igot.plt      0x200009d0        0x0 c:/vsarm/armcc/bin/../lib/gcc/arm-none-eabi/9.3.1/thumb/v7e-m+dp/hard/crtbegin.o
                0x200009d0                . = ALIGN (0x4)

.bss            0x200009d0      0x284 load address 0x0800aae0
                0x200009d0                _sbss = .
                0x200009d0                __bss_start__ = _sbss
 *(.bss)
 .bss           0x200009d0       0x1c c:/vsarm/armcc/bin/../lib/gcc/arm-none-eabi/9.3.1/thumb/v7e-m+dp/hard/crtbegin.o
 *(.bss*)
 .bss.__malloc_current_mallinfo
                0x200009ec       0x28 c:/vsarm/armcc/bin/../lib/gcc/arm-none-eabi/9.3.1/../../../../arm-none-eabi/lib/thumb/v7e-m+dp/hard\libc.a(lib_a-mallocr.o)
                0x200009ec                __malloc_current_mallinfo
 .bss.__malloc_max_sbrked_mem
                0x20000a14        0x4 c:/vsarm/armcc/bin/../lib/gcc/arm-none-eabi/9.3.1/../../../../arm-none-eabi/lib/thumb/v7e-m+dp/hard\libc.a(lib_a-mallocr.o)
                0x20000a14                __malloc_max_sbrked_mem
 .bss.__malloc_max_total_mem
                0x20000a18        0x4 c:/vsarm/armcc/bin/../lib/gcc/arm-none-eabi/9.3.1/../../../../arm-none-eabi/lib/thumb/v7e-m+dp/hard\libc.a(lib_a-mallocr.o)
                0x20000a18                __malloc_max_total_mem
 .bss.__malloc_top_pad
                0x20000a1c        0x4 c:/vsarm/armcc/bin/../lib/gcc/arm-none-eabi/9.3.1/../../../../arm-none-eabi/lib/thumb/v7e-m+dp/hard\libc.a(lib_a-mallocr.o)
                0x20000a1c                __malloc_top_pad
 .bss.heap_end.5507
                0x20000a20        0x4 c:/vsarm/armcc/bin/../lib/gcc/arm-none-eabi/9.3.1/../../../../arm-none-eabi/lib/thumb/v7e-m+dp/hard\libnosys.a(sbrk.o)
 *(COMMON)
 COMMON         0x20000a24        0x4 build/stm32f7xx_hal.o
                0x20000a24                uwTick
 COMMON         0x20000a28       0x4c build/i2c.o
                0x20000a28                hi2c1
 COMMON         0x20000a74       0x43 build/main.o
                0x20000a74                cmdBuffer
                0x20000a78                dataBuffer
                0x20000a80                tick
                0x20000a84                str
                0x20000ab6                status
 *fill*         0x20000ab7        0x1 
 COMMON         0x20000ab8       0x10 build/rng.o
                0x20000ab8                hrng
 COMMON         0x20000ac8       0x64 build/spi.o
                0x20000ac8                hspi5
 COMMON         0x20000b2c       0x80 build/tim.o
                0x20000b2c                htim1
                0x20000b6c                htim2
 COMMON         0x20000bac       0x80 build/usart.o
                0x20000bac                huart3
 COMMON         0x20000c2c       0x21 c:/vsarm/armcc/bin/../lib/gcc/arm-none-eabi/9.3.1/../../../../arm-none-eabi/lib/thumb/v7e-m+dp/hard\libc.a(lib_a-lock.o)
                0x20000c2c                __lock___atexit_recursive_mutex
                0x20000c30                __lock___arc4random_mutex
                0x20000c34                __lock___env_recursive_mutex
                0x20000c38                __lock___sinit_recursive_mutex
                0x20000c3c                __lock___malloc_recursive_mutex
                0x20000c40                __lock___at_quick_exit_mutex
                0x20000c44                __lock___dd_hash_mutex
                0x20000c48                __lock___tz_mutex
                0x20000c4c                __lock___sfp_recursive_mutex
 *fill*         0x20000c4d        0x3 
 COMMON         0x20000c50        0x4 c:/vsarm/armcc/bin/../lib/gcc/arm-none-eabi/9.3.1/../../../../arm-none-eabi/lib/thumb/v7e-m+dp/hard\libc.a(lib_a-reent.o)
                0x20000c50                errno
                0x20000c54                . = ALIGN (0x4)
                0x20000c54                _ebss = .
                0x20000c54                __bss_end__ = _ebss

._user_heap_stack
                0x20000c54      0x604 load address 0x0800aae0
                0x20000c58                . = ALIGN (0x8)
 *fill*         0x20000c54        0x4 
                0x20000c58                PROVIDE (end = .)
                [!provide]                PROVIDE (_end = .)
                0x20000e58                . = (. + _Min_Heap_Size)
 *fill*         0x20000c58      0x200 
                0x20001258                . = (. + _Min_Stack_Size)
 *fill*         0x20000e58      0x400 
                0x20001258                . = ALIGN (0x8)

/DISCARD/
 libc.a(*)
 libm.a(*)
 libgcc.a(*)

.ARM.attributes
                0x00000000       0x2e
 *(.ARM.attributes)
 .ARM.attributes
                0x00000000       0x1e c:/vsarm/armcc/bin/../lib/gcc/arm-none-eabi/9.3.1/thumb/v7e-m+dp/hard/crti.o
 .ARM.attributes
                0x0000001e       0x32 c:/vsarm/armcc/bin/../lib/gcc/arm-none-eabi/9.3.1/thumb/v7e-m+dp/hard/crtbegin.o
 .ARM.attributes
                0x00000050       0x32 build/stm32f7xx_hal.o
 .ARM.attributes
                0x00000082       0x32 build/stm32f7xx_hal_cortex.o
 .ARM.attributes
                0x000000b4       0x32 build/stm32f7xx_hal_gpio.o
 .ARM.attributes
                0x000000e6       0x32 build/stm32f7xx_hal_i2c.o
 .ARM.attributes
                0x00000118       0x32 build/stm32f7xx_hal_i2c_ex.o
 .ARM.attributes
                0x0000014a       0x32 build/stm32f7xx_hal_pwr.o
 .ARM.attributes
                0x0000017c       0x32 build/stm32f7xx_hal_pwr_ex.o
 .ARM.attributes
                0x000001ae       0x32 build/stm32f7xx_hal_rcc.o
 .ARM.attributes
                0x000001e0       0x32 build/stm32f7xx_hal_rcc_ex.o
 .ARM.attributes
                0x00000212       0x32 build/stm32f7xx_hal_rng.o
 .ARM.attributes
                0x00000244       0x32 build/stm32f7xx_hal_spi.o
 .ARM.attributes
                0x00000276       0x32 build/stm32f7xx_hal_tim.o
 .ARM.attributes
                0x000002a8       0x32 build/stm32f7xx_hal_tim_ex.o
 .ARM.attributes
                0x000002da       0x32 build/stm32f7xx_hal_uart.o
 .ARM.attributes
                0x0000030c       0x32 build/ILI9341_GFX.o
 .ARM.attributes
                0x0000033e       0x32 build/ILI9341_STM32_Driver.o
 .ARM.attributes
                0x00000370       0x32 build/ILI9341_Touchscreen.o
 .ARM.attributes
                0x000003a2       0x32 build/gpio.o
 .ARM.attributes
                0x000003d4       0x32 build/i2c.o
 .ARM.attributes
                0x00000406       0x32 build/main.o
 .ARM.attributes
                0x00000438       0x32 build/rng.o
 .ARM.attributes
                0x0000046a       0x32 build/spi.o
 .ARM.attributes
                0x0000049c       0x32 build/stm32f7xx_hal_msp.o
 .ARM.attributes
                0x000004ce       0x32 build/stm32f7xx_it.o
 .ARM.attributes
                0x00000500       0x32 build/system_stm32f7xx.o
 .ARM.attributes
                0x00000532       0x32 build/tim.o
 .ARM.attributes
                0x00000564       0x32 build/usart.o
 .ARM.attributes
                0x00000596       0x21 build/startup_stm32f767xx.o
 .ARM.attributes
                0x000005b7       0x30 c:/vsarm/armcc/bin/../lib/gcc/arm-none-eabi/9.3.1/../../../../arm-none-eabi/lib/thumb/v7e-m+dp/hard\libc.a(lib_a-impure.o)
 .ARM.attributes
                0x000005e7       0x32 c:/vsarm/armcc/bin/../lib/gcc/arm-none-eabi/9.3.1/../../../../arm-none-eabi/lib/thumb/v7e-m+dp/hard\libc.a(lib_a-init.o)
 .ARM.attributes
                0x00000619       0x32 c:/vsarm/armcc/bin/../lib/gcc/arm-none-eabi/9.3.1/../../../../arm-none-eabi/lib/thumb/v7e-m+dp/hard\libc.a(lib_a-memset.o)
 .ARM.attributes
                0x0000064b       0x32 c:/vsarm/armcc/bin/../lib/gcc/arm-none-eabi/9.3.1/../../../../arm-none-eabi/lib/thumb/v7e-m+dp/hard\libc.a(lib_a-sprintf.o)
 .ARM.attributes
                0x0000067d       0x1c c:/vsarm/armcc/bin/../lib/gcc/arm-none-eabi/9.3.1/../../../../arm-none-eabi/lib/thumb/v7e-m+dp/hard\libc.a(lib_a-strlen.o)
 .ARM.attributes
                0x00000699       0x32 c:/vsarm/armcc/bin/../lib/gcc/arm-none-eabi/9.3.1/../../../../arm-none-eabi/lib/thumb/v7e-m+dp/hard\libc.a(lib_a-svfprintf.o)
 .ARM.attributes
                0x000006cb       0x32 c:/vsarm/armcc/bin/../lib/gcc/arm-none-eabi/9.3.1/../../../../arm-none-eabi/lib/thumb/v7e-m+dp/hard\libc.a(lib_a-__call_atexit.o)
 .ARM.attributes
                0x000006fd       0x32 c:/vsarm/armcc/bin/../lib/gcc/arm-none-eabi/9.3.1/../../../../arm-none-eabi/lib/thumb/v7e-m+dp/hard\libc.a(lib_a-atexit.o)
 .ARM.attributes
                0x0000072f       0x32 c:/vsarm/armcc/bin/../lib/gcc/arm-none-eabi/9.3.1/../../../../arm-none-eabi/lib/thumb/v7e-m+dp/hard\libc.a(lib_a-dtoa.o)
 .ARM.attributes
                0x00000761       0x32 c:/vsarm/armcc/bin/../lib/gcc/arm-none-eabi/9.3.1/../../../../arm-none-eabi/lib/thumb/v7e-m+dp/hard\libc.a(lib_a-fini.o)
 .ARM.attributes
                0x00000793       0x32 c:/vsarm/armcc/bin/../lib/gcc/arm-none-eabi/9.3.1/../../../../arm-none-eabi/lib/thumb/v7e-m+dp/hard\libc.a(lib_a-freer.o)
 .ARM.attributes
                0x000007c5       0x32 c:/vsarm/armcc/bin/../lib/gcc/arm-none-eabi/9.3.1/../../../../arm-none-eabi/lib/thumb/v7e-m+dp/hard\libc.a(lib_a-localeconv.o)
 .ARM.attributes
                0x000007f7       0x32 c:/vsarm/armcc/bin/../lib/gcc/arm-none-eabi/9.3.1/../../../../arm-none-eabi/lib/thumb/v7e-m+dp/hard\libc.a(lib_a-lock.o)
 .ARM.attributes
                0x00000829       0x32 c:/vsarm/armcc/bin/../lib/gcc/arm-none-eabi/9.3.1/../../../../arm-none-eabi/lib/thumb/v7e-m+dp/hard\libc.a(lib_a-mallocr.o)
 .ARM.attributes
                0x0000085b       0x1c c:/vsarm/armcc/bin/../lib/gcc/arm-none-eabi/9.3.1/../../../../arm-none-eabi/lib/thumb/v7e-m+dp/hard\libc.a(lib_a-memchr.o)
 .ARM.attributes
                0x00000877       0x1c c:/vsarm/armcc/bin/../lib/gcc/arm-none-eabi/9.3.1/../../../../arm-none-eabi/lib/thumb/v7e-m+dp/hard\libc.a(lib_a-memcpy.o)
 .ARM.attributes
                0x00000893       0x32 c:/vsarm/armcc/bin/../lib/gcc/arm-none-eabi/9.3.1/../../../../arm-none-eabi/lib/thumb/v7e-m+dp/hard\libc.a(lib_a-mlock.o)
 .ARM.attributes
                0x000008c5       0x32 c:/vsarm/armcc/bin/../lib/gcc/arm-none-eabi/9.3.1/../../../../arm-none-eabi/lib/thumb/v7e-m+dp/hard\libc.a(lib_a-mprec.o)
 .ARM.attributes
                0x000008f7       0x32 c:/vsarm/armcc/bin/../lib/gcc/arm-none-eabi/9.3.1/../../../../arm-none-eabi/lib/thumb/v7e-m+dp/hard\libc.a(lib_a-s_frexp.o)
 .ARM.attributes
                0x00000929       0x32 c:/vsarm/armcc/bin/../lib/gcc/arm-none-eabi/9.3.1/../../../../arm-none-eabi/lib/thumb/v7e-m+dp/hard\libc.a(lib_a-sbrkr.o)
 .ARM.attributes
                0x0000095b       0x32 c:/vsarm/armcc/bin/../lib/gcc/arm-none-eabi/9.3.1/../../../../arm-none-eabi/lib/thumb/v7e-m+dp/hard\libc.a(lib_a-strncpy.o)
 .ARM.attributes
                0x0000098d       0x32 c:/vsarm/armcc/bin/../lib/gcc/arm-none-eabi/9.3.1/../../../../arm-none-eabi/lib/thumb/v7e-m+dp/hard\libc.a(lib_a-svfiprintf.o)
 .ARM.attributes
                0x000009bf       0x32 c:/vsarm/armcc/bin/../lib/gcc/arm-none-eabi/9.3.1/../../../../arm-none-eabi/lib/thumb/v7e-m+dp/hard\libc.a(lib_a-__atexit.o)
 .ARM.attributes
                0x000009f1       0x32 c:/vsarm/armcc/bin/../lib/gcc/arm-none-eabi/9.3.1/../../../../arm-none-eabi/lib/thumb/v7e-m+dp/hard\libc.a(lib_a-assert.o)
 .ARM.attributes
                0x00000a23       0x32 c:/vsarm/armcc/bin/../lib/gcc/arm-none-eabi/9.3.1/../../../../arm-none-eabi/lib/thumb/v7e-m+dp/hard\libc.a(lib_a-callocr.o)
 .ARM.attributes
                0x00000a55       0x32 c:/vsarm/armcc/bin/../lib/gcc/arm-none-eabi/9.3.1/../../../../arm-none-eabi/lib/thumb/v7e-m+dp/hard\libc.a(lib_a-fiprintf.o)
 .ARM.attributes
                0x00000a87       0x32 c:/vsarm/armcc/bin/../lib/gcc/arm-none-eabi/9.3.1/../../../../arm-none-eabi/lib/thumb/v7e-m+dp/hard\libc.a(lib_a-locale.o)
 .ARM.attributes
                0x00000ab9       0x32 c:/vsarm/armcc/bin/../lib/gcc/arm-none-eabi/9.3.1/../../../../arm-none-eabi/lib/thumb/v7e-m+dp/hard\libc.a(lib_a-mbtowc_r.o)
 .ARM.attributes
                0x00000aeb       0x32 c:/vsarm/armcc/bin/../lib/gcc/arm-none-eabi/9.3.1/../../../../arm-none-eabi/lib/thumb/v7e-m+dp/hard\libc.a(lib_a-memmove.o)
 .ARM.attributes
                0x00000b1d       0x32 c:/vsarm/armcc/bin/../lib/gcc/arm-none-eabi/9.3.1/../../../../arm-none-eabi/lib/thumb/v7e-m+dp/hard\libc.a(lib_a-reallocr.o)
 .ARM.attributes
                0x00000b4f       0x32 c:/vsarm/armcc/bin/../lib/gcc/arm-none-eabi/9.3.1/../../../../arm-none-eabi/lib/thumb/v7e-m+dp/hard\libc.a(lib_a-reent.o)
 .ARM.attributes
                0x00000b81       0x32 c:/vsarm/armcc/bin/../lib/gcc/arm-none-eabi/9.3.1/../../../../arm-none-eabi/lib/thumb/v7e-m+dp/hard\libc.a(lib_a-vfiprintf.o)
 .ARM.attributes
                0x00000bb3       0x32 c:/vsarm/armcc/bin/../lib/gcc/arm-none-eabi/9.3.1/../../../../arm-none-eabi/lib/thumb/v7e-m+dp/hard\libc.a(lib_a-wctomb_r.o)
 .ARM.attributes
                0x00000be5       0x32 c:/vsarm/armcc/bin/../lib/gcc/arm-none-eabi/9.3.1/../../../../arm-none-eabi/lib/thumb/v7e-m+dp/hard\libc.a(lib_a-wsetup.o)
 .ARM.attributes
                0x00000c17       0x32 c:/vsarm/armcc/bin/../lib/gcc/arm-none-eabi/9.3.1/../../../../arm-none-eabi/lib/thumb/v7e-m+dp/hard\libc.a(lib_a-abort.o)
 .ARM.attributes
                0x00000c49       0x30 c:/vsarm/armcc/bin/../lib/gcc/arm-none-eabi/9.3.1/../../../../arm-none-eabi/lib/thumb/v7e-m+dp/hard\libc.a(lib_a-ctype_.o)
 .ARM.attributes
                0x00000c79       0x32 c:/vsarm/armcc/bin/../lib/gcc/arm-none-eabi/9.3.1/../../../../arm-none-eabi/lib/thumb/v7e-m+dp/hard\libc.a(lib_a-fflush.o)
 .ARM.attributes
                0x00000cab       0x32 c:/vsarm/armcc/bin/../lib/gcc/arm-none-eabi/9.3.1/../../../../arm-none-eabi/lib/thumb/v7e-m+dp/hard\libc.a(lib_a-findfp.o)
 .ARM.attributes
                0x00000cdd       0x32 c:/vsarm/armcc/bin/../lib/gcc/arm-none-eabi/9.3.1/../../../../arm-none-eabi/lib/thumb/v7e-m+dp/hard\libc.a(lib_a-fputwc.o)
 .ARM.attributes
                0x00000d0f       0x32 c:/vsarm/armcc/bin/../lib/gcc/arm-none-eabi/9.3.1/../../../../arm-none-eabi/lib/thumb/v7e-m+dp/hard\libc.a(lib_a-fvwrite.o)
 .ARM.attributes
                0x00000d41       0x32 c:/vsarm/armcc/bin/../lib/gcc/arm-none-eabi/9.3.1/../../../../arm-none-eabi/lib/thumb/v7e-m+dp/hard\libc.a(lib_a-fwalk.o)
 .ARM.attributes
                0x00000d73       0x32 c:/vsarm/armcc/bin/../lib/gcc/arm-none-eabi/9.3.1/../../../../arm-none-eabi/lib/thumb/v7e-m+dp/hard\libc.a(lib_a-makebuf.o)
 .ARM.attributes
                0x00000da5       0x32 c:/vsarm/armcc/bin/../lib/gcc/arm-none-eabi/9.3.1/../../../../arm-none-eabi/lib/thumb/v7e-m+dp/hard\libc.a(lib_a-signal.o)
 .ARM.attributes
                0x00000dd7       0x32 c:/vsarm/armcc/bin/../lib/gcc/arm-none-eabi/9.3.1/../../../../arm-none-eabi/lib/thumb/v7e-m+dp/hard\libc.a(lib_a-signalr.o)
 .ARM.attributes
                0x00000e09       0x32 c:/vsarm/armcc/bin/../lib/gcc/arm-none-eabi/9.3.1/../../../../arm-none-eabi/lib/thumb/v7e-m+dp/hard\libc.a(lib_a-stdio.o)
 .ARM.attributes
                0x00000e3b       0x32 c:/vsarm/armcc/bin/../lib/gcc/arm-none-eabi/9.3.1/../../../../arm-none-eabi/lib/thumb/v7e-m+dp/hard\libc.a(lib_a-wbuf.o)
 .ARM.attributes
                0x00000e6d       0x32 c:/vsarm/armcc/bin/../lib/gcc/arm-none-eabi/9.3.1/../../../../arm-none-eabi/lib/thumb/v7e-m+dp/hard\libc.a(lib_a-wcrtomb.o)
 .ARM.attributes
                0x00000e9f       0x32 c:/vsarm/armcc/bin/../lib/gcc/arm-none-eabi/9.3.1/../../../../arm-none-eabi/lib/thumb/v7e-m+dp/hard\libc.a(lib_a-writer.o)
 .ARM.attributes
                0x00000ed1       0x32 c:/vsarm/armcc/bin/../lib/gcc/arm-none-eabi/9.3.1/../../../../arm-none-eabi/lib/thumb/v7e-m+dp/hard\libc.a(lib_a-closer.o)
 .ARM.attributes
                0x00000f03       0x32 c:/vsarm/armcc/bin/../lib/gcc/arm-none-eabi/9.3.1/../../../../arm-none-eabi/lib/thumb/v7e-m+dp/hard\libc.a(lib_a-fclose.o)
 .ARM.attributes
                0x00000f35       0x32 c:/vsarm/armcc/bin/../lib/gcc/arm-none-eabi/9.3.1/../../../../arm-none-eabi/lib/thumb/v7e-m+dp/hard\libc.a(lib_a-fstatr.o)
 .ARM.attributes
                0x00000f67       0x32 c:/vsarm/armcc/bin/../lib/gcc/arm-none-eabi/9.3.1/../../../../arm-none-eabi/lib/thumb/v7e-m+dp/hard\libc.a(lib_a-isattyr.o)
 .ARM.attributes
                0x00000f99       0x32 c:/vsarm/armcc/bin/../lib/gcc/arm-none-eabi/9.3.1/../../../../arm-none-eabi/lib/thumb/v7e-m+dp/hard\libc.a(lib_a-lseekr.o)
 .ARM.attributes
                0x00000fcb       0x32 c:/vsarm/armcc/bin/../lib/gcc/arm-none-eabi/9.3.1/../../../../arm-none-eabi/lib/thumb/v7e-m+dp/hard\libc.a(lib_a-readr.o)
 .ARM.attributes
                0x00000ffd       0x32 c:/vsarm/armcc/bin/../lib/gcc/arm-none-eabi/9.3.1/../../../../arm-none-eabi/lib/thumb/v7e-m+dp/hard\libnosys.a(close.o)
 .ARM.attributes
                0x0000102f       0x32 c:/vsarm/armcc/bin/../lib/gcc/arm-none-eabi/9.3.1/../../../../arm-none-eabi/lib/thumb/v7e-m+dp/hard\libnosys.a(fstat.o)
 .ARM.attributes
                0x00001061       0x32 c:/vsarm/armcc/bin/../lib/gcc/arm-none-eabi/9.3.1/../../../../arm-none-eabi/lib/thumb/v7e-m+dp/hard\libnosys.a(getpid.o)
 .ARM.attributes
                0x00001093       0x32 c:/vsarm/armcc/bin/../lib/gcc/arm-none-eabi/9.3.1/../../../../arm-none-eabi/lib/thumb/v7e-m+dp/hard\libnosys.a(isatty.o)
 .ARM.attributes
                0x000010c5       0x32 c:/vsarm/armcc/bin/../lib/gcc/arm-none-eabi/9.3.1/../../../../arm-none-eabi/lib/thumb/v7e-m+dp/hard\libnosys.a(kill.o)
 .ARM.attributes
                0x000010f7       0x32 c:/vsarm/armcc/bin/../lib/gcc/arm-none-eabi/9.3.1/../../../../arm-none-eabi/lib/thumb/v7e-m+dp/hard\libnosys.a(lseek.o)
 .ARM.attributes
                0x00001129       0x32 c:/vsarm/armcc/bin/../lib/gcc/arm-none-eabi/9.3.1/../../../../arm-none-eabi/lib/thumb/v7e-m+dp/hard\libnosys.a(read.o)
 .ARM.attributes
                0x0000115b       0x32 c:/vsarm/armcc/bin/../lib/gcc/arm-none-eabi/9.3.1/../../../../arm-none-eabi/lib/thumb/v7e-m+dp/hard\libnosys.a(sbrk.o)
 .ARM.attributes
                0x0000118d       0x32 c:/vsarm/armcc/bin/../lib/gcc/arm-none-eabi/9.3.1/../../../../arm-none-eabi/lib/thumb/v7e-m+dp/hard\libnosys.a(write.o)
 .ARM.attributes
                0x000011bf       0x32 c:/vsarm/armcc/bin/../lib/gcc/arm-none-eabi/9.3.1/../../../../arm-none-eabi/lib/thumb/v7e-m+dp/hard\libnosys.a(_exit.o)
 .ARM.attributes
                0x000011f1       0x1e c:/vsarm/armcc/bin/../lib/gcc/arm-none-eabi/9.3.1/thumb/v7e-m+dp/hard\libgcc.a(_aeabi_uldivmod.o)
 .ARM.attributes
                0x0000120f       0x32 c:/vsarm/armcc/bin/../lib/gcc/arm-none-eabi/9.3.1/thumb/v7e-m+dp/hard\libgcc.a(_udivmoddi4.o)
 .ARM.attributes
                0x00001241       0x1e c:/vsarm/armcc/bin/../lib/gcc/arm-none-eabi/9.3.1/thumb/v7e-m+dp/hard\libgcc.a(_dvmd_tls.o)
 .ARM.attributes
                0x0000125f       0x1e c:/vsarm/armcc/bin/../lib/gcc/arm-none-eabi/9.3.1/thumb/v7e-m+dp/hard/crtn.o
OUTPUT(build/767_SPI_ILI9341_2.elf elf32-littlearm)
LOAD linker stubs
LOAD c:/vsarm/armcc/bin/../lib/gcc/arm-none-eabi/9.3.1/../../../../arm-none-eabi/lib/thumb/v7e-m+dp/hard\libc.a
LOAD c:/vsarm/armcc/bin/../lib/gcc/arm-none-eabi/9.3.1/../../../../arm-none-eabi/lib/thumb/v7e-m+dp/hard\libm.a
LOAD c:/vsarm/armcc/bin/../lib/gcc/arm-none-eabi/9.3.1/thumb/v7e-m+dp/hard\libgcc.a

.debug_info     0x00000000    0x2114d
 .debug_info    0x00000000      0xcec build/stm32f7xx_hal.o
 .debug_info    0x00000cec     0x14fc build/stm32f7xx_hal_cortex.o
 .debug_info    0x000021e8      0x958 build/stm32f7xx_hal_gpio.o
 .debug_info    0x00002b40     0x4161 build/stm32f7xx_hal_i2c.o
 .debug_info    0x00006ca1      0xbac build/stm32f7xx_hal_i2c_ex.o
 .debug_info    0x0000784d      0xb8f build/stm32f7xx_hal_pwr.o
 .debug_info    0x000083dc      0xbfd build/stm32f7xx_hal_pwr_ex.o
 .debug_info    0x00008fd9      0xd6c build/stm32f7xx_hal_rcc.o
 .debug_info    0x00009d45      0xa69 build/stm32f7xx_hal_rcc_ex.o
 .debug_info    0x0000a7ae      0x6bb build/stm32f7xx_hal_rng.o
 .debug_info    0x0000ae69     0x2376 build/stm32f7xx_hal_spi.o
 .debug_info    0x0000d1df     0x3b49 build/stm32f7xx_hal_tim.o
 .debug_info    0x00010d28     0x1aa6 build/stm32f7xx_hal_tim_ex.o
 .debug_info    0x000127ce     0x20dc build/stm32f7xx_hal_uart.o
 .debug_info    0x000148aa     0x1658 build/ILI9341_GFX.o
 .debug_info    0x00015f02     0x1c43 build/ILI9341_STM32_Driver.o
 .debug_info    0x00017b45      0x625 build/ILI9341_Touchscreen.o
 .debug_info    0x0001816a      0x7f0 build/gpio.o
 .debug_info    0x0001895a      0xcec build/i2c.o
 .debug_info    0x00019646     0x372b build/main.o
 .debug_info    0x0001cd71      0x5e9 build/rng.o
 .debug_info    0x0001d35a      0xc5a build/spi.o
 .debug_info    0x0001dfb4      0x418 build/stm32f7xx_hal_msp.o
 .debug_info    0x0001e3cc      0x80a build/stm32f7xx_it.o
 .debug_info    0x0001ebd6      0x88c build/system_stm32f7xx.o
 .debug_info    0x0001f462     0x100d build/tim.o
 .debug_info    0x0002046f      0xcbc build/usart.o
 .debug_info    0x0002112b       0x22 build/startup_stm32f767xx.o

.debug_abbrev   0x00000000     0x3d6a
 .debug_abbrev  0x00000000      0x21c build/stm32f7xx_hal.o
 .debug_abbrev  0x0000021c      0x3a8 build/stm32f7xx_hal_cortex.o
 .debug_abbrev  0x000005c4      0x258 build/stm32f7xx_hal_gpio.o
 .debug_abbrev  0x0000081c      0x2fc build/stm32f7xx_hal_i2c.o
 .debug_abbrev  0x00000b18      0x1e2 build/stm32f7xx_hal_i2c_ex.o
 .debug_abbrev  0x00000cfa      0x1f5 build/stm32f7xx_hal_pwr.o
 .debug_abbrev  0x00000eef      0x1de build/stm32f7xx_hal_pwr_ex.o
 .debug_abbrev  0x000010cd      0x2f5 build/stm32f7xx_hal_rcc.o
 .debug_abbrev  0x000013c2      0x203 build/stm32f7xx_hal_rcc_ex.o
 .debug_abbrev  0x000015c5      0x220 build/stm32f7xx_hal_rng.o
 .debug_abbrev  0x000017e5      0x2b8 build/stm32f7xx_hal_spi.o
 .debug_abbrev  0x00001a9d      0x2af build/stm32f7xx_hal_tim.o
 .debug_abbrev  0x00001d4c      0x2ab build/stm32f7xx_hal_tim_ex.o
 .debug_abbrev  0x00001ff7      0x2ac build/stm32f7xx_hal_uart.o
 .debug_abbrev  0x000022a3      0x2bc build/ILI9341_GFX.o
 .debug_abbrev  0x0000255f      0x292 build/ILI9341_STM32_Driver.o
 .debug_abbrev  0x000027f1      0x1ae build/ILI9341_Touchscreen.o
 .debug_abbrev  0x0000299f      0x17e build/gpio.o
 .debug_abbrev  0x00002b1d      0x1fc build/i2c.o
 .debug_abbrev  0x00002d19      0x498 build/main.o
 .debug_abbrev  0x000031b1      0x1c4 build/rng.o
 .debug_abbrev  0x00003375      0x1f1 build/spi.o
 .debug_abbrev  0x00003566      0x11c build/stm32f7xx_hal_msp.o
 .debug_abbrev  0x00003682      0x190 build/stm32f7xx_it.o
 .debug_abbrev  0x00003812      0x159 build/system_stm32f7xx.o
 .debug_abbrev  0x0000396b      0x1fc build/tim.o
 .debug_abbrev  0x00003b67      0x1f1 build/usart.o
 .debug_abbrev  0x00003d58       0x12 build/startup_stm32f767xx.o

.debug_loc      0x00000000    0x14fd1
 .debug_loc     0x00000000      0x1cc build/stm32f7xx_hal.o
 .debug_loc     0x000001cc      0x7c4 build/stm32f7xx_hal_cortex.o
 .debug_loc     0x00000990      0x5e1 build/stm32f7xx_hal_gpio.o
 .debug_loc     0x00000f71     0x50a1 build/stm32f7xx_hal_i2c.o
 .debug_loc     0x00006012      0x19c build/stm32f7xx_hal_i2c_ex.o
 .debug_loc     0x000061ae       0xa5 build/stm32f7xx_hal_pwr.o
 .debug_loc     0x00006253      0x3ca build/stm32f7xx_hal_pwr_ex.o
 .debug_loc     0x0000661d      0x7c1 build/stm32f7xx_hal_rcc.o
 .debug_loc     0x00006dde      0x973 build/stm32f7xx_hal_rcc_ex.o
 .debug_loc     0x00007751      0x474 build/stm32f7xx_hal_rng.o
 .debug_loc     0x00007bc5     0x25d3 build/stm32f7xx_hal_spi.o
 .debug_loc     0x0000a198     0x48a7 build/stm32f7xx_hal_tim.o
 .debug_loc     0x0000ea3f     0x1d13 build/stm32f7xx_hal_tim_ex.o
 .debug_loc     0x00010752     0x1f16 build/stm32f7xx_hal_uart.o
 .debug_loc     0x00012668      0xf8e build/ILI9341_GFX.o
 .debug_loc     0x000135f6      0x833 build/ILI9341_STM32_Driver.o
 .debug_loc     0x00013e29      0x345 build/ILI9341_Touchscreen.o
 .debug_loc     0x0001416e       0x39 build/gpio.o
 .debug_loc     0x000141a7      0x108 build/i2c.o
 .debug_loc     0x000142af      0x752 build/main.o
 .debug_loc     0x00014a01       0x4c build/rng.o
 .debug_loc     0x00014a4d      0x108 build/spi.o
 .debug_loc     0x00014b55       0x2c build/stm32f7xx_hal_msp.o
 .debug_loc     0x00014b81       0x40 build/stm32f7xx_it.o
 .debug_loc     0x00014bc1      0x198 build/system_stm32f7xx.o
 .debug_loc     0x00014d59      0x170 build/tim.o
 .debug_loc     0x00014ec9      0x108 build/usart.o

.debug_aranges  0x00000000     0x13a0
 .debug_aranges
                0x00000000      0x110 build/stm32f7xx_hal.o
 .debug_aranges
                0x00000110       0xa8 build/stm32f7xx_hal_cortex.o
 .debug_aranges
                0x000001b8       0x58 build/stm32f7xx_hal_gpio.o
 .debug_aranges
                0x00000210      0x288 build/stm32f7xx_hal_i2c.o
 .debug_aranges
                0x00000498       0x38 build/stm32f7xx_hal_i2c_ex.o
 .debug_aranges
                0x000004d0       0xa0 build/stm32f7xx_hal_pwr.o
 .debug_aranges
                0x00000570       0x80 build/stm32f7xx_hal_pwr_ex.o
 .debug_aranges
                0x000005f0       0x88 build/stm32f7xx_hal_rcc.o
 .debug_aranges
                0x00000678       0x50 build/stm32f7xx_hal_rcc_ex.o
 .debug_aranges
                0x000006c8       0x88 build/stm32f7xx_hal_rng.o
 .debug_aranges
                0x00000750      0x1d8 build/stm32f7xx_hal_spi.o
 .debug_aranges
                0x00000928      0x3b8 build/stm32f7xx_hal_tim.o
 .debug_aranges
                0x00000ce0      0x168 build/stm32f7xx_hal_tim_ex.o
 .debug_aranges
                0x00000e48      0x1f8 build/stm32f7xx_hal_uart.o
 .debug_aranges
                0x00001040       0x50 build/ILI9341_GFX.o
 .debug_aranges
                0x00001090       0x98 build/ILI9341_STM32_Driver.o
 .debug_aranges
                0x00001128       0x38 build/ILI9341_Touchscreen.o
 .debug_aranges
                0x00001160       0x20 build/gpio.o
 .debug_aranges
                0x00001180       0x30 build/i2c.o
 .debug_aranges
                0x000011b0       0x90 build/main.o
 .debug_aranges
                0x00001240       0x30 build/rng.o
 .debug_aranges
                0x00001270       0x30 build/spi.o
 .debug_aranges
                0x000012a0       0x20 build/stm32f7xx_hal_msp.o
 .debug_aranges
                0x000012c0       0x28 build/stm32f7xx_it.o
 .debug_aranges
                0x000012e8       0x28 build/system_stm32f7xx.o
 .debug_aranges
                0x00001310       0x38 build/tim.o
 .debug_aranges
                0x00001348       0x30 build/usart.o
 .debug_aranges
                0x00001378       0x28 build/startup_stm32f767xx.o

.debug_ranges   0x00000000     0x1310
 .debug_ranges  0x00000000      0x100 build/stm32f7xx_hal.o
 .debug_ranges  0x00000100       0xf8 build/stm32f7xx_hal_cortex.o
 .debug_ranges  0x000001f8       0x48 build/stm32f7xx_hal_gpio.o
 .debug_ranges  0x00000240      0x278 build/stm32f7xx_hal_i2c.o
 .debug_ranges  0x000004b8       0x28 build/stm32f7xx_hal_i2c_ex.o
 .debug_ranges  0x000004e0       0x90 build/stm32f7xx_hal_pwr.o
 .debug_ranges  0x00000570       0x70 build/stm32f7xx_hal_pwr_ex.o
 .debug_ranges  0x000005e0       0x78 build/stm32f7xx_hal_rcc.o
 .debug_ranges  0x00000658       0x40 build/stm32f7xx_hal_rcc_ex.o
 .debug_ranges  0x00000698       0x78 build/stm32f7xx_hal_rng.o
 .debug_ranges  0x00000710      0x1c8 build/stm32f7xx_hal_spi.o
 .debug_ranges  0x000008d8      0x3a8 build/stm32f7xx_hal_tim.o
 .debug_ranges  0x00000c80      0x158 build/stm32f7xx_hal_tim_ex.o
 .debug_ranges  0x00000dd8      0x1e8 build/stm32f7xx_hal_uart.o
 .debug_ranges  0x00000fc0       0xd0 build/ILI9341_GFX.o
 .debug_ranges  0x00001090       0x88 build/ILI9341_STM32_Driver.o
 .debug_ranges  0x00001118       0x28 build/ILI9341_Touchscreen.o
 .debug_ranges  0x00001140       0x10 build/gpio.o
 .debug_ranges  0x00001150       0x20 build/i2c.o
 .debug_ranges  0x00001170       0xb8 build/main.o
 .debug_ranges  0x00001228       0x20 build/rng.o
 .debug_ranges  0x00001248       0x20 build/spi.o
 .debug_ranges  0x00001268       0x10 build/stm32f7xx_hal_msp.o
 .debug_ranges  0x00001278       0x18 build/stm32f7xx_it.o
 .debug_ranges  0x00001290       0x18 build/system_stm32f7xx.o
 .debug_ranges  0x000012a8       0x28 build/tim.o
 .debug_ranges  0x000012d0       0x20 build/usart.o
 .debug_ranges  0x000012f0       0x20 build/startup_stm32f767xx.o

.debug_line     0x00000000    0x14ce9
 .debug_line    0x00000000      0x568 build/stm32f7xx_hal.o
 .debug_line    0x00000568      0x759 build/stm32f7xx_hal_cortex.o
 .debug_line    0x00000cc1      0x6e0 build/stm32f7xx_hal_gpio.o
 .debug_line    0x000013a1     0x472e build/stm32f7xx_hal_i2c.o
 .debug_line    0x00005acf      0x386 build/stm32f7xx_hal_i2c_ex.o
 .debug_line    0x00005e55      0x43d build/stm32f7xx_hal_pwr.o
 .debug_line    0x00006292      0x527 build/stm32f7xx_hal_pwr_ex.o
 .debug_line    0x000067b9      0xc1e build/stm32f7xx_hal_rcc.o
 .debug_line    0x000073d7      0xc11 build/stm32f7xx_hal_rcc_ex.o
 .debug_line    0x00007fe8      0x56b build/stm32f7xx_hal_rng.o
 .debug_line    0x00008553     0x27de build/stm32f7xx_hal_spi.o
 .debug_line    0x0000ad31     0x37ba build/stm32f7xx_hal_tim.o
 .debug_line    0x0000e4eb     0x13a0 build/stm32f7xx_hal_tim_ex.o
 .debug_line    0x0000f88b     0x1f58 build/stm32f7xx_hal_uart.o
 .debug_line    0x000117e3      0x8e3 build/ILI9341_GFX.o
 .debug_line    0x000120c6      0x640 build/ILI9341_STM32_Driver.o
 .debug_line    0x00012706      0x366 build/ILI9341_Touchscreen.o
 .debug_line    0x00012a6c      0x329 build/gpio.o
 .debug_line    0x00012d95      0x2fc build/i2c.o
 .debug_line    0x00013091      0xab9 build/main.o
 .debug_line    0x00013b4a      0x210 build/rng.o
 .debug_line    0x00013d5a      0x2ee build/spi.o
 .debug_line    0x00014048      0x17c build/stm32f7xx_hal_msp.o
 .debug_line    0x000141c4      0x1ce build/stm32f7xx_it.o
 .debug_line    0x00014392      0x26f build/system_stm32f7xx.o
 .debug_line    0x00014601      0x3a1 build/tim.o
 .debug_line    0x000149a2      0x2d3 build/usart.o
 .debug_line    0x00014c75       0x74 build/startup_stm32f767xx.o

.debug_str      0x00000000     0x6015
 .debug_str     0x00000000      0xd1b build/stm32f7xx_hal.o
                                0xd84 (size before relaxing)
 .debug_str     0x00000d1b      0x562 build/stm32f7xx_hal_cortex.o
                                0xef0 (size before relaxing)
 .debug_str     0x0000127d      0x1aa build/stm32f7xx_hal_gpio.o
                                0x5b4 (size before relaxing)
 .debug_str     0x00001427      0xd35 build/stm32f7xx_hal_i2c.o
                               0x1093 (size before relaxing)
 .debug_str     0x0000215c       0xc1 build/stm32f7xx_hal_i2c_ex.o
                                0x9b8 (size before relaxing)
 .debug_str     0x0000221d      0x22b build/stm32f7xx_hal_pwr.o
                                0x6f4 (size before relaxing)
 .debug_str     0x00002448      0x1e1 build/stm32f7xx_hal_pwr_ex.o
                                0x703 (size before relaxing)
 .debug_str     0x00002629      0x2db build/stm32f7xx_hal_rcc.o
                                0x79b (size before relaxing)
 .debug_str     0x00002904      0x3f8 build/stm32f7xx_hal_rcc_ex.o
                                0x7f0 (size before relaxing)
 .debug_str     0x00002cfc      0x21c build/stm32f7xx_hal_rng.o
                                0x522 (size before relaxing)
 .debug_str     0x00002f18      0x72c build/stm32f7xx_hal_spi.o
                                0xcd8 (size before relaxing)
 .debug_str     0x00003644     0x107b build/stm32f7xx_hal_tim.o
                               0x15f3 (size before relaxing)
 .debug_str     0x000046bf      0x641 build/stm32f7xx_hal_tim_ex.o
                                0xf05 (size before relaxing)
 .debug_str     0x00004d00      0x7ed build/stm32f7xx_hal_uart.o
                                0xf7f (size before relaxing)
 .debug_str     0x000054ed      0x228 build/ILI9341_GFX.o
                                0x963 (size before relaxing)
 .debug_str     0x00005715      0x1ac build/ILI9341_STM32_Driver.o
                                0x989 (size before relaxing)
 .debug_str     0x000058c1       0x95 build/ILI9341_Touchscreen.o
                                0x38c (size before relaxing)
 .debug_str     0x00005956        0xb build/gpio.o
                                0x44d (size before relaxing)
 .debug_str     0x00005961       0x35 build/i2c.o
                                0x9d0 (size before relaxing)
 .debug_str     0x00005996      0x576 build/main.o
                               0x1bed (size before relaxing)
 .debug_str     0x00005f0c       0x14 build/rng.o
                                0x4eb (size before relaxing)
 .debug_str     0x00005f20       0x14 build/spi.o
                                0x8df (size before relaxing)
 .debug_str     0x00005f34       0x18 build/stm32f7xx_hal_msp.o
                                0x39c (size before relaxing)
 .debug_str     0x00005f4c       0x33 build/stm32f7xx_it.o
                                0x716 (size before relaxing)
 .debug_str     0x00005f7f       0x42 build/system_stm32f7xx.o
                                0x4e1 (size before relaxing)
 .debug_str     0x00005fc1       0x19 build/tim.o
                               0x1003 (size before relaxing)
 .debug_str     0x00005fda       0x17 build/usart.o
                                0x8d2 (size before relaxing)
 .debug_str     0x00005ff1       0x24 build/startup_stm32f767xx.o
                                 0x56 (size before relaxing)

.comment        0x00000000       0x4c
 .comment       0x00000000       0x4c build/stm32f7xx_hal.o
                                 0x4d (size before relaxing)
 .comment       0x0000004c       0x4d build/stm32f7xx_hal_cortex.o
 .comment       0x0000004c       0x4d build/stm32f7xx_hal_gpio.o
 .comment       0x0000004c       0x4d build/stm32f7xx_hal_i2c.o
 .comment       0x0000004c       0x4d build/stm32f7xx_hal_i2c_ex.o
 .comment       0x0000004c       0x4d build/stm32f7xx_hal_pwr.o
 .comment       0x0000004c       0x4d build/stm32f7xx_hal_pwr_ex.o
 .comment       0x0000004c       0x4d build/stm32f7xx_hal_rcc.o
 .comment       0x0000004c       0x4d build/stm32f7xx_hal_rcc_ex.o
 .comment       0x0000004c       0x4d build/stm32f7xx_hal_rng.o
 .comment       0x0000004c       0x4d build/stm32f7xx_hal_spi.o
 .comment       0x0000004c       0x4d build/stm32f7xx_hal_tim.o
 .comment       0x0000004c       0x4d build/stm32f7xx_hal_tim_ex.o
 .comment       0x0000004c       0x4d build/stm32f7xx_hal_uart.o
 .comment       0x0000004c       0x4d build/ILI9341_GFX.o
 .comment       0x0000004c       0x4d build/ILI9341_STM32_Driver.o
 .comment       0x0000004c       0x4d build/ILI9341_Touchscreen.o
 .comment       0x0000004c       0x4d build/gpio.o
 .comment       0x0000004c       0x4d build/i2c.o
 .comment       0x0000004c       0x4d build/main.o
 .comment       0x0000004c       0x4d build/rng.o
 .comment       0x0000004c       0x4d build/spi.o
 .comment       0x0000004c       0x4d build/stm32f7xx_hal_msp.o
 .comment       0x0000004c       0x4d build/stm32f7xx_it.o
 .comment       0x0000004c       0x4d build/system_stm32f7xx.o
 .comment       0x0000004c       0x4d build/tim.o
 .comment       0x0000004c       0x4d build/usart.o

.debug_frame    0x00000000     0x4ac4
 .debug_frame   0x00000000      0x22c build/stm32f7xx_hal.o
 .debug_frame   0x0000022c      0x15c build/stm32f7xx_hal_cortex.o
 .debug_frame   0x00000388       0xd8 build/stm32f7xx_hal_gpio.o
 .debug_frame   0x00000460      0x920 build/stm32f7xx_hal_i2c.o
 .debug_frame   0x00000d80       0x60 build/stm32f7xx_hal_i2c_ex.o
 .debug_frame   0x00000de0      0x134 build/stm32f7xx_hal_pwr.o
 .debug_frame   0x00000f14      0x134 build/stm32f7xx_hal_pwr_ex.o
 .debug_frame   0x00001048      0x180 build/stm32f7xx_hal_rcc.o
 .debug_frame   0x000011c8       0xcc build/stm32f7xx_hal_rcc_ex.o
 .debug_frame   0x00001294      0x128 build/stm32f7xx_hal_rng.o
 .debug_frame   0x000013bc      0x5c0 build/stm32f7xx_hal_spi.o
 .debug_frame   0x0000197c      0xae4 build/stm32f7xx_hal_tim.o
 .debug_frame   0x00002460      0x418 build/stm32f7xx_hal_tim_ex.o
 .debug_frame   0x00002878      0x590 build/stm32f7xx_hal_uart.o
 .debug_frame   0x00002e08      0x128 build/ILI9341_GFX.o
 .debug_frame   0x00002f30      0x1e8 build/ILI9341_STM32_Driver.o
 .debug_frame   0x00003118       0x80 build/ILI9341_Touchscreen.o
 .debug_frame   0x00003198       0x3c build/gpio.o
 .debug_frame   0x000031d4       0x60 build/i2c.o
 .debug_frame   0x00003234      0x1a0 build/main.o
 .debug_frame   0x000033d4       0x50 build/rng.o
 .debug_frame   0x00003424       0x60 build/spi.o
 .debug_frame   0x00003484       0x28 build/stm32f7xx_hal_msp.o
 .debug_frame   0x000034ac       0x40 build/stm32f7xx_it.o
 .debug_frame   0x000034ec       0x3c build/system_stm32f7xx.o
 .debug_frame   0x00003528       0x88 build/tim.o
 .debug_frame   0x000035b0       0x60 build/usart.o
 .debug_frame   0x00003610       0x2c c:/vsarm/armcc/bin/../lib/gcc/arm-none-eabi/9.3.1/../../../../arm-none-eabi/lib/thumb/v7e-m+dp/hard\libc.a(lib_a-init.o)
 .debug_frame   0x0000363c       0x38 c:/vsarm/armcc/bin/../lib/gcc/arm-none-eabi/9.3.1/../../../../arm-none-eabi/lib/thumb/v7e-m+dp/hard\libc.a(lib_a-memset.o)
 .debug_frame   0x00003674       0x7c c:/vsarm/armcc/bin/../lib/gcc/arm-none-eabi/9.3.1/../../../../arm-none-eabi/lib/thumb/v7e-m+dp/hard\libc.a(lib_a-sprintf.o)
 .debug_frame   0x000036f0       0x68 c:/vsarm/armcc/bin/../lib/gcc/arm-none-eabi/9.3.1/../../../../arm-none-eabi/lib/thumb/v7e-m+dp/hard\libc.a(lib_a-svfprintf.o)
 .debug_frame   0x00003758       0x68 c:/vsarm/armcc/bin/../lib/gcc/arm-none-eabi/9.3.1/../../../../arm-none-eabi/lib/thumb/v7e-m+dp/hard\libc.a(lib_a-__call_atexit.o)
 .debug_frame   0x000037c0       0x20 c:/vsarm/armcc/bin/../lib/gcc/arm-none-eabi/9.3.1/../../../../arm-none-eabi/lib/thumb/v7e-m+dp/hard\libc.a(lib_a-atexit.o)
 .debug_frame   0x000037e0       0x88 c:/vsarm/armcc/bin/../lib/gcc/arm-none-eabi/9.3.1/../../../../arm-none-eabi/lib/thumb/v7e-m+dp/hard\libc.a(lib_a-dtoa.o)
 .debug_frame   0x00003868       0x34 c:/vsarm/armcc/bin/../lib/gcc/arm-none-eabi/9.3.1/../../../../arm-none-eabi/lib/thumb/v7e-m+dp/hard\libc.a(lib_a-fini.o)
 .debug_frame   0x0000389c       0x8c c:/vsarm/armcc/bin/../lib/gcc/arm-none-eabi/9.3.1/../../../../arm-none-eabi/lib/thumb/v7e-m+dp/hard\libc.a(lib_a-freer.o)
 .debug_frame   0x00003928       0x40 c:/vsarm/armcc/bin/../lib/gcc/arm-none-eabi/9.3.1/../../../../arm-none-eabi/lib/thumb/v7e-m+dp/hard\libc.a(lib_a-localeconv.o)
 .debug_frame   0x00003968       0xb0 c:/vsarm/armcc/bin/../lib/gcc/arm-none-eabi/9.3.1/../../../../arm-none-eabi/lib/thumb/v7e-m+dp/hard\libc.a(lib_a-lock.o)
 .debug_frame   0x00003a18       0x4c c:/vsarm/armcc/bin/../lib/gcc/arm-none-eabi/9.3.1/../../../../arm-none-eabi/lib/thumb/v7e-m+dp/hard\libc.a(lib_a-mallocr.o)
 .debug_frame   0x00003a64       0x30 c:/vsarm/armcc/bin/../lib/gcc/arm-none-eabi/9.3.1/../../../../arm-none-eabi/lib/thumb/v7e-m+dp/hard\libc.a(lib_a-mlock.o)
 .debug_frame   0x00003a94      0x268 c:/vsarm/armcc/bin/../lib/gcc/arm-none-eabi/9.3.1/../../../../arm-none-eabi/lib/thumb/v7e-m+dp/hard\libc.a(lib_a-mprec.o)
 .debug_frame   0x00003cfc       0x34 c:/vsarm/armcc/bin/../lib/gcc/arm-none-eabi/9.3.1/../../../../arm-none-eabi/lib/thumb/v7e-m+dp/hard\libc.a(lib_a-s_frexp.o)
 .debug_frame   0x00003d30       0x2c c:/vsarm/armcc/bin/../lib/gcc/arm-none-eabi/9.3.1/../../../../arm-none-eabi/lib/thumb/v7e-m+dp/hard\libc.a(lib_a-sbrkr.o)
 .debug_frame   0x00003d5c       0x38 c:/vsarm/armcc/bin/../lib/gcc/arm-none-eabi/9.3.1/../../../../arm-none-eabi/lib/thumb/v7e-m+dp/hard\libc.a(lib_a-strncpy.o)
 .debug_frame   0x00003d94       0x88 c:/vsarm/armcc/bin/../lib/gcc/arm-none-eabi/9.3.1/../../../../arm-none-eabi/lib/thumb/v7e-m+dp/hard\libc.a(lib_a-svfiprintf.o)
 .debug_frame   0x00003e1c       0x34 c:/vsarm/armcc/bin/../lib/gcc/arm-none-eabi/9.3.1/../../../../arm-none-eabi/lib/thumb/v7e-m+dp/hard\libc.a(lib_a-__atexit.o)
 .debug_frame   0x00003e50       0x40 c:/vsarm/armcc/bin/../lib/gcc/arm-none-eabi/9.3.1/../../../../arm-none-eabi/lib/thumb/v7e-m+dp/hard\libc.a(lib_a-assert.o)
 .debug_frame   0x00003e90       0x28 c:/vsarm/armcc/bin/../lib/gcc/arm-none-eabi/9.3.1/../../../../arm-none-eabi/lib/thumb/v7e-m+dp/hard\libc.a(lib_a-callocr.o)
 .debug_frame   0x00003eb8       0x70 c:/vsarm/armcc/bin/../lib/gcc/arm-none-eabi/9.3.1/../../../../arm-none-eabi/lib/thumb/v7e-m+dp/hard\libc.a(lib_a-fiprintf.o)
 .debug_frame   0x00003f28       0x54 c:/vsarm/armcc/bin/../lib/gcc/arm-none-eabi/9.3.1/../../../../arm-none-eabi/lib/thumb/v7e-m+dp/hard\libc.a(lib_a-locale.o)
 .debug_frame   0x00003f7c       0x4c c:/vsarm/armcc/bin/../lib/gcc/arm-none-eabi/9.3.1/../../../../arm-none-eabi/lib/thumb/v7e-m+dp/hard\libc.a(lib_a-mbtowc_r.o)
 .debug_frame   0x00003fc8       0x40 c:/vsarm/armcc/bin/../lib/gcc/arm-none-eabi/9.3.1/../../../../arm-none-eabi/lib/thumb/v7e-m+dp/hard\libc.a(lib_a-memmove.o)
 .debug_frame   0x00004008       0x48 c:/vsarm/armcc/bin/../lib/gcc/arm-none-eabi/9.3.1/../../../../arm-none-eabi/lib/thumb/v7e-m+dp/hard\libc.a(lib_a-reallocr.o)
 .debug_frame   0x00004050       0x60 c:/vsarm/armcc/bin/../lib/gcc/arm-none-eabi/9.3.1/../../../../arm-none-eabi/lib/thumb/v7e-m+dp/hard\libc.a(lib_a-reent.o)
 .debug_frame   0x000040b0       0xe8 c:/vsarm/armcc/bin/../lib/gcc/arm-none-eabi/9.3.1/../../../../arm-none-eabi/lib/thumb/v7e-m+dp/hard\libc.a(lib_a-vfiprintf.o)
 .debug_frame   0x00004198       0x3c c:/vsarm/armcc/bin/../lib/gcc/arm-none-eabi/9.3.1/../../../../arm-none-eabi/lib/thumb/v7e-m+dp/hard\libc.a(lib_a-wctomb_r.o)
 .debug_frame   0x000041d4       0x2c c:/vsarm/armcc/bin/../lib/gcc/arm-none-eabi/9.3.1/../../../../arm-none-eabi/lib/thumb/v7e-m+dp/hard\libc.a(lib_a-wsetup.o)
 .debug_frame   0x00004200       0x28 c:/vsarm/armcc/bin/../lib/gcc/arm-none-eabi/9.3.1/../../../../arm-none-eabi/lib/thumb/v7e-m+dp/hard\libc.a(lib_a-abort.o)
 .debug_frame   0x00004228       0x5c c:/vsarm/armcc/bin/../lib/gcc/arm-none-eabi/9.3.1/../../../../arm-none-eabi/lib/thumb/v7e-m+dp/hard\libc.a(lib_a-fflush.o)
 .debug_frame   0x00004284      0x14c c:/vsarm/armcc/bin/../lib/gcc/arm-none-eabi/9.3.1/../../../../arm-none-eabi/lib/thumb/v7e-m+dp/hard\libc.a(lib_a-findfp.o)
 .debug_frame   0x000043d0       0xa4 c:/vsarm/armcc/bin/../lib/gcc/arm-none-eabi/9.3.1/../../../../arm-none-eabi/lib/thumb/v7e-m+dp/hard\libc.a(lib_a-fputwc.o)
 .debug_frame   0x00004474       0x64 c:/vsarm/armcc/bin/../lib/gcc/arm-none-eabi/9.3.1/../../../../arm-none-eabi/lib/thumb/v7e-m+dp/hard\libc.a(lib_a-fvwrite.o)
 .debug_frame   0x000044d8       0x54 c:/vsarm/armcc/bin/../lib/gcc/arm-none-eabi/9.3.1/../../../../arm-none-eabi/lib/thumb/v7e-m+dp/hard\libc.a(lib_a-fwalk.o)
 .debug_frame   0x0000452c       0x6c c:/vsarm/armcc/bin/../lib/gcc/arm-none-eabi/9.3.1/../../../../arm-none-eabi/lib/thumb/v7e-m+dp/hard\libc.a(lib_a-makebuf.o)
 .debug_frame   0x00004598       0xe0 c:/vsarm/armcc/bin/../lib/gcc/arm-none-eabi/9.3.1/../../../../arm-none-eabi/lib/thumb/v7e-m+dp/hard\libc.a(lib_a-signal.o)
 .debug_frame   0x00004678       0x3c c:/vsarm/armcc/bin/../lib/gcc/arm-none-eabi/9.3.1/../../../../arm-none-eabi/lib/thumb/v7e-m+dp/hard\libc.a(lib_a-signalr.o)
 .debug_frame   0x000046b4       0x8c c:/vsarm/armcc/bin/../lib/gcc/arm-none-eabi/9.3.1/../../../../arm-none-eabi/lib/thumb/v7e-m+dp/hard\libc.a(lib_a-stdio.o)
 .debug_frame   0x00004740       0x40 c:/vsarm/armcc/bin/../lib/gcc/arm-none-eabi/9.3.1/../../../../arm-none-eabi/lib/thumb/v7e-m+dp/hard\libc.a(lib_a-wbuf.o)
 .debug_frame   0x00004780       0x60 c:/vsarm/armcc/bin/../lib/gcc/arm-none-eabi/9.3.1/../../../../arm-none-eabi/lib/thumb/v7e-m+dp/hard\libc.a(lib_a-wcrtomb.o)
 .debug_frame   0x000047e0       0x2c c:/vsarm/armcc/bin/../lib/gcc/arm-none-eabi/9.3.1/../../../../arm-none-eabi/lib/thumb/v7e-m+dp/hard\libc.a(lib_a-writer.o)
 .debug_frame   0x0000480c       0x2c c:/vsarm/armcc/bin/../lib/gcc/arm-none-eabi/9.3.1/../../../../arm-none-eabi/lib/thumb/v7e-m+dp/hard\libc.a(lib_a-closer.o)
 .debug_frame   0x00004838       0x3c c:/vsarm/armcc/bin/../lib/gcc/arm-none-eabi/9.3.1/../../../../arm-none-eabi/lib/thumb/v7e-m+dp/hard\libc.a(lib_a-fclose.o)
 .debug_frame   0x00004874       0x2c c:/vsarm/armcc/bin/../lib/gcc/arm-none-eabi/9.3.1/../../../../arm-none-eabi/lib/thumb/v7e-m+dp/hard\libc.a(lib_a-fstatr.o)
 .debug_frame   0x000048a0       0x2c c:/vsarm/armcc/bin/../lib/gcc/arm-none-eabi/9.3.1/../../../../arm-none-eabi/lib/thumb/v7e-m+dp/hard\libc.a(lib_a-isattyr.o)
 .debug_frame   0x000048cc       0x2c c:/vsarm/armcc/bin/../lib/gcc/arm-none-eabi/9.3.1/../../../../arm-none-eabi/lib/thumb/v7e-m+dp/hard\libc.a(lib_a-lseekr.o)
 .debug_frame   0x000048f8       0x2c c:/vsarm/armcc/bin/../lib/gcc/arm-none-eabi/9.3.1/../../../../arm-none-eabi/lib/thumb/v7e-m+dp/hard\libc.a(lib_a-readr.o)
 .debug_frame   0x00004924       0x20 c:/vsarm/armcc/bin/../lib/gcc/arm-none-eabi/9.3.1/../../../../arm-none-eabi/lib/thumb/v7e-m+dp/hard\libnosys.a(close.o)
 .debug_frame   0x00004944       0x20 c:/vsarm/armcc/bin/../lib/gcc/arm-none-eabi/9.3.1/../../../../arm-none-eabi/lib/thumb/v7e-m+dp/hard\libnosys.a(fstat.o)
 .debug_frame   0x00004964       0x20 c:/vsarm/armcc/bin/../lib/gcc/arm-none-eabi/9.3.1/../../../../arm-none-eabi/lib/thumb/v7e-m+dp/hard\libnosys.a(getpid.o)
 .debug_frame   0x00004984       0x20 c:/vsarm/armcc/bin/../lib/gcc/arm-none-eabi/9.3.1/../../../../arm-none-eabi/lib/thumb/v7e-m+dp/hard\libnosys.a(isatty.o)
 .debug_frame   0x000049a4       0x20 c:/vsarm/armcc/bin/../lib/gcc/arm-none-eabi/9.3.1/../../../../arm-none-eabi/lib/thumb/v7e-m+dp/hard\libnosys.a(kill.o)
 .debug_frame   0x000049c4       0x20 c:/vsarm/armcc/bin/../lib/gcc/arm-none-eabi/9.3.1/../../../../arm-none-eabi/lib/thumb/v7e-m+dp/hard\libnosys.a(lseek.o)
 .debug_frame   0x000049e4       0x20 c:/vsarm/armcc/bin/../lib/gcc/arm-none-eabi/9.3.1/../../../../arm-none-eabi/lib/thumb/v7e-m+dp/hard\libnosys.a(read.o)
 .debug_frame   0x00004a04       0x20 c:/vsarm/armcc/bin/../lib/gcc/arm-none-eabi/9.3.1/../../../../arm-none-eabi/lib/thumb/v7e-m+dp/hard\libnosys.a(sbrk.o)
 .debug_frame   0x00004a24       0x20 c:/vsarm/armcc/bin/../lib/gcc/arm-none-eabi/9.3.1/../../../../arm-none-eabi/lib/thumb/v7e-m+dp/hard\libnosys.a(write.o)
 .debug_frame   0x00004a44       0x20 c:/vsarm/armcc/bin/../lib/gcc/arm-none-eabi/9.3.1/../../../../arm-none-eabi/lib/thumb/v7e-m+dp/hard\libnosys.a(_exit.o)
 .debug_frame   0x00004a64       0x2c c:/vsarm/armcc/bin/../lib/gcc/arm-none-eabi/9.3.1/thumb/v7e-m+dp/hard\libgcc.a(_aeabi_uldivmod.o)
 .debug_frame   0x00004a90       0x34 c:/vsarm/armcc/bin/../lib/gcc/arm-none-eabi/9.3.1/thumb/v7e-m+dp/hard\libgcc.a(_udivmoddi4.o)

.stab           0x00000000       0xcc
 .stab          0x00000000       0x24 c:/vsarm/armcc/bin/../lib/gcc/arm-none-eabi/9.3.1/../../../../arm-none-eabi/lib/thumb/v7e-m+dp/hard\libnosys.a(close.o)
 .stab          0x00000024       0x18 c:/vsarm/armcc/bin/../lib/gcc/arm-none-eabi/9.3.1/../../../../arm-none-eabi/lib/thumb/v7e-m+dp/hard\libnosys.a(fstat.o)
                                 0x24 (size before relaxing)
 .stab          0x0000003c       0x18 c:/vsarm/armcc/bin/../lib/gcc/arm-none-eabi/9.3.1/../../../../arm-none-eabi/lib/thumb/v7e-m+dp/hard\libnosys.a(getpid.o)
                                 0x24 (size before relaxing)
 .stab          0x00000054       0x18 c:/vsarm/armcc/bin/../lib/gcc/arm-none-eabi/9.3.1/../../../../arm-none-eabi/lib/thumb/v7e-m+dp/hard\libnosys.a(isatty.o)
                                 0x24 (size before relaxing)
 .stab          0x0000006c       0x18 c:/vsarm/armcc/bin/../lib/gcc/arm-none-eabi/9.3.1/../../../../arm-none-eabi/lib/thumb/v7e-m+dp/hard\libnosys.a(kill.o)
                                 0x24 (size before relaxing)
 .stab          0x00000084       0x18 c:/vsarm/armcc/bin/../lib/gcc/arm-none-eabi/9.3.1/../../../../arm-none-eabi/lib/thumb/v7e-m+dp/hard\libnosys.a(lseek.o)
                                 0x24 (size before relaxing)
 .stab          0x0000009c       0x18 c:/vsarm/armcc/bin/../lib/gcc/arm-none-eabi/9.3.1/../../../../arm-none-eabi/lib/thumb/v7e-m+dp/hard\libnosys.a(read.o)
                                 0x24 (size before relaxing)
 .stab          0x000000b4       0x18 c:/vsarm/armcc/bin/../lib/gcc/arm-none-eabi/9.3.1/../../../../arm-none-eabi/lib/thumb/v7e-m+dp/hard\libnosys.a(write.o)
                                 0x24 (size before relaxing)

.stabstr        0x00000000      0x1b9
 .stabstr       0x00000000      0x1b9 c:/vsarm/armcc/bin/../lib/gcc/arm-none-eabi/9.3.1/../../../../arm-none-eabi/lib/thumb/v7e-m+dp/hard\libnosys.a(close.o)

Cross Reference Table

Symbol                                            File
ADC_IRQHandler                                    build/startup_stm32f767xx.o
AHBPrescTable                                     build/system_stm32f7xx.o
                                                  build/stm32f7xx_hal_rcc.o
AM2320_last                                       build/main.o
APBPrescTable                                     build/system_stm32f7xx.o
                                                  build/stm32f7xx_hal_rcc.o
BusFault_Handler                                  build/startup_stm32f767xx.o
CAN1_RX0_IRQHandler                               build/startup_stm32f767xx.o
CAN1_RX1_IRQHandler                               build/startup_stm32f767xx.o
CAN1_SCE_IRQHandler                               build/startup_stm32f767xx.o
CAN1_TX_IRQHandler                                build/startup_stm32f767xx.o
CAN2_RX0_IRQHandler                               build/startup_stm32f767xx.o
CAN2_RX1_IRQHandler                               build/startup_stm32f767xx.o
CAN2_SCE_IRQHandler                               build/startup_stm32f767xx.o
CAN2_TX_IRQHandler                                build/startup_stm32f767xx.o
CAN3_RX0_IRQHandler                               build/startup_stm32f767xx.o
CAN3_RX1_IRQHandler                               build/startup_stm32f767xx.o
CAN3_SCE_IRQHandler                               build/startup_stm32f767xx.o
CAN3_TX_IRQHandler                                build/startup_stm32f767xx.o
CEC_IRQHandler                                    build/startup_stm32f767xx.o
CRC16_2                                           build/main.o
DCMI_IRQHandler                                   build/startup_stm32f767xx.o
DFSDM1_FLT0_IRQHandler                            build/startup_stm32f767xx.o
DFSDM1_FLT1_IRQHandler                            build/startup_stm32f767xx.o
DFSDM1_FLT2_IRQHandler                            build/startup_stm32f767xx.o
DFSDM1_FLT3_IRQHandler                            build/startup_stm32f767xx.o
DMA1_Stream0_IRQHandler                           build/startup_stm32f767xx.o
DMA1_Stream1_IRQHandler                           build/startup_stm32f767xx.o
DMA1_Stream2_IRQHandler                           build/startup_stm32f767xx.o
DMA1_Stream3_IRQHandler                           build/startup_stm32f767xx.o
DMA1_Stream4_IRQHandler                           build/startup_stm32f767xx.o
DMA1_Stream5_IRQHandler                           build/startup_stm32f767xx.o
DMA1_Stream6_IRQHandler                           build/startup_stm32f767xx.o
DMA1_Stream7_IRQHandler                           build/startup_stm32f767xx.o
DMA2D_IRQHandler                                  build/startup_stm32f767xx.o
DMA2_Stream0_IRQHandler                           build/startup_stm32f767xx.o
DMA2_Stream1_IRQHandler                           build/startup_stm32f767xx.o
DMA2_Stream2_IRQHandler                           build/startup_stm32f767xx.o
DMA2_Stream3_IRQHandler                           build/startup_stm32f767xx.o
DMA2_Stream4_IRQHandler                           build/startup_stm32f767xx.o
DMA2_Stream5_IRQHandler                           build/startup_stm32f767xx.o
DMA2_Stream6_IRQHandler                           build/startup_stm32f767xx.o
DMA2_Stream7_IRQHandler                           build/startup_stm32f767xx.o
DebugMon_Handler                                  build/startup_stm32f767xx.o
Default_Handler                                   build/startup_stm32f767xx.o
ETH_IRQHandler                                    build/startup_stm32f767xx.o
ETH_WKUP_IRQHandler                               build/startup_stm32f767xx.o
EXTI0_IRQHandler                                  build/startup_stm32f767xx.o
EXTI15_10_IRQHandler                              build/startup_stm32f767xx.o
EXTI1_IRQHandler                                  build/startup_stm32f767xx.o
EXTI2_IRQHandler                                  build/startup_stm32f767xx.o
EXTI3_IRQHandler                                  build/startup_stm32f767xx.o
EXTI4_IRQHandler                                  build/startup_stm32f767xx.o
EXTI9_5_IRQHandler                                build/startup_stm32f767xx.o
Error_Handler                                     build/main.o
                                                  build/usart.o
                                                  build/tim.o
                                                  build/spi.o
                                                  build/rng.o
                                                  build/i2c.o
FLASH_Erase_Sector                                build/stm32f7xx_hal_flash_ex.o
                                                  build/stm32f7xx_hal_flash.o
FLASH_IRQHandler                                  build/startup_stm32f767xx.o
FLASH_WaitForLastOperation                        build/stm32f7xx_hal_flash.o
                                                  build/stm32f7xx_hal_flash_ex.o
FMC_IRQHandler                                    build/startup_stm32f767xx.o
FPU_IRQHandler                                    build/startup_stm32f767xx.o
HAL_DBGMCU_DisableDBGSleepMode                    build/stm32f7xx_hal.o
HAL_DBGMCU_DisableDBGStandbyMode                  build/stm32f7xx_hal.o
HAL_DBGMCU_DisableDBGStopMode                     build/stm32f7xx_hal.o
HAL_DBGMCU_EnableDBGSleepMode                     build/stm32f7xx_hal.o
HAL_DBGMCU_EnableDBGStandbyMode                   build/stm32f7xx_hal.o
HAL_DBGMCU_EnableDBGStopMode                      build/stm32f7xx_hal.o
HAL_DMAEx_ChangeMemory                            build/stm32f7xx_hal_dma_ex.o
HAL_DMAEx_MultiBufferStart                        build/stm32f7xx_hal_dma_ex.o
HAL_DMAEx_MultiBufferStart_IT                     build/stm32f7xx_hal_dma_ex.o
HAL_DMA_Abort                                     build/stm32f7xx_hal_dma.o
                                                  build/stm32f7xx_hal_uart.o
                                                  build/stm32f7xx_hal_spi.o
HAL_DMA_Abort_IT                                  build/stm32f7xx_hal_dma.o
                                                  build/stm32f7xx_hal_uart.o
                                                  build/stm32f7xx_hal_tim_ex.o
                                                  build/stm32f7xx_hal_tim.o
                                                  build/stm32f7xx_hal_spi.o
                                                  build/stm32f7xx_hal_i2c.o
HAL_DMA_DeInit                                    build/stm32f7xx_hal_dma.o
HAL_DMA_GetError                                  build/stm32f7xx_hal_dma.o
                                                  build/stm32f7xx_hal_uart.o
                                                  build/stm32f7xx_hal_i2c.o
HAL_DMA_GetState                                  build/stm32f7xx_hal_dma.o
HAL_DMA_IRQHandler                                build/stm32f7xx_hal_dma.o
HAL_DMA_Init                                      build/stm32f7xx_hal_dma.o
HAL_DMA_PollForTransfer                           build/stm32f7xx_hal_dma.o
HAL_DMA_RegisterCallback                          build/stm32f7xx_hal_dma.o
HAL_DMA_Start                                     build/stm32f7xx_hal_dma.o
HAL_DMA_Start_IT                                  build/stm32f7xx_hal_dma.o
                                                  build/stm32f7xx_hal_uart.o
                                                  build/stm32f7xx_hal_tim_ex.o
                                                  build/stm32f7xx_hal_tim.o
                                                  build/stm32f7xx_hal_spi.o
                                                  build/stm32f7xx_hal_i2c.o
HAL_DMA_UnRegisterCallback                        build/stm32f7xx_hal_dma.o
HAL_DeInit                                        build/stm32f7xx_hal.o
HAL_Delay                                         build/stm32f7xx_hal.o
                                                  build/main.o
                                                  build/ILI9341_STM32_Driver.o
HAL_DisableCompensationCell                       build/stm32f7xx_hal.o
HAL_DisableFMCMemorySwapping                      build/stm32f7xx_hal.o
HAL_DisableMemorySwappingBank                     build/stm32f7xx_hal.o
HAL_EXTI_ClearConfigLine                          build/stm32f7xx_hal_exti.o
HAL_EXTI_ClearPending                             build/stm32f7xx_hal_exti.o
HAL_EXTI_GenerateSWI                              build/stm32f7xx_hal_exti.o
HAL_EXTI_GetConfigLine                            build/stm32f7xx_hal_exti.o
HAL_EXTI_GetHandle                                build/stm32f7xx_hal_exti.o
HAL_EXTI_GetPending                               build/stm32f7xx_hal_exti.o
HAL_EXTI_IRQHandler                               build/stm32f7xx_hal_exti.o
HAL_EXTI_RegisterCallback                         build/stm32f7xx_hal_exti.o
HAL_EXTI_SetConfigLine                            build/stm32f7xx_hal_exti.o
HAL_EnableCompensationCell                        build/stm32f7xx_hal.o
HAL_EnableFMCMemorySwapping                       build/stm32f7xx_hal.o
HAL_EnableMemorySwappingBank                      build/stm32f7xx_hal.o
HAL_FLASHEx_Erase                                 build/stm32f7xx_hal_flash_ex.o
HAL_FLASHEx_Erase_IT                              build/stm32f7xx_hal_flash_ex.o
HAL_FLASHEx_OBGetConfig                           build/stm32f7xx_hal_flash_ex.o
HAL_FLASHEx_OBProgram                             build/stm32f7xx_hal_flash_ex.o
HAL_FLASH_EndOfOperationCallback                  build/stm32f7xx_hal_flash.o
HAL_FLASH_GetError                                build/stm32f7xx_hal_flash.o
HAL_FLASH_IRQHandler                              build/stm32f7xx_hal_flash.o
HAL_FLASH_Lock                                    build/stm32f7xx_hal_flash.o
HAL_FLASH_OB_Launch                               build/stm32f7xx_hal_flash.o
HAL_FLASH_OB_Lock                                 build/stm32f7xx_hal_flash.o
HAL_FLASH_OB_Unlock                               build/stm32f7xx_hal_flash.o
HAL_FLASH_OperationErrorCallback                  build/stm32f7xx_hal_flash.o
HAL_FLASH_Program                                 build/stm32f7xx_hal_flash.o
HAL_FLASH_Program_IT                              build/stm32f7xx_hal_flash.o
HAL_FLASH_Unlock                                  build/stm32f7xx_hal_flash.o
HAL_GPIO_DeInit                                   build/stm32f7xx_hal_gpio.o
                                                  build/usart.o
                                                  build/spi.o
                                                  build/i2c.o
HAL_GPIO_EXTI_Callback                            build/stm32f7xx_hal_gpio.o
HAL_GPIO_EXTI_IRQHandler                          build/stm32f7xx_hal_gpio.o
HAL_GPIO_Init                                     build/stm32f7xx_hal_gpio.o
                                                  build/usart.o
                                                  build/spi.o
                                                  build/i2c.o
                                                  build/gpio.o
                                                  build/stm32f7xx_hal_rcc.o
HAL_GPIO_LockPin                                  build/stm32f7xx_hal_gpio.o
HAL_GPIO_ReadPin                                  build/stm32f7xx_hal_gpio.o
                                                  build/ILI9341_Touchscreen.o
HAL_GPIO_TogglePin                                build/stm32f7xx_hal_gpio.o
                                                  build/main.o
HAL_GPIO_WritePin                                 build/stm32f7xx_hal_gpio.o
                                                  build/main.o
                                                  build/gpio.o
                                                  build/ILI9341_Touchscreen.o
                                                  build/ILI9341_STM32_Driver.o
                                                  build/ILI9341_GFX.o
HAL_GetDEVID                                      build/stm32f7xx_hal.o
HAL_GetHalVersion                                 build/stm32f7xx_hal.o
HAL_GetREVID                                      build/stm32f7xx_hal.o
HAL_GetTick                                       build/stm32f7xx_hal.o
                                                  build/stm32f7xx_hal_uart.o
                                                  build/stm32f7xx_hal_spi.o
                                                  build/stm32f7xx_hal_rng.o
                                                  build/stm32f7xx_hal_rcc_ex.o
                                                  build/stm32f7xx_hal_rcc.o
                                                  build/stm32f7xx_hal_pwr_ex.o
                                                  build/stm32f7xx_hal_i2c.o
                                                  build/stm32f7xx_hal_flash.o
                                                  build/stm32f7xx_hal_dma.o
HAL_GetTickFreq                                   build/stm32f7xx_hal.o
HAL_GetTickPrio                                   build/stm32f7xx_hal.o
HAL_GetUIDw0                                      build/stm32f7xx_hal.o
HAL_GetUIDw1                                      build/stm32f7xx_hal.o
HAL_GetUIDw2                                      build/stm32f7xx_hal.o
HAL_HalfDuplex_EnableReceiver                     build/stm32f7xx_hal_uart.o
HAL_HalfDuplex_EnableTransmitter                  build/stm32f7xx_hal_uart.o
HAL_HalfDuplex_Init                               build/stm32f7xx_hal_uart.o
HAL_I2CEx_ConfigAnalogFilter                      build/stm32f7xx_hal_i2c_ex.o
                                                  build/i2c.o
HAL_I2CEx_ConfigDigitalFilter                     build/stm32f7xx_hal_i2c_ex.o
                                                  build/i2c.o
HAL_I2CEx_DisableFastModePlus                     build/stm32f7xx_hal_i2c_ex.o
HAL_I2CEx_EnableFastModePlus                      build/stm32f7xx_hal_i2c_ex.o
HAL_I2C_AbortCpltCallback                         build/stm32f7xx_hal_i2c.o
HAL_I2C_AddrCallback                              build/stm32f7xx_hal_i2c.o
HAL_I2C_DeInit                                    build/stm32f7xx_hal_i2c.o
HAL_I2C_DisableListen_IT                          build/stm32f7xx_hal_i2c.o
HAL_I2C_ER_IRQHandler                             build/stm32f7xx_hal_i2c.o
HAL_I2C_EV_IRQHandler                             build/stm32f7xx_hal_i2c.o
HAL_I2C_EnableListen_IT                           build/stm32f7xx_hal_i2c.o
HAL_I2C_ErrorCallback                             build/stm32f7xx_hal_i2c.o
HAL_I2C_GetError                                  build/stm32f7xx_hal_i2c.o
HAL_I2C_GetMode                                   build/stm32f7xx_hal_i2c.o
HAL_I2C_GetState                                  build/stm32f7xx_hal_i2c.o
HAL_I2C_Init                                      build/stm32f7xx_hal_i2c.o
                                                  build/i2c.o
HAL_I2C_IsDeviceReady                             build/stm32f7xx_hal_i2c.o
HAL_I2C_ListenCpltCallback                        build/stm32f7xx_hal_i2c.o
HAL_I2C_MasterRxCpltCallback                      build/stm32f7xx_hal_i2c.o
HAL_I2C_MasterTxCpltCallback                      build/stm32f7xx_hal_i2c.o
HAL_I2C_Master_Abort_IT                           build/stm32f7xx_hal_i2c.o
HAL_I2C_Master_Receive                            build/stm32f7xx_hal_i2c.o
                                                  build/main.o
HAL_I2C_Master_Receive_DMA                        build/stm32f7xx_hal_i2c.o
HAL_I2C_Master_Receive_IT                         build/stm32f7xx_hal_i2c.o
HAL_I2C_Master_Seq_Receive_DMA                    build/stm32f7xx_hal_i2c.o
HAL_I2C_Master_Seq_Receive_IT                     build/stm32f7xx_hal_i2c.o
HAL_I2C_Master_Seq_Transmit_DMA                   build/stm32f7xx_hal_i2c.o
HAL_I2C_Master_Seq_Transmit_IT                    build/stm32f7xx_hal_i2c.o
HAL_I2C_Master_Transmit                           build/stm32f7xx_hal_i2c.o
                                                  build/main.o
HAL_I2C_Master_Transmit_DMA                       build/stm32f7xx_hal_i2c.o
HAL_I2C_Master_Transmit_IT                        build/stm32f7xx_hal_i2c.o
HAL_I2C_MemRxCpltCallback                         build/stm32f7xx_hal_i2c.o
HAL_I2C_MemTxCpltCallback                         build/stm32f7xx_hal_i2c.o
HAL_I2C_Mem_Read                                  build/stm32f7xx_hal_i2c.o
HAL_I2C_Mem_Read_DMA                              build/stm32f7xx_hal_i2c.o
HAL_I2C_Mem_Read_IT                               build/stm32f7xx_hal_i2c.o
HAL_I2C_Mem_Write                                 build/stm32f7xx_hal_i2c.o
HAL_I2C_Mem_Write_DMA                             build/stm32f7xx_hal_i2c.o
HAL_I2C_Mem_Write_IT                              build/stm32f7xx_hal_i2c.o
HAL_I2C_MspDeInit                                 build/i2c.o
                                                  build/stm32f7xx_hal_i2c.o
HAL_I2C_MspInit                                   build/i2c.o
                                                  build/stm32f7xx_hal_i2c.o
HAL_I2C_SlaveRxCpltCallback                       build/stm32f7xx_hal_i2c.o
HAL_I2C_SlaveTxCpltCallback                       build/stm32f7xx_hal_i2c.o
HAL_I2C_Slave_Receive                             build/stm32f7xx_hal_i2c.o
HAL_I2C_Slave_Receive_DMA                         build/stm32f7xx_hal_i2c.o
HAL_I2C_Slave_Receive_IT                          build/stm32f7xx_hal_i2c.o
HAL_I2C_Slave_Seq_Receive_DMA                     build/stm32f7xx_hal_i2c.o
HAL_I2C_Slave_Seq_Receive_IT                      build/stm32f7xx_hal_i2c.o
HAL_I2C_Slave_Seq_Transmit_DMA                    build/stm32f7xx_hal_i2c.o
HAL_I2C_Slave_Seq_Transmit_IT                     build/stm32f7xx_hal_i2c.o
HAL_I2C_Slave_Transmit                            build/stm32f7xx_hal_i2c.o
HAL_I2C_Slave_Transmit_DMA                        build/stm32f7xx_hal_i2c.o
HAL_I2C_Slave_Transmit_IT                         build/stm32f7xx_hal_i2c.o
HAL_IncTick                                       build/stm32f7xx_hal.o
                                                  build/stm32f7xx_it.o
HAL_Init                                          build/stm32f7xx_hal.o
                                                  build/main.o
HAL_InitTick                                      build/stm32f7xx_hal.o
                                                  build/stm32f7xx_hal_rcc.o
HAL_LIN_Init                                      build/stm32f7xx_hal_uart.o
HAL_LIN_SendBreak                                 build/stm32f7xx_hal_uart.o
HAL_MPU_ConfigRegion                              build/stm32f7xx_hal_cortex.o
HAL_MPU_Disable                                   build/stm32f7xx_hal_cortex.o
HAL_MPU_Enable                                    build/stm32f7xx_hal_cortex.o
HAL_MspDeInit                                     build/stm32f7xx_hal.o
HAL_MspInit                                       build/stm32f7xx_hal_msp.o
                                                  build/stm32f7xx_hal.o
HAL_MultiProcessorEx_AddressLength_Set            build/stm32f7xx_hal_uart_ex.o
HAL_MultiProcessor_DisableMuteMode                build/stm32f7xx_hal_uart.o
HAL_MultiProcessor_EnableMuteMode                 build/stm32f7xx_hal_uart.o
HAL_MultiProcessor_EnterMuteMode                  build/stm32f7xx_hal_uart.o
HAL_MultiProcessor_Init                           build/stm32f7xx_hal_uart.o
HAL_NVIC_ClearPendingIRQ                          build/stm32f7xx_hal_cortex.o
HAL_NVIC_DisableIRQ                               build/stm32f7xx_hal_cortex.o
                                                  build/tim.o
HAL_NVIC_EnableIRQ                                build/stm32f7xx_hal_cortex.o
                                                  build/tim.o
HAL_NVIC_GetActive                                build/stm32f7xx_hal_cortex.o
HAL_NVIC_GetPendingIRQ                            build/stm32f7xx_hal_cortex.o
HAL_NVIC_GetPriority                              build/stm32f7xx_hal_cortex.o
HAL_NVIC_GetPriorityGrouping                      build/stm32f7xx_hal_cortex.o
HAL_NVIC_SetPendingIRQ                            build/stm32f7xx_hal_cortex.o
HAL_NVIC_SetPriority                              build/stm32f7xx_hal_cortex.o
                                                  build/tim.o
                                                  build/stm32f7xx_hal.o
HAL_NVIC_SetPriorityGrouping                      build/stm32f7xx_hal_cortex.o
                                                  build/stm32f7xx_hal.o
HAL_NVIC_SystemReset                              build/stm32f7xx_hal_cortex.o
HAL_PWREx_ControlVoltageScaling                   build/stm32f7xx_hal_pwr_ex.o
HAL_PWREx_DisableBkUpReg                          build/stm32f7xx_hal_pwr_ex.o
HAL_PWREx_DisableFlashPowerDown                   build/stm32f7xx_hal_pwr_ex.o
HAL_PWREx_DisableLowRegulatorLowVoltage           build/stm32f7xx_hal_pwr_ex.o
HAL_PWREx_DisableMainRegulatorLowVoltage          build/stm32f7xx_hal_pwr_ex.o
HAL_PWREx_DisableOverDrive                        build/stm32f7xx_hal_pwr_ex.o
HAL_PWREx_EnableBkUpReg                           build/stm32f7xx_hal_pwr_ex.o
HAL_PWREx_EnableFlashPowerDown                    build/stm32f7xx_hal_pwr_ex.o
HAL_PWREx_EnableLowRegulatorLowVoltage            build/stm32f7xx_hal_pwr_ex.o
HAL_PWREx_EnableMainRegulatorLowVoltage           build/stm32f7xx_hal_pwr_ex.o
HAL_PWREx_EnableOverDrive                         build/stm32f7xx_hal_pwr_ex.o
                                                  build/main.o
HAL_PWREx_EnterUnderDriveSTOPMode                 build/stm32f7xx_hal_pwr_ex.o
HAL_PWREx_GetVoltageRange                         build/stm32f7xx_hal_pwr_ex.o
HAL_PWR_ConfigPVD                                 build/stm32f7xx_hal_pwr.o
HAL_PWR_DeInit                                    build/stm32f7xx_hal_pwr.o
HAL_PWR_DisableBkUpAccess                         build/stm32f7xx_hal_pwr.o
HAL_PWR_DisablePVD                                build/stm32f7xx_hal_pwr.o
HAL_PWR_DisableSEVOnPend                          build/stm32f7xx_hal_pwr.o
HAL_PWR_DisableSleepOnExit                        build/stm32f7xx_hal_pwr.o
HAL_PWR_DisableWakeUpPin                          build/stm32f7xx_hal_pwr.o
HAL_PWR_EnableBkUpAccess                          build/stm32f7xx_hal_pwr.o
                                                  build/main.o
HAL_PWR_EnablePVD                                 build/stm32f7xx_hal_pwr.o
HAL_PWR_EnableSEVOnPend                           build/stm32f7xx_hal_pwr.o
HAL_PWR_EnableSleepOnExit                         build/stm32f7xx_hal_pwr.o
HAL_PWR_EnableWakeUpPin                           build/stm32f7xx_hal_pwr.o
HAL_PWR_EnterSLEEPMode                            build/stm32f7xx_hal_pwr.o
HAL_PWR_EnterSTANDBYMode                          build/stm32f7xx_hal_pwr.o
HAL_PWR_EnterSTOPMode                             build/stm32f7xx_hal_pwr.o
HAL_PWR_PVDCallback                               build/stm32f7xx_hal_pwr.o
HAL_PWR_PVD_IRQHandler                            build/stm32f7xx_hal_pwr.o
HAL_RCCEx_DisablePLLI2S                           build/stm32f7xx_hal_rcc_ex.o
HAL_RCCEx_DisablePLLSAI                           build/stm32f7xx_hal_rcc_ex.o
HAL_RCCEx_EnablePLLI2S                            build/stm32f7xx_hal_rcc_ex.o
HAL_RCCEx_EnablePLLSAI                            build/stm32f7xx_hal_rcc_ex.o
HAL_RCCEx_GetPeriphCLKConfig                      build/stm32f7xx_hal_rcc_ex.o
HAL_RCCEx_GetPeriphCLKFreq                        build/stm32f7xx_hal_rcc_ex.o
HAL_RCCEx_PeriphCLKConfig                         build/stm32f7xx_hal_rcc_ex.o
                                                  build/main.o
HAL_RCC_CSSCallback                               build/stm32f7xx_hal_rcc.o
HAL_RCC_ClockConfig                               build/stm32f7xx_hal_rcc.o
                                                  build/main.o
HAL_RCC_DeInit                                    build/stm32f7xx_hal_rcc.o
HAL_RCC_DisableCSS                                build/stm32f7xx_hal_rcc.o
HAL_RCC_EnableCSS                                 build/stm32f7xx_hal_rcc.o
HAL_RCC_GetClockConfig                            build/stm32f7xx_hal_rcc.o
HAL_RCC_GetHCLKFreq                               build/stm32f7xx_hal_rcc.o
HAL_RCC_GetOscConfig                              build/stm32f7xx_hal_rcc.o
HAL_RCC_GetPCLK1Freq                              build/stm32f7xx_hal_rcc.o
                                                  build/stm32f7xx_hal_uart.o
HAL_RCC_GetPCLK2Freq                              build/stm32f7xx_hal_rcc.o
                                                  build/stm32f7xx_hal_uart.o
HAL_RCC_GetSysClockFreq                           build/stm32f7xx_hal_rcc.o
                                                  build/stm32f7xx_hal_uart.o
HAL_RCC_MCOConfig                                 build/stm32f7xx_hal_rcc.o
HAL_RCC_NMI_IRQHandler                            build/stm32f7xx_hal_rcc.o
HAL_RCC_OscConfig                                 build/stm32f7xx_hal_rcc.o
                                                  build/main.o
HAL_RNG_DeInit                                    build/stm32f7xx_hal_rng.o
HAL_RNG_ErrorCallback                             build/stm32f7xx_hal_rng.o
HAL_RNG_GenerateRandomNumber                      build/stm32f7xx_hal_rng.o
HAL_RNG_GenerateRandomNumber_IT                   build/stm32f7xx_hal_rng.o
HAL_RNG_GetError                                  build/stm32f7xx_hal_rng.o
HAL_RNG_GetRandomNumber                           build/stm32f7xx_hal_rng.o
HAL_RNG_GetRandomNumber_IT                        build/stm32f7xx_hal_rng.o
HAL_RNG_GetState                                  build/stm32f7xx_hal_rng.o
HAL_RNG_IRQHandler                                build/stm32f7xx_hal_rng.o
HAL_RNG_Init                                      build/stm32f7xx_hal_rng.o
                                                  build/rng.o
HAL_RNG_MspDeInit                                 build/rng.o
                                                  build/stm32f7xx_hal_rng.o
HAL_RNG_MspInit                                   build/rng.o
                                                  build/stm32f7xx_hal_rng.o
HAL_RNG_ReadLastRandomNumber                      build/stm32f7xx_hal_rng.o
HAL_RNG_ReadyDataCallback                         build/stm32f7xx_hal_rng.o
HAL_RS485Ex_Init                                  build/stm32f7xx_hal_uart_ex.o
HAL_ResumeTick                                    build/stm32f7xx_hal.o
HAL_SPIEx_FlushRxFifo                             build/stm32f7xx_hal_spi_ex.o
HAL_SPI_Abort                                     build/stm32f7xx_hal_spi.o
HAL_SPI_AbortCpltCallback                         build/stm32f7xx_hal_spi.o
HAL_SPI_Abort_IT                                  build/stm32f7xx_hal_spi.o
HAL_SPI_DMAPause                                  build/stm32f7xx_hal_spi.o
HAL_SPI_DMAResume                                 build/stm32f7xx_hal_spi.o
HAL_SPI_DMAStop                                   build/stm32f7xx_hal_spi.o
HAL_SPI_DeInit                                    build/stm32f7xx_hal_spi.o
HAL_SPI_ErrorCallback                             build/stm32f7xx_hal_spi.o
HAL_SPI_GetError                                  build/stm32f7xx_hal_spi.o
HAL_SPI_GetState                                  build/stm32f7xx_hal_spi.o
HAL_SPI_IRQHandler                                build/stm32f7xx_hal_spi.o
HAL_SPI_Init                                      build/stm32f7xx_hal_spi.o
                                                  build/spi.o
HAL_SPI_MspDeInit                                 build/spi.o
                                                  build/stm32f7xx_hal_spi.o
HAL_SPI_MspInit                                   build/spi.o
                                                  build/stm32f7xx_hal_spi.o
HAL_SPI_Receive                                   build/stm32f7xx_hal_spi.o
HAL_SPI_Receive_DMA                               build/stm32f7xx_hal_spi.o
HAL_SPI_Receive_IT                                build/stm32f7xx_hal_spi.o
HAL_SPI_RxCpltCallback                            build/stm32f7xx_hal_spi.o
HAL_SPI_RxHalfCpltCallback                        build/stm32f7xx_hal_spi.o
HAL_SPI_Transmit                                  build/stm32f7xx_hal_spi.o
                                                  build/ILI9341_STM32_Driver.o
                                                  build/ILI9341_GFX.o
HAL_SPI_TransmitReceive                           build/stm32f7xx_hal_spi.o
HAL_SPI_TransmitReceive_DMA                       build/stm32f7xx_hal_spi.o
HAL_SPI_TransmitReceive_IT                        build/stm32f7xx_hal_spi.o
HAL_SPI_Transmit_DMA                              build/stm32f7xx_hal_spi.o
HAL_SPI_Transmit_IT                               build/stm32f7xx_hal_spi.o
HAL_SPI_TxCpltCallback                            build/stm32f7xx_hal_spi.o
HAL_SPI_TxHalfCpltCallback                        build/stm32f7xx_hal_spi.o
HAL_SPI_TxRxCpltCallback                          build/stm32f7xx_hal_spi.o
HAL_SPI_TxRxHalfCpltCallback                      build/stm32f7xx_hal_spi.o
HAL_SYSTICK_CLKSourceConfig                       build/stm32f7xx_hal_cortex.o
HAL_SYSTICK_Callback                              build/stm32f7xx_hal_cortex.o
HAL_SYSTICK_Config                                build/stm32f7xx_hal_cortex.o
                                                  build/stm32f7xx_hal.o
HAL_SYSTICK_IRQHandler                            build/stm32f7xx_hal_cortex.o
HAL_SetTickFreq                                   build/stm32f7xx_hal.o
HAL_SuspendTick                                   build/stm32f7xx_hal.o
HAL_TIMEx_Break2Callback                          build/stm32f7xx_hal_tim_ex.o
                                                  build/stm32f7xx_hal_tim.o
HAL_TIMEx_BreakCallback                           build/stm32f7xx_hal_tim_ex.o
                                                  build/stm32f7xx_hal_tim.o
HAL_TIMEx_CommutCallback                          build/stm32f7xx_hal_tim_ex.o
                                                  build/stm32f7xx_hal_tim.o
HAL_TIMEx_CommutHalfCpltCallback                  build/stm32f7xx_hal_tim_ex.o
HAL_TIMEx_ConfigBreakDeadTime                     build/stm32f7xx_hal_tim_ex.o
HAL_TIMEx_ConfigBreakInput                        build/stm32f7xx_hal_tim_ex.o
HAL_TIMEx_ConfigCommutEvent                       build/stm32f7xx_hal_tim_ex.o
HAL_TIMEx_ConfigCommutEvent_DMA                   build/stm32f7xx_hal_tim_ex.o
HAL_TIMEx_ConfigCommutEvent_IT                    build/stm32f7xx_hal_tim_ex.o
HAL_TIMEx_GroupChannel5                           build/stm32f7xx_hal_tim_ex.o
HAL_TIMEx_HallSensor_DeInit                       build/stm32f7xx_hal_tim_ex.o
HAL_TIMEx_HallSensor_GetState                     build/stm32f7xx_hal_tim_ex.o
HAL_TIMEx_HallSensor_Init                         build/stm32f7xx_hal_tim_ex.o
HAL_TIMEx_HallSensor_MspDeInit                    build/stm32f7xx_hal_tim_ex.o
HAL_TIMEx_HallSensor_MspInit                      build/stm32f7xx_hal_tim_ex.o
HAL_TIMEx_HallSensor_Start                        build/stm32f7xx_hal_tim_ex.o
HAL_TIMEx_HallSensor_Start_DMA                    build/stm32f7xx_hal_tim_ex.o
HAL_TIMEx_HallSensor_Start_IT                     build/stm32f7xx_hal_tim_ex.o
HAL_TIMEx_HallSensor_Stop                         build/stm32f7xx_hal_tim_ex.o
HAL_TIMEx_HallSensor_Stop_DMA                     build/stm32f7xx_hal_tim_ex.o
HAL_TIMEx_HallSensor_Stop_IT                      build/stm32f7xx_hal_tim_ex.o
HAL_TIMEx_MasterConfigSynchronization             build/stm32f7xx_hal_tim_ex.o
                                                  build/tim.o
HAL_TIMEx_OCN_Start                               build/stm32f7xx_hal_tim_ex.o
HAL_TIMEx_OCN_Start_DMA                           build/stm32f7xx_hal_tim_ex.o
HAL_TIMEx_OCN_Start_IT                            build/stm32f7xx_hal_tim_ex.o
HAL_TIMEx_OCN_Stop                                build/stm32f7xx_hal_tim_ex.o
HAL_TIMEx_OCN_Stop_DMA                            build/stm32f7xx_hal_tim_ex.o
HAL_TIMEx_OCN_Stop_IT                             build/stm32f7xx_hal_tim_ex.o
HAL_TIMEx_OnePulseN_Start                         build/stm32f7xx_hal_tim_ex.o
HAL_TIMEx_OnePulseN_Start_IT                      build/stm32f7xx_hal_tim_ex.o
HAL_TIMEx_OnePulseN_Stop                          build/stm32f7xx_hal_tim_ex.o
HAL_TIMEx_OnePulseN_Stop_IT                       build/stm32f7xx_hal_tim_ex.o
HAL_TIMEx_PWMN_Start                              build/stm32f7xx_hal_tim_ex.o
HAL_TIMEx_PWMN_Start_DMA                          build/stm32f7xx_hal_tim_ex.o
HAL_TIMEx_PWMN_Start_IT                           build/stm32f7xx_hal_tim_ex.o
HAL_TIMEx_PWMN_Stop                               build/stm32f7xx_hal_tim_ex.o
HAL_TIMEx_PWMN_Stop_DMA                           build/stm32f7xx_hal_tim_ex.o
HAL_TIMEx_PWMN_Stop_IT                            build/stm32f7xx_hal_tim_ex.o
HAL_TIMEx_RemapConfig                             build/stm32f7xx_hal_tim_ex.o
HAL_TIM_Base_DeInit                               build/stm32f7xx_hal_tim.o
HAL_TIM_Base_GetState                             build/stm32f7xx_hal_tim.o
HAL_TIM_Base_Init                                 build/stm32f7xx_hal_tim.o
                                                  build/tim.o
HAL_TIM_Base_MspDeInit                            build/tim.o
                                                  build/stm32f7xx_hal_tim.o
HAL_TIM_Base_MspInit                              build/tim.o
                                                  build/stm32f7xx_hal_tim.o
HAL_TIM_Base_Start                                build/stm32f7xx_hal_tim.o
HAL_TIM_Base_Start_DMA                            build/stm32f7xx_hal_tim.o
HAL_TIM_Base_Start_IT                             build/stm32f7xx_hal_tim.o
                                                  build/main.o
HAL_TIM_Base_Stop                                 build/stm32f7xx_hal_tim.o
HAL_TIM_Base_Stop_DMA                             build/stm32f7xx_hal_tim.o
HAL_TIM_Base_Stop_IT                              build/stm32f7xx_hal_tim.o
HAL_TIM_ConfigClockSource                         build/stm32f7xx_hal_tim.o
                                                  build/tim.o
HAL_TIM_ConfigOCrefClear                          build/stm32f7xx_hal_tim.o
HAL_TIM_ConfigTI1Input                            build/stm32f7xx_hal_tim.o
HAL_TIM_DMABurst_ReadStart                        build/stm32f7xx_hal_tim.o
HAL_TIM_DMABurst_ReadStop                         build/stm32f7xx_hal_tim.o
HAL_TIM_DMABurst_WriteStart                       build/stm32f7xx_hal_tim.o
HAL_TIM_DMABurst_WriteStop                        build/stm32f7xx_hal_tim.o
HAL_TIM_Encoder_DeInit                            build/stm32f7xx_hal_tim.o
HAL_TIM_Encoder_GetState                          build/stm32f7xx_hal_tim.o
HAL_TIM_Encoder_Init                              build/stm32f7xx_hal_tim.o
HAL_TIM_Encoder_MspDeInit                         build/stm32f7xx_hal_tim.o
HAL_TIM_Encoder_MspInit                           build/stm32f7xx_hal_tim.o
HAL_TIM_Encoder_Start                             build/stm32f7xx_hal_tim.o
HAL_TIM_Encoder_Start_DMA                         build/stm32f7xx_hal_tim.o
HAL_TIM_Encoder_Start_IT                          build/stm32f7xx_hal_tim.o
HAL_TIM_Encoder_Stop                              build/stm32f7xx_hal_tim.o
HAL_TIM_Encoder_Stop_DMA                          build/stm32f7xx_hal_tim.o
HAL_TIM_Encoder_Stop_IT                           build/stm32f7xx_hal_tim.o
HAL_TIM_ErrorCallback                             build/stm32f7xx_hal_tim.o
HAL_TIM_GenerateEvent                             build/stm32f7xx_hal_tim.o
HAL_TIM_IC_CaptureCallback                        build/stm32f7xx_hal_tim.o
HAL_TIM_IC_CaptureHalfCpltCallback                build/stm32f7xx_hal_tim.o
HAL_TIM_IC_ConfigChannel                          build/stm32f7xx_hal_tim.o
HAL_TIM_IC_DeInit                                 build/stm32f7xx_hal_tim.o
HAL_TIM_IC_GetState                               build/stm32f7xx_hal_tim.o
HAL_TIM_IC_Init                                   build/stm32f7xx_hal_tim.o
HAL_TIM_IC_MspDeInit                              build/stm32f7xx_hal_tim.o
HAL_TIM_IC_MspInit                                build/stm32f7xx_hal_tim.o
HAL_TIM_IC_Start                                  build/stm32f7xx_hal_tim.o
HAL_TIM_IC_Start_DMA                              build/stm32f7xx_hal_tim.o
HAL_TIM_IC_Start_IT                               build/stm32f7xx_hal_tim.o
HAL_TIM_IC_Stop                                   build/stm32f7xx_hal_tim.o
HAL_TIM_IC_Stop_DMA                               build/stm32f7xx_hal_tim.o
HAL_TIM_IC_Stop_IT                                build/stm32f7xx_hal_tim.o
HAL_TIM_IRQHandler                                build/stm32f7xx_hal_tim.o
                                                  build/stm32f7xx_it.o
HAL_TIM_OC_ConfigChannel                          build/stm32f7xx_hal_tim.o
HAL_TIM_OC_DeInit                                 build/stm32f7xx_hal_tim.o
HAL_TIM_OC_DelayElapsedCallback                   build/stm32f7xx_hal_tim.o
HAL_TIM_OC_GetState                               build/stm32f7xx_hal_tim.o
HAL_TIM_OC_Init                                   build/stm32f7xx_hal_tim.o
HAL_TIM_OC_MspDeInit                              build/stm32f7xx_hal_tim.o
HAL_TIM_OC_MspInit                                build/stm32f7xx_hal_tim.o
HAL_TIM_OC_Start                                  build/stm32f7xx_hal_tim.o
HAL_TIM_OC_Start_DMA                              build/stm32f7xx_hal_tim.o
HAL_TIM_OC_Start_IT                               build/stm32f7xx_hal_tim.o
HAL_TIM_OC_Stop                                   build/stm32f7xx_hal_tim.o
HAL_TIM_OC_Stop_DMA                               build/stm32f7xx_hal_tim.o
HAL_TIM_OC_Stop_IT                                build/stm32f7xx_hal_tim.o
HAL_TIM_OnePulse_ConfigChannel                    build/stm32f7xx_hal_tim.o
HAL_TIM_OnePulse_DeInit                           build/stm32f7xx_hal_tim.o
HAL_TIM_OnePulse_GetState                         build/stm32f7xx_hal_tim.o
HAL_TIM_OnePulse_Init                             build/stm32f7xx_hal_tim.o
HAL_TIM_OnePulse_MspDeInit                        build/stm32f7xx_hal_tim.o
HAL_TIM_OnePulse_MspInit                          build/stm32f7xx_hal_tim.o
HAL_TIM_OnePulse_Start                            build/stm32f7xx_hal_tim.o
HAL_TIM_OnePulse_Start_IT                         build/stm32f7xx_hal_tim.o
HAL_TIM_OnePulse_Stop                             build/stm32f7xx_hal_tim.o
HAL_TIM_OnePulse_Stop_IT                          build/stm32f7xx_hal_tim.o
HAL_TIM_PWM_ConfigChannel                         build/stm32f7xx_hal_tim.o
HAL_TIM_PWM_DeInit                                build/stm32f7xx_hal_tim.o
HAL_TIM_PWM_GetState                              build/stm32f7xx_hal_tim.o
HAL_TIM_PWM_Init                                  build/stm32f7xx_hal_tim.o
HAL_TIM_PWM_MspDeInit                             build/stm32f7xx_hal_tim.o
HAL_TIM_PWM_MspInit                               build/stm32f7xx_hal_tim.o
HAL_TIM_PWM_PulseFinishedCallback                 build/stm32f7xx_hal_tim.o
HAL_TIM_PWM_PulseFinishedHalfCpltCallback         build/stm32f7xx_hal_tim.o
HAL_TIM_PWM_Start                                 build/stm32f7xx_hal_tim.o
HAL_TIM_PWM_Start_DMA                             build/stm32f7xx_hal_tim.o
HAL_TIM_PWM_Start_IT                              build/stm32f7xx_hal_tim.o
HAL_TIM_PWM_Stop                                  build/stm32f7xx_hal_tim.o
HAL_TIM_PWM_Stop_DMA                              build/stm32f7xx_hal_tim.o
HAL_TIM_PWM_Stop_IT                               build/stm32f7xx_hal_tim.o
HAL_TIM_PeriodElapsedCallback                     build/stm32f7xx_hal_tim.o
HAL_TIM_PeriodElapsedHalfCpltCallback             build/stm32f7xx_hal_tim.o
HAL_TIM_ReadCapturedValue                         build/stm32f7xx_hal_tim.o
HAL_TIM_SlaveConfigSynchro                        build/stm32f7xx_hal_tim.o
HAL_TIM_SlaveConfigSynchro_IT                     build/stm32f7xx_hal_tim.o
HAL_TIM_TriggerCallback                           build/stm32f7xx_hal_tim.o
HAL_TIM_TriggerHalfCpltCallback                   build/stm32f7xx_hal_tim.o
HAL_UART_Abort                                    build/stm32f7xx_hal_uart.o
HAL_UART_AbortCpltCallback                        build/stm32f7xx_hal_uart.o
HAL_UART_AbortReceive                             build/stm32f7xx_hal_uart.o
HAL_UART_AbortReceiveCpltCallback                 build/stm32f7xx_hal_uart.o
HAL_UART_AbortReceive_IT                          build/stm32f7xx_hal_uart.o
HAL_UART_AbortTransmit                            build/stm32f7xx_hal_uart.o
HAL_UART_AbortTransmitCpltCallback                build/stm32f7xx_hal_uart.o
HAL_UART_AbortTransmit_IT                         build/stm32f7xx_hal_uart.o
HAL_UART_Abort_IT                                 build/stm32f7xx_hal_uart.o
HAL_UART_DMAPause                                 build/stm32f7xx_hal_uart.o
HAL_UART_DMAResume                                build/stm32f7xx_hal_uart.o
HAL_UART_DMAStop                                  build/stm32f7xx_hal_uart.o
HAL_UART_DeInit                                   build/stm32f7xx_hal_uart.o
HAL_UART_ErrorCallback                            build/stm32f7xx_hal_uart.o
HAL_UART_GetError                                 build/stm32f7xx_hal_uart.o
HAL_UART_GetState                                 build/stm32f7xx_hal_uart.o
HAL_UART_IRQHandler                               build/stm32f7xx_hal_uart.o
HAL_UART_Init                                     build/stm32f7xx_hal_uart.o
                                                  build/usart.o
HAL_UART_MspDeInit                                build/usart.o
                                                  build/stm32f7xx_hal_uart.o
HAL_UART_MspInit                                  build/usart.o
                                                  build/stm32f7xx_hal_uart.o
                                                  build/stm32f7xx_hal_uart_ex.o
HAL_UART_Receive                                  build/stm32f7xx_hal_uart.o
                                                  build/main.o
HAL_UART_Receive_DMA                              build/stm32f7xx_hal_uart.o
HAL_UART_Receive_IT                               build/stm32f7xx_hal_uart.o
HAL_UART_RxCpltCallback                           build/stm32f7xx_hal_uart.o
HAL_UART_RxHalfCpltCallback                       build/stm32f7xx_hal_uart.o
HAL_UART_Transmit                                 build/stm32f7xx_hal_uart.o
                                                  build/main.o
HAL_UART_Transmit_DMA                             build/stm32f7xx_hal_uart.o
HAL_UART_Transmit_IT                              build/stm32f7xx_hal_uart.o
HAL_UART_TxCpltCallback                           build/stm32f7xx_hal_uart.o
HAL_UART_TxHalfCpltCallback                       build/stm32f7xx_hal_uart.o
HardFault_Handler                                 build/startup_stm32f767xx.o
I2C1_ER_IRQHandler                                build/startup_stm32f767xx.o
I2C1_EV_IRQHandler                                build/startup_stm32f767xx.o
I2C2_ER_IRQHandler                                build/startup_stm32f767xx.o
I2C2_EV_IRQHandler                                build/startup_stm32f767xx.o
I2C3_ER_IRQHandler                                build/startup_stm32f767xx.o
I2C3_EV_IRQHandler                                build/startup_stm32f767xx.o
I2C4_ER_IRQHandler                                build/startup_stm32f767xx.o
I2C4_EV_IRQHandler                                build/startup_stm32f767xx.o
ILI9341_Draw_Char                                 build/ILI9341_GFX.o
ILI9341_Draw_Colour                               build/ILI9341_STM32_Driver.o
ILI9341_Draw_Colour_Burst                         build/ILI9341_STM32_Driver.o
ILI9341_Draw_Filled_Circle                        build/ILI9341_GFX.o
                                                  build/main.o
ILI9341_Draw_Filled_Rectangle_Coord               build/ILI9341_GFX.o
ILI9341_Draw_Hollow_Circle                        build/ILI9341_GFX.o
ILI9341_Draw_Hollow_Rectangle_Coord               build/ILI9341_GFX.o
ILI9341_Draw_Horizontal_Line                      build/ILI9341_STM32_Driver.o
                                                  build/ILI9341_GFX.o
ILI9341_Draw_Image                                build/ILI9341_GFX.o
ILI9341_Draw_Pixel                                build/ILI9341_STM32_Driver.o
                                                  build/main.o
                                                  build/ILI9341_GFX.o
ILI9341_Draw_Rectangle                            build/ILI9341_STM32_Driver.o
                                                  build/ILI9341_GFX.o
ILI9341_Draw_Text                                 build/ILI9341_GFX.o
                                                  build/main.o
ILI9341_Draw_Vertical_Line                        build/ILI9341_STM32_Driver.o
                                                  build/ILI9341_GFX.o
ILI9341_Enable                                    build/ILI9341_STM32_Driver.o
ILI9341_Fill_Screen                               build/ILI9341_STM32_Driver.o
                                                  build/main.o
ILI9341_Init                                      build/ILI9341_STM32_Driver.o
                                                  build/main.o
ILI9341_Reset                                     build/ILI9341_STM32_Driver.o
ILI9341_SPI_Init                                  build/ILI9341_STM32_Driver.o
ILI9341_SPI_Send                                  build/ILI9341_STM32_Driver.o
ILI9341_Set_Address                               build/ILI9341_STM32_Driver.o
                                                  build/ILI9341_GFX.o
ILI9341_Set_Rotation                              build/ILI9341_STM32_Driver.o
                                                  build/main.o
                                                  build/ILI9341_GFX.o
ILI9341_Write_Command                             build/ILI9341_STM32_Driver.o
ILI9341_Write_Data                                build/ILI9341_STM32_Driver.o
JPEG_IRQHandler                                   build/startup_stm32f767xx.o
LCD_HEIGHT                                        build/ILI9341_STM32_Driver.o
LCD_WIDTH                                         build/ILI9341_STM32_Driver.o
LPTIM1_IRQHandler                                 build/startup_stm32f767xx.o
LTDC_ER_IRQHandler                                build/startup_stm32f767xx.o
LTDC_IRQHandler                                   build/startup_stm32f767xx.o
MDIOS_IRQHandler                                  build/startup_stm32f767xx.o
MX_GPIO_Init                                      build/gpio.o
                                                  build/main.o
                                                  build/ILI9341_STM32_Driver.o
MX_I2C1_Init                                      build/i2c.o
                                                  build/main.o
MX_RNG_Init                                       build/rng.o
                                                  build/main.o
MX_SPI5_Init                                      build/spi.o
                                                  build/main.o
                                                  build/ILI9341_STM32_Driver.o
MX_SYS_Init                                       build/sys.o
MX_TIM1_Init                                      build/tim.o
                                                  build/main.o
MX_TIM2_Init                                      build/tim.o
                                                  build/main.o
MX_USART3_UART_Init                               build/usart.o
                                                  build/main.o
MemManage_Handler                                 build/startup_stm32f767xx.o
NMI_Handler                                       build/startup_stm32f767xx.o
OTG_FS_IRQHandler                                 build/startup_stm32f767xx.o
OTG_FS_WKUP_IRQHandler                            build/startup_stm32f767xx.o
OTG_HS_EP1_IN_IRQHandler                          build/startup_stm32f767xx.o
OTG_HS_EP1_OUT_IRQHandler                         build/startup_stm32f767xx.o
OTG_HS_IRQHandler                                 build/startup_stm32f767xx.o
OTG_HS_WKUP_IRQHandler                            build/startup_stm32f767xx.o
PVD_IRQHandler                                    build/startup_stm32f767xx.o
PendSV_Handler                                    build/startup_stm32f767xx.o
QUADSPI_IRQHandler                                build/startup_stm32f767xx.o
RCC_IRQHandler                                    build/startup_stm32f767xx.o
RNG_IRQHandler                                    build/startup_stm32f767xx.o
RTC_Alarm_IRQHandler                              build/startup_stm32f767xx.o
RTC_WKUP_IRQHandler                               build/startup_stm32f767xx.o
Reset_Handler                                     build/startup_stm32f767xx.o
SAI1_IRQHandler                                   build/startup_stm32f767xx.o
SAI2_IRQHandler                                   build/startup_stm32f767xx.o
SDMMC1_IRQHandler                                 build/startup_stm32f767xx.o
SDMMC2_IRQHandler                                 build/startup_stm32f767xx.o
SPDIF_RX_IRQHandler                               build/startup_stm32f767xx.o
SPI1_IRQHandler                                   build/startup_stm32f767xx.o
SPI2_IRQHandler                                   build/startup_stm32f767xx.o
SPI3_IRQHandler                                   build/startup_stm32f767xx.o
SPI4_IRQHandler                                   build/startup_stm32f767xx.o
SPI5_IRQHandler                                   build/startup_stm32f767xx.o
SPI6_IRQHandler                                   build/startup_stm32f767xx.o
SVC_Handler                                       build/startup_stm32f767xx.o
Serial                                            build/main.o
SysTick_Handler                                   build/stm32f7xx_it.o
SystemClock_Config                                build/main.o
SystemCoreClock                                   build/system_stm32f7xx.o
                                                  build/stm32f7xx_hal_spi.o
                                                  build/stm32f7xx_hal_rcc.o
                                                  build/stm32f7xx_hal_dma.o
                                                  build/stm32f7xx_hal.o
SystemCoreClockUpdate                             build/system_stm32f7xx.o
SystemInit                                        build/system_stm32f7xx.o
                                                  build/startup_stm32f767xx.o
TAMP_STAMP_IRQHandler                             build/startup_stm32f767xx.o
TIM1_BRK_TIM9_IRQHandler                          build/startup_stm32f767xx.o
TIM1_CC_IRQHandler                                build/startup_stm32f767xx.o
TIM1_TRG_COM_TIM11_IRQHandler                     build/startup_stm32f767xx.o
TIM1_UP_TIM10_IRQHandler                          build/startup_stm32f767xx.o
TIM2_IRQHandler                                   build/stm32f7xx_it.o
TIM3_IRQHandler                                   build/startup_stm32f767xx.o
TIM4_IRQHandler                                   build/startup_stm32f767xx.o
TIM5_IRQHandler                                   build/startup_stm32f767xx.o
TIM6_DAC_IRQHandler                               build/startup_stm32f767xx.o
TIM7_IRQHandler                                   build/startup_stm32f767xx.o
TIM8_BRK_TIM12_IRQHandler                         build/startup_stm32f767xx.o
TIM8_CC_IRQHandler                                build/startup_stm32f767xx.o
TIM8_TRG_COM_TIM14_IRQHandler                     build/startup_stm32f767xx.o
TIM8_UP_TIM13_IRQHandler                          build/startup_stm32f767xx.o
TIMEx_DMACommutationCplt                          build/stm32f7xx_hal_tim_ex.o
                                                  build/stm32f7xx_hal_tim.o
TIMEx_DMACommutationHalfCplt                      build/stm32f7xx_hal_tim_ex.o
                                                  build/stm32f7xx_hal_tim.o
TIM_Base_SetConfig                                build/stm32f7xx_hal_tim.o
                                                  build/stm32f7xx_hal_tim_ex.o
TIM_CCxChannelCmd                                 build/stm32f7xx_hal_tim.o
                                                  build/stm32f7xx_hal_tim_ex.o
TIM_DMACaptureCplt                                build/stm32f7xx_hal_tim.o
                                                  build/stm32f7xx_hal_tim_ex.o
TIM_DMACaptureHalfCplt                            build/stm32f7xx_hal_tim.o
                                                  build/stm32f7xx_hal_tim_ex.o
TIM_DMADelayPulseCplt                             build/stm32f7xx_hal_tim.o
                                                  build/stm32f7xx_hal_tim_ex.o
TIM_DMADelayPulseHalfCplt                         build/stm32f7xx_hal_tim.o
                                                  build/stm32f7xx_hal_tim_ex.o
TIM_DMAError                                      build/stm32f7xx_hal_tim.o
                                                  build/stm32f7xx_hal_tim_ex.o
TIM_ETR_SetConfig                                 build/stm32f7xx_hal_tim.o
TIM_OC2_SetConfig                                 build/stm32f7xx_hal_tim.o
                                                  build/stm32f7xx_hal_tim_ex.o
TIM_TI1_SetConfig                                 build/stm32f7xx_hal_tim.o
                                                  build/stm32f7xx_hal_tim_ex.o
TP_Read                                           build/ILI9341_Touchscreen.o
TP_Read_Coordinates                               build/ILI9341_Touchscreen.o
                                                  build/main.o
TP_Touchpad_Pressed                               build/ILI9341_Touchscreen.o
                                                  build/main.o
TP_Write                                          build/ILI9341_Touchscreen.o
UART4_IRQHandler                                  build/startup_stm32f767xx.o
UART5_IRQHandler                                  build/startup_stm32f767xx.o
UART7_IRQHandler                                  build/startup_stm32f767xx.o
UART8_IRQHandler                                  build/startup_stm32f767xx.o
UART_AdvFeatureConfig                             build/stm32f7xx_hal_uart.o
                                                  build/stm32f7xx_hal_uart_ex.o
UART_CheckIdleState                               build/stm32f7xx_hal_uart.o
                                                  build/stm32f7xx_hal_uart_ex.o
UART_SetConfig                                    build/stm32f7xx_hal_uart.o
                                                  build/stm32f7xx_hal_uart_ex.o
UART_WaitOnFlagUntilTimeout                       build/stm32f7xx_hal_uart.o
USART1_IRQHandler                                 build/startup_stm32f767xx.o
USART2_IRQHandler                                 build/startup_stm32f767xx.o
USART3_IRQHandler                                 build/startup_stm32f767xx.o
USART6_IRQHandler                                 build/startup_stm32f767xx.o
UsageFault_Handler                                build/startup_stm32f767xx.o
WWDG_IRQHandler                                   build/startup_stm32f767xx.o
_Balloc                                           c:/vsarm/armcc/bin/../lib/gcc/arm-none-eabi/9.3.1/../../../../arm-none-eabi/lib/thumb/v7e-m+dp/hard\libc.a(lib_a-mprec.o)
                                                  c:/vsarm/armcc/bin/../lib/gcc/arm-none-eabi/9.3.1/../../../../arm-none-eabi/lib/thumb/v7e-m+dp/hard\libc.a(lib_a-dtoa.o)
_Bfree                                            c:/vsarm/armcc/bin/../lib/gcc/arm-none-eabi/9.3.1/../../../../arm-none-eabi/lib/thumb/v7e-m+dp/hard\libc.a(lib_a-mprec.o)
                                                  c:/vsarm/armcc/bin/../lib/gcc/arm-none-eabi/9.3.1/../../../../arm-none-eabi/lib/thumb/v7e-m+dp/hard\libc.a(lib_a-dtoa.o)
_PathLocale                                       c:/vsarm/armcc/bin/../lib/gcc/arm-none-eabi/9.3.1/../../../../arm-none-eabi/lib/thumb/v7e-m+dp/hard\libc.a(lib_a-locale.o)
__aeabi_idiv0                                     c:/vsarm/armcc/bin/../lib/gcc/arm-none-eabi/9.3.1/thumb/v7e-m+dp/hard\libgcc.a(_dvmd_tls.o)
__aeabi_ldiv0                                     c:/vsarm/armcc/bin/../lib/gcc/arm-none-eabi/9.3.1/thumb/v7e-m+dp/hard\libgcc.a(_dvmd_tls.o)
                                                  c:/vsarm/armcc/bin/../lib/gcc/arm-none-eabi/9.3.1/thumb/v7e-m+dp/hard\libgcc.a(_aeabi_uldivmod.o)
__aeabi_uldivmod                                  c:/vsarm/armcc/bin/../lib/gcc/arm-none-eabi/9.3.1/thumb/v7e-m+dp/hard\libgcc.a(_aeabi_uldivmod.o)
                                                  c:/vsarm/armcc/bin/../lib/gcc/arm-none-eabi/9.3.1/../../../../arm-none-eabi/lib/thumb/v7e-m+dp/hard\libc.a(lib_a-vfiprintf.o)
                                                  c:/vsarm/armcc/bin/../lib/gcc/arm-none-eabi/9.3.1/../../../../arm-none-eabi/lib/thumb/v7e-m+dp/hard\libc.a(lib_a-svfiprintf.o)
                                                  c:/vsarm/armcc/bin/../lib/gcc/arm-none-eabi/9.3.1/../../../../arm-none-eabi/lib/thumb/v7e-m+dp/hard\libc.a(lib_a-svfprintf.o)
                                                  build/stm32f7xx_hal_rcc.o
__any_on                                          c:/vsarm/armcc/bin/../lib/gcc/arm-none-eabi/9.3.1/../../../../arm-none-eabi/lib/thumb/v7e-m+dp/hard\libc.a(lib_a-mprec.o)
__ascii_mbtowc                                    c:/vsarm/armcc/bin/../lib/gcc/arm-none-eabi/9.3.1/../../../../arm-none-eabi/lib/thumb/v7e-m+dp/hard\libc.a(lib_a-mbtowc_r.o)
                                                  c:/vsarm/armcc/bin/../lib/gcc/arm-none-eabi/9.3.1/../../../../arm-none-eabi/lib/thumb/v7e-m+dp/hard\libc.a(lib_a-locale.o)
__ascii_wctomb                                    c:/vsarm/armcc/bin/../lib/gcc/arm-none-eabi/9.3.1/../../../../arm-none-eabi/lib/thumb/v7e-m+dp/hard\libc.a(lib_a-wctomb_r.o)
                                                  c:/vsarm/armcc/bin/../lib/gcc/arm-none-eabi/9.3.1/../../../../arm-none-eabi/lib/thumb/v7e-m+dp/hard\libc.a(lib_a-locale.o)
__assert                                          c:/vsarm/armcc/bin/../lib/gcc/arm-none-eabi/9.3.1/../../../../arm-none-eabi/lib/thumb/v7e-m+dp/hard\libc.a(lib_a-assert.o)
__assert_func                                     c:/vsarm/armcc/bin/../lib/gcc/arm-none-eabi/9.3.1/../../../../arm-none-eabi/lib/thumb/v7e-m+dp/hard\libc.a(lib_a-assert.o)
                                                  c:/vsarm/armcc/bin/../lib/gcc/arm-none-eabi/9.3.1/../../../../arm-none-eabi/lib/thumb/v7e-m+dp/hard\libc.a(lib_a-mprec.o)
                                                  c:/vsarm/armcc/bin/../lib/gcc/arm-none-eabi/9.3.1/../../../../arm-none-eabi/lib/thumb/v7e-m+dp/hard\libc.a(lib_a-dtoa.o)
__atexit_recursive_mutex                          c:/vsarm/armcc/bin/../lib/gcc/arm-none-eabi/9.3.1/../../../../arm-none-eabi/lib/thumb/v7e-m+dp/hard\libc.a(lib_a-__call_atexit.o)
                                                  c:/vsarm/armcc/bin/../lib/gcc/arm-none-eabi/9.3.1/../../../../arm-none-eabi/lib/thumb/v7e-m+dp/hard\libc.a(lib_a-__atexit.o)
__b2d                                             c:/vsarm/armcc/bin/../lib/gcc/arm-none-eabi/9.3.1/../../../../arm-none-eabi/lib/thumb/v7e-m+dp/hard\libc.a(lib_a-mprec.o)
__bss_end__                                       c:/vsarm/armcc/bin/../lib/gcc/arm-none-eabi/9.3.1/../../../../arm-none-eabi/lib/thumb/v7e-m+dp/hard/crt0.o
__bss_start__                                     c:/vsarm/armcc/bin/../lib/gcc/arm-none-eabi/9.3.1/../../../../arm-none-eabi/lib/thumb/v7e-m+dp/hard/crt0.o
__call_exitprocs                                  c:/vsarm/armcc/bin/../lib/gcc/arm-none-eabi/9.3.1/../../../../arm-none-eabi/lib/thumb/v7e-m+dp/hard\libc.a(lib_a-__call_atexit.o)
                                                  c:/vsarm/armcc/bin/../lib/gcc/arm-none-eabi/9.3.1/../../../../arm-none-eabi/lib/thumb/v7e-m+dp/hard\libc.a(lib_a-exit.o)
__copybits                                        c:/vsarm/armcc/bin/../lib/gcc/arm-none-eabi/9.3.1/../../../../arm-none-eabi/lib/thumb/v7e-m+dp/hard\libc.a(lib_a-mprec.o)
__d2b                                             c:/vsarm/armcc/bin/../lib/gcc/arm-none-eabi/9.3.1/../../../../arm-none-eabi/lib/thumb/v7e-m+dp/hard\libc.a(lib_a-mprec.o)
                                                  c:/vsarm/armcc/bin/../lib/gcc/arm-none-eabi/9.3.1/../../../../arm-none-eabi/lib/thumb/v7e-m+dp/hard\libc.a(lib_a-dtoa.o)
__deregister_frame_info                           c:/vsarm/armcc/bin/../lib/gcc/arm-none-eabi/9.3.1/thumb/v7e-m+dp/hard/crtbegin.o
__dso_handle                                      c:/vsarm/armcc/bin/../lib/gcc/arm-none-eabi/9.3.1/thumb/v7e-m+dp/hard/crtbegin.o
__fini_array_end                                  c:/vsarm/armcc/bin/../lib/gcc/arm-none-eabi/9.3.1/../../../../arm-none-eabi/lib/thumb/v7e-m+dp/hard\libc.a(lib_a-fini.o)
__fini_array_start                                c:/vsarm/armcc/bin/../lib/gcc/arm-none-eabi/9.3.1/../../../../arm-none-eabi/lib/thumb/v7e-m+dp/hard\libc.a(lib_a-fini.o)
__fp_lock_all                                     c:/vsarm/armcc/bin/../lib/gcc/arm-none-eabi/9.3.1/../../../../arm-none-eabi/lib/thumb/v7e-m+dp/hard\libc.a(lib_a-findfp.o)
__fp_unlock_all                                   c:/vsarm/armcc/bin/../lib/gcc/arm-none-eabi/9.3.1/../../../../arm-none-eabi/lib/thumb/v7e-m+dp/hard\libc.a(lib_a-findfp.o)
__fputwc                                          c:/vsarm/armcc/bin/../lib/gcc/arm-none-eabi/9.3.1/../../../../arm-none-eabi/lib/thumb/v7e-m+dp/hard\libc.a(lib_a-fputwc.o)
__global_locale                                   c:/vsarm/armcc/bin/../lib/gcc/arm-none-eabi/9.3.1/../../../../arm-none-eabi/lib/thumb/v7e-m+dp/hard\libc.a(lib_a-locale.o)
                                                  c:/vsarm/armcc/bin/../lib/gcc/arm-none-eabi/9.3.1/../../../../arm-none-eabi/lib/thumb/v7e-m+dp/hard\libc.a(lib_a-wcrtomb.o)
                                                  c:/vsarm/armcc/bin/../lib/gcc/arm-none-eabi/9.3.1/../../../../arm-none-eabi/lib/thumb/v7e-m+dp/hard\libc.a(lib_a-wctomb_r.o)
                                                  c:/vsarm/armcc/bin/../lib/gcc/arm-none-eabi/9.3.1/../../../../arm-none-eabi/lib/thumb/v7e-m+dp/hard\libc.a(lib_a-mbtowc_r.o)
                                                  c:/vsarm/armcc/bin/../lib/gcc/arm-none-eabi/9.3.1/../../../../arm-none-eabi/lib/thumb/v7e-m+dp/hard\libc.a(lib_a-localeconv.o)
__hi0bits                                         c:/vsarm/armcc/bin/../lib/gcc/arm-none-eabi/9.3.1/../../../../arm-none-eabi/lib/thumb/v7e-m+dp/hard\libc.a(lib_a-mprec.o)
                                                  c:/vsarm/armcc/bin/../lib/gcc/arm-none-eabi/9.3.1/../../../../arm-none-eabi/lib/thumb/v7e-m+dp/hard\libc.a(lib_a-dtoa.o)
__i2b                                             c:/vsarm/armcc/bin/../lib/gcc/arm-none-eabi/9.3.1/../../../../arm-none-eabi/lib/thumb/v7e-m+dp/hard\libc.a(lib_a-mprec.o)
                                                  c:/vsarm/armcc/bin/../lib/gcc/arm-none-eabi/9.3.1/../../../../arm-none-eabi/lib/thumb/v7e-m+dp/hard\libc.a(lib_a-dtoa.o)
__init_array_end                                  c:/vsarm/armcc/bin/../lib/gcc/arm-none-eabi/9.3.1/../../../../arm-none-eabi/lib/thumb/v7e-m+dp/hard\libc.a(lib_a-init.o)
__init_array_start                                c:/vsarm/armcc/bin/../lib/gcc/arm-none-eabi/9.3.1/../../../../arm-none-eabi/lib/thumb/v7e-m+dp/hard\libc.a(lib_a-init.o)
__libc_fini                                       c:/vsarm/armcc/bin/../lib/gcc/arm-none-eabi/9.3.1/../../../../arm-none-eabi/lib/thumb/v7e-m+dp/hard\libc.a(lib_a-__call_atexit.o)
__libc_fini_array                                 c:/vsarm/armcc/bin/../lib/gcc/arm-none-eabi/9.3.1/../../../../arm-none-eabi/lib/thumb/v7e-m+dp/hard\libc.a(lib_a-fini.o)
                                                  c:/vsarm/armcc/bin/../lib/gcc/arm-none-eabi/9.3.1/../../../../arm-none-eabi/lib/thumb/v7e-m+dp/hard\libc.a(lib_a-__call_atexit.o)
                                                  c:/vsarm/armcc/bin/../lib/gcc/arm-none-eabi/9.3.1/../../../../arm-none-eabi/lib/thumb/v7e-m+dp/hard/crt0.o
__libc_init_array                                 c:/vsarm/armcc/bin/../lib/gcc/arm-none-eabi/9.3.1/../../../../arm-none-eabi/lib/thumb/v7e-m+dp/hard\libc.a(lib_a-init.o)
                                                  build/startup_stm32f767xx.o
                                                  c:/vsarm/armcc/bin/../lib/gcc/arm-none-eabi/9.3.1/../../../../arm-none-eabi/lib/thumb/v7e-m+dp/hard/crt0.o
__lo0bits                                         c:/vsarm/armcc/bin/../lib/gcc/arm-none-eabi/9.3.1/../../../../arm-none-eabi/lib/thumb/v7e-m+dp/hard\libc.a(lib_a-mprec.o)
__locale_mb_cur_max                               c:/vsarm/armcc/bin/../lib/gcc/arm-none-eabi/9.3.1/../../../../arm-none-eabi/lib/thumb/v7e-m+dp/hard\libc.a(lib_a-locale.o)
                                                  c:/vsarm/armcc/bin/../lib/gcc/arm-none-eabi/9.3.1/../../../../arm-none-eabi/lib/thumb/v7e-m+dp/hard\libc.a(lib_a-fputwc.o)
__localeconv_l                                    c:/vsarm/armcc/bin/../lib/gcc/arm-none-eabi/9.3.1/../../../../arm-none-eabi/lib/thumb/v7e-m+dp/hard\libc.a(lib_a-localeconv.o)
__lock___arc4random_mutex                         c:/vsarm/armcc/bin/../lib/gcc/arm-none-eabi/9.3.1/../../../../arm-none-eabi/lib/thumb/v7e-m+dp/hard\libc.a(lib_a-lock.o)
__lock___at_quick_exit_mutex                      c:/vsarm/armcc/bin/../lib/gcc/arm-none-eabi/9.3.1/../../../../arm-none-eabi/lib/thumb/v7e-m+dp/hard\libc.a(lib_a-lock.o)
__lock___atexit_recursive_mutex                   c:/vsarm/armcc/bin/../lib/gcc/arm-none-eabi/9.3.1/../../../../arm-none-eabi/lib/thumb/v7e-m+dp/hard\libc.a(lib_a-lock.o)
                                                  c:/vsarm/armcc/bin/../lib/gcc/arm-none-eabi/9.3.1/../../../../arm-none-eabi/lib/thumb/v7e-m+dp/hard\libc.a(lib_a-__call_atexit.o)
__lock___dd_hash_mutex                            c:/vsarm/armcc/bin/../lib/gcc/arm-none-eabi/9.3.1/../../../../arm-none-eabi/lib/thumb/v7e-m+dp/hard\libc.a(lib_a-lock.o)
__lock___env_recursive_mutex                      c:/vsarm/armcc/bin/../lib/gcc/arm-none-eabi/9.3.1/../../../../arm-none-eabi/lib/thumb/v7e-m+dp/hard\libc.a(lib_a-lock.o)
__lock___malloc_recursive_mutex                   c:/vsarm/armcc/bin/../lib/gcc/arm-none-eabi/9.3.1/../../../../arm-none-eabi/lib/thumb/v7e-m+dp/hard\libc.a(lib_a-lock.o)
                                                  c:/vsarm/armcc/bin/../lib/gcc/arm-none-eabi/9.3.1/../../../../arm-none-eabi/lib/thumb/v7e-m+dp/hard\libc.a(lib_a-mlock.o)
__lock___sfp_recursive_mutex                      c:/vsarm/armcc/bin/../lib/gcc/arm-none-eabi/9.3.1/../../../../arm-none-eabi/lib/thumb/v7e-m+dp/hard\libc.a(lib_a-lock.o)
                                                  c:/vsarm/armcc/bin/../lib/gcc/arm-none-eabi/9.3.1/../../../../arm-none-eabi/lib/thumb/v7e-m+dp/hard\libc.a(lib_a-findfp.o)
__lock___sinit_recursive_mutex                    c:/vsarm/armcc/bin/../lib/gcc/arm-none-eabi/9.3.1/../../../../arm-none-eabi/lib/thumb/v7e-m+dp/hard\libc.a(lib_a-lock.o)
                                                  c:/vsarm/armcc/bin/../lib/gcc/arm-none-eabi/9.3.1/../../../../arm-none-eabi/lib/thumb/v7e-m+dp/hard\libc.a(lib_a-findfp.o)
__lock___tz_mutex                                 c:/vsarm/armcc/bin/../lib/gcc/arm-none-eabi/9.3.1/../../../../arm-none-eabi/lib/thumb/v7e-m+dp/hard\libc.a(lib_a-lock.o)
__lshift                                          c:/vsarm/armcc/bin/../lib/gcc/arm-none-eabi/9.3.1/../../../../arm-none-eabi/lib/thumb/v7e-m+dp/hard\libc.a(lib_a-mprec.o)
                                                  c:/vsarm/armcc/bin/../lib/gcc/arm-none-eabi/9.3.1/../../../../arm-none-eabi/lib/thumb/v7e-m+dp/hard\libc.a(lib_a-dtoa.o)
__malloc_av_                                      c:/vsarm/armcc/bin/../lib/gcc/arm-none-eabi/9.3.1/../../../../arm-none-eabi/lib/thumb/v7e-m+dp/hard\libc.a(lib_a-mallocr.o)
                                                  c:/vsarm/armcc/bin/../lib/gcc/arm-none-eabi/9.3.1/../../../../arm-none-eabi/lib/thumb/v7e-m+dp/hard\libc.a(lib_a-reallocr.o)
                                                  c:/vsarm/armcc/bin/../lib/gcc/arm-none-eabi/9.3.1/../../../../arm-none-eabi/lib/thumb/v7e-m+dp/hard\libc.a(lib_a-freer.o)
__malloc_current_mallinfo                         c:/vsarm/armcc/bin/../lib/gcc/arm-none-eabi/9.3.1/../../../../arm-none-eabi/lib/thumb/v7e-m+dp/hard\libc.a(lib_a-mallocr.o)
                                                  c:/vsarm/armcc/bin/../lib/gcc/arm-none-eabi/9.3.1/../../../../arm-none-eabi/lib/thumb/v7e-m+dp/hard\libc.a(lib_a-freer.o)
__malloc_lock                                     c:/vsarm/armcc/bin/../lib/gcc/arm-none-eabi/9.3.1/../../../../arm-none-eabi/lib/thumb/v7e-m+dp/hard\libc.a(lib_a-mlock.o)
                                                  c:/vsarm/armcc/bin/../lib/gcc/arm-none-eabi/9.3.1/../../../../arm-none-eabi/lib/thumb/v7e-m+dp/hard\libc.a(lib_a-reallocr.o)
                                                  c:/vsarm/armcc/bin/../lib/gcc/arm-none-eabi/9.3.1/../../../../arm-none-eabi/lib/thumb/v7e-m+dp/hard\libc.a(lib_a-mallocr.o)
                                                  c:/vsarm/armcc/bin/../lib/gcc/arm-none-eabi/9.3.1/../../../../arm-none-eabi/lib/thumb/v7e-m+dp/hard\libc.a(lib_a-freer.o)
__malloc_max_sbrked_mem                           c:/vsarm/armcc/bin/../lib/gcc/arm-none-eabi/9.3.1/../../../../arm-none-eabi/lib/thumb/v7e-m+dp/hard\libc.a(lib_a-mallocr.o)
__malloc_max_total_mem                            c:/vsarm/armcc/bin/../lib/gcc/arm-none-eabi/9.3.1/../../../../arm-none-eabi/lib/thumb/v7e-m+dp/hard\libc.a(lib_a-mallocr.o)
__malloc_sbrk_base                                c:/vsarm/armcc/bin/../lib/gcc/arm-none-eabi/9.3.1/../../../../arm-none-eabi/lib/thumb/v7e-m+dp/hard\libc.a(lib_a-mallocr.o)
                                                  c:/vsarm/armcc/bin/../lib/gcc/arm-none-eabi/9.3.1/../../../../arm-none-eabi/lib/thumb/v7e-m+dp/hard\libc.a(lib_a-freer.o)
__malloc_top_pad                                  c:/vsarm/armcc/bin/../lib/gcc/arm-none-eabi/9.3.1/../../../../arm-none-eabi/lib/thumb/v7e-m+dp/hard\libc.a(lib_a-mallocr.o)
                                                  c:/vsarm/armcc/bin/../lib/gcc/arm-none-eabi/9.3.1/../../../../arm-none-eabi/lib/thumb/v7e-m+dp/hard\libc.a(lib_a-freer.o)
__malloc_trim_threshold                           c:/vsarm/armcc/bin/../lib/gcc/arm-none-eabi/9.3.1/../../../../arm-none-eabi/lib/thumb/v7e-m+dp/hard\libc.a(lib_a-mallocr.o)
                                                  c:/vsarm/armcc/bin/../lib/gcc/arm-none-eabi/9.3.1/../../../../arm-none-eabi/lib/thumb/v7e-m+dp/hard\libc.a(lib_a-freer.o)
__malloc_unlock                                   c:/vsarm/armcc/bin/../lib/gcc/arm-none-eabi/9.3.1/../../../../arm-none-eabi/lib/thumb/v7e-m+dp/hard\libc.a(lib_a-mlock.o)
                                                  c:/vsarm/armcc/bin/../lib/gcc/arm-none-eabi/9.3.1/../../../../arm-none-eabi/lib/thumb/v7e-m+dp/hard\libc.a(lib_a-reallocr.o)
                                                  c:/vsarm/armcc/bin/../lib/gcc/arm-none-eabi/9.3.1/../../../../arm-none-eabi/lib/thumb/v7e-m+dp/hard\libc.a(lib_a-mallocr.o)
                                                  c:/vsarm/armcc/bin/../lib/gcc/arm-none-eabi/9.3.1/../../../../arm-none-eabi/lib/thumb/v7e-m+dp/hard\libc.a(lib_a-freer.o)
__mcmp                                            c:/vsarm/armcc/bin/../lib/gcc/arm-none-eabi/9.3.1/../../../../arm-none-eabi/lib/thumb/v7e-m+dp/hard\libc.a(lib_a-mprec.o)
                                                  c:/vsarm/armcc/bin/../lib/gcc/arm-none-eabi/9.3.1/../../../../arm-none-eabi/lib/thumb/v7e-m+dp/hard\libc.a(lib_a-dtoa.o)
__mdiff                                           c:/vsarm/armcc/bin/../lib/gcc/arm-none-eabi/9.3.1/../../../../arm-none-eabi/lib/thumb/v7e-m+dp/hard\libc.a(lib_a-mprec.o)
                                                  c:/vsarm/armcc/bin/../lib/gcc/arm-none-eabi/9.3.1/../../../../arm-none-eabi/lib/thumb/v7e-m+dp/hard\libc.a(lib_a-dtoa.o)
__mprec_bigtens                                   c:/vsarm/armcc/bin/../lib/gcc/arm-none-eabi/9.3.1/../../../../arm-none-eabi/lib/thumb/v7e-m+dp/hard\libc.a(lib_a-mprec.o)
                                                  c:/vsarm/armcc/bin/../lib/gcc/arm-none-eabi/9.3.1/../../../../arm-none-eabi/lib/thumb/v7e-m+dp/hard\libc.a(lib_a-dtoa.o)
__mprec_tens                                      c:/vsarm/armcc/bin/../lib/gcc/arm-none-eabi/9.3.1/../../../../arm-none-eabi/lib/thumb/v7e-m+dp/hard\libc.a(lib_a-mprec.o)
                                                  c:/vsarm/armcc/bin/../lib/gcc/arm-none-eabi/9.3.1/../../../../arm-none-eabi/lib/thumb/v7e-m+dp/hard\libc.a(lib_a-dtoa.o)
__mprec_tinytens                                  c:/vsarm/armcc/bin/../lib/gcc/arm-none-eabi/9.3.1/../../../../arm-none-eabi/lib/thumb/v7e-m+dp/hard\libc.a(lib_a-mprec.o)
__multadd                                         c:/vsarm/armcc/bin/../lib/gcc/arm-none-eabi/9.3.1/../../../../arm-none-eabi/lib/thumb/v7e-m+dp/hard\libc.a(lib_a-mprec.o)
                                                  c:/vsarm/armcc/bin/../lib/gcc/arm-none-eabi/9.3.1/../../../../arm-none-eabi/lib/thumb/v7e-m+dp/hard\libc.a(lib_a-dtoa.o)
__multiply                                        c:/vsarm/armcc/bin/../lib/gcc/arm-none-eabi/9.3.1/../../../../arm-none-eabi/lib/thumb/v7e-m+dp/hard\libc.a(lib_a-mprec.o)
                                                  c:/vsarm/armcc/bin/../lib/gcc/arm-none-eabi/9.3.1/../../../../arm-none-eabi/lib/thumb/v7e-m+dp/hard\libc.a(lib_a-dtoa.o)
__pow5mult                                        c:/vsarm/armcc/bin/../lib/gcc/arm-none-eabi/9.3.1/../../../../arm-none-eabi/lib/thumb/v7e-m+dp/hard\libc.a(lib_a-mprec.o)
                                                  c:/vsarm/armcc/bin/../lib/gcc/arm-none-eabi/9.3.1/../../../../arm-none-eabi/lib/thumb/v7e-m+dp/hard\libc.a(lib_a-dtoa.o)
__preinit_array_end                               c:/vsarm/armcc/bin/../lib/gcc/arm-none-eabi/9.3.1/../../../../arm-none-eabi/lib/thumb/v7e-m+dp/hard\libc.a(lib_a-init.o)
__preinit_array_start                             c:/vsarm/armcc/bin/../lib/gcc/arm-none-eabi/9.3.1/../../../../arm-none-eabi/lib/thumb/v7e-m+dp/hard\libc.a(lib_a-init.o)
__ratio                                           c:/vsarm/armcc/bin/../lib/gcc/arm-none-eabi/9.3.1/../../../../arm-none-eabi/lib/thumb/v7e-m+dp/hard\libc.a(lib_a-mprec.o)
__register_exitproc                               c:/vsarm/armcc/bin/../lib/gcc/arm-none-eabi/9.3.1/../../../../arm-none-eabi/lib/thumb/v7e-m+dp/hard\libc.a(lib_a-__atexit.o)
                                                  c:/vsarm/armcc/bin/../lib/gcc/arm-none-eabi/9.3.1/../../../../arm-none-eabi/lib/thumb/v7e-m+dp/hard\libc.a(lib_a-atexit.o)
__register_frame_info                             c:/vsarm/armcc/bin/../lib/gcc/arm-none-eabi/9.3.1/thumb/v7e-m+dp/hard/crtbegin.o
__retarget_lock_acquire                           c:/vsarm/armcc/bin/../lib/gcc/arm-none-eabi/9.3.1/../../../../arm-none-eabi/lib/thumb/v7e-m+dp/hard\libc.a(lib_a-lock.o)
__retarget_lock_acquire_recursive                 c:/vsarm/armcc/bin/../lib/gcc/arm-none-eabi/9.3.1/../../../../arm-none-eabi/lib/thumb/v7e-m+dp/hard\libc.a(lib_a-lock.o)
                                                  c:/vsarm/armcc/bin/../lib/gcc/arm-none-eabi/9.3.1/../../../../arm-none-eabi/lib/thumb/v7e-m+dp/hard\libc.a(lib_a-fclose.o)
                                                  c:/vsarm/armcc/bin/../lib/gcc/arm-none-eabi/9.3.1/../../../../arm-none-eabi/lib/thumb/v7e-m+dp/hard\libc.a(lib_a-fputwc.o)
                                                  c:/vsarm/armcc/bin/../lib/gcc/arm-none-eabi/9.3.1/../../../../arm-none-eabi/lib/thumb/v7e-m+dp/hard\libc.a(lib_a-findfp.o)
                                                  c:/vsarm/armcc/bin/../lib/gcc/arm-none-eabi/9.3.1/../../../../arm-none-eabi/lib/thumb/v7e-m+dp/hard\libc.a(lib_a-fflush.o)
                                                  c:/vsarm/armcc/bin/../lib/gcc/arm-none-eabi/9.3.1/../../../../arm-none-eabi/lib/thumb/v7e-m+dp/hard\libc.a(lib_a-vfiprintf.o)
                                                  c:/vsarm/armcc/bin/../lib/gcc/arm-none-eabi/9.3.1/../../../../arm-none-eabi/lib/thumb/v7e-m+dp/hard\libc.a(lib_a-__atexit.o)
                                                  c:/vsarm/armcc/bin/../lib/gcc/arm-none-eabi/9.3.1/../../../../arm-none-eabi/lib/thumb/v7e-m+dp/hard\libc.a(lib_a-mlock.o)
                                                  c:/vsarm/armcc/bin/../lib/gcc/arm-none-eabi/9.3.1/../../../../arm-none-eabi/lib/thumb/v7e-m+dp/hard\libc.a(lib_a-__call_atexit.o)
__retarget_lock_close                             c:/vsarm/armcc/bin/../lib/gcc/arm-none-eabi/9.3.1/../../../../arm-none-eabi/lib/thumb/v7e-m+dp/hard\libc.a(lib_a-lock.o)
__retarget_lock_close_recursive                   c:/vsarm/armcc/bin/../lib/gcc/arm-none-eabi/9.3.1/../../../../arm-none-eabi/lib/thumb/v7e-m+dp/hard\libc.a(lib_a-lock.o)
                                                  c:/vsarm/armcc/bin/../lib/gcc/arm-none-eabi/9.3.1/../../../../arm-none-eabi/lib/thumb/v7e-m+dp/hard\libc.a(lib_a-fclose.o)
                                                  c:/vsarm/armcc/bin/../lib/gcc/arm-none-eabi/9.3.1/../../../../arm-none-eabi/lib/thumb/v7e-m+dp/hard\libc.a(lib_a-vfiprintf.o)
__retarget_lock_init                              c:/vsarm/armcc/bin/../lib/gcc/arm-none-eabi/9.3.1/../../../../arm-none-eabi/lib/thumb/v7e-m+dp/hard\libc.a(lib_a-lock.o)
__retarget_lock_init_recursive                    c:/vsarm/armcc/bin/../lib/gcc/arm-none-eabi/9.3.1/../../../../arm-none-eabi/lib/thumb/v7e-m+dp/hard\libc.a(lib_a-lock.o)
                                                  c:/vsarm/armcc/bin/../lib/gcc/arm-none-eabi/9.3.1/../../../../arm-none-eabi/lib/thumb/v7e-m+dp/hard\libc.a(lib_a-findfp.o)
                                                  c:/vsarm/armcc/bin/../lib/gcc/arm-none-eabi/9.3.1/../../../../arm-none-eabi/lib/thumb/v7e-m+dp/hard\libc.a(lib_a-vfiprintf.o)
__retarget_lock_release                           c:/vsarm/armcc/bin/../lib/gcc/arm-none-eabi/9.3.1/../../../../arm-none-eabi/lib/thumb/v7e-m+dp/hard\libc.a(lib_a-lock.o)
__retarget_lock_release_recursive                 c:/vsarm/armcc/bin/../lib/gcc/arm-none-eabi/9.3.1/../../../../arm-none-eabi/lib/thumb/v7e-m+dp/hard\libc.a(lib_a-lock.o)
                                                  c:/vsarm/armcc/bin/../lib/gcc/arm-none-eabi/9.3.1/../../../../arm-none-eabi/lib/thumb/v7e-m+dp/hard\libc.a(lib_a-fclose.o)
                                                  c:/vsarm/armcc/bin/../lib/gcc/arm-none-eabi/9.3.1/../../../../arm-none-eabi/lib/thumb/v7e-m+dp/hard\libc.a(lib_a-fputwc.o)
                                                  c:/vsarm/armcc/bin/../lib/gcc/arm-none-eabi/9.3.1/../../../../arm-none-eabi/lib/thumb/v7e-m+dp/hard\libc.a(lib_a-findfp.o)
                                                  c:/vsarm/armcc/bin/../lib/gcc/arm-none-eabi/9.3.1/../../../../arm-none-eabi/lib/thumb/v7e-m+dp/hard\libc.a(lib_a-fflush.o)
                                                  c:/vsarm/armcc/bin/../lib/gcc/arm-none-eabi/9.3.1/../../../../arm-none-eabi/lib/thumb/v7e-m+dp/hard\libc.a(lib_a-vfiprintf.o)
                                                  c:/vsarm/armcc/bin/../lib/gcc/arm-none-eabi/9.3.1/../../../../arm-none-eabi/lib/thumb/v7e-m+dp/hard\libc.a(lib_a-__atexit.o)
                                                  c:/vsarm/armcc/bin/../lib/gcc/arm-none-eabi/9.3.1/../../../../arm-none-eabi/lib/thumb/v7e-m+dp/hard\libc.a(lib_a-mlock.o)
                                                  c:/vsarm/armcc/bin/../lib/gcc/arm-none-eabi/9.3.1/../../../../arm-none-eabi/lib/thumb/v7e-m+dp/hard\libc.a(lib_a-__call_atexit.o)
__retarget_lock_try_acquire                       c:/vsarm/armcc/bin/../lib/gcc/arm-none-eabi/9.3.1/../../../../arm-none-eabi/lib/thumb/v7e-m+dp/hard\libc.a(lib_a-lock.o)
__retarget_lock_try_acquire_recursive             c:/vsarm/armcc/bin/../lib/gcc/arm-none-eabi/9.3.1/../../../../arm-none-eabi/lib/thumb/v7e-m+dp/hard\libc.a(lib_a-lock.o)
__s2b                                             c:/vsarm/armcc/bin/../lib/gcc/arm-none-eabi/9.3.1/../../../../arm-none-eabi/lib/thumb/v7e-m+dp/hard\libc.a(lib_a-mprec.o)
__sclose                                          c:/vsarm/armcc/bin/../lib/gcc/arm-none-eabi/9.3.1/../../../../arm-none-eabi/lib/thumb/v7e-m+dp/hard\libc.a(lib_a-stdio.o)
                                                  c:/vsarm/armcc/bin/../lib/gcc/arm-none-eabi/9.3.1/../../../../arm-none-eabi/lib/thumb/v7e-m+dp/hard\libc.a(lib_a-findfp.o)
__seofread                                        c:/vsarm/armcc/bin/../lib/gcc/arm-none-eabi/9.3.1/../../../../arm-none-eabi/lib/thumb/v7e-m+dp/hard\libc.a(lib_a-stdio.o)
__sflush_r                                        c:/vsarm/armcc/bin/../lib/gcc/arm-none-eabi/9.3.1/../../../../arm-none-eabi/lib/thumb/v7e-m+dp/hard\libc.a(lib_a-fflush.o)
                                                  c:/vsarm/armcc/bin/../lib/gcc/arm-none-eabi/9.3.1/../../../../arm-none-eabi/lib/thumb/v7e-m+dp/hard\libc.a(lib_a-fclose.o)
__sfmoreglue                                      c:/vsarm/armcc/bin/../lib/gcc/arm-none-eabi/9.3.1/../../../../arm-none-eabi/lib/thumb/v7e-m+dp/hard\libc.a(lib_a-findfp.o)
__sfp                                             c:/vsarm/armcc/bin/../lib/gcc/arm-none-eabi/9.3.1/../../../../arm-none-eabi/lib/thumb/v7e-m+dp/hard\libc.a(lib_a-findfp.o)
__sfp_lock_acquire                                c:/vsarm/armcc/bin/../lib/gcc/arm-none-eabi/9.3.1/../../../../arm-none-eabi/lib/thumb/v7e-m+dp/hard\libc.a(lib_a-findfp.o)
                                                  c:/vsarm/armcc/bin/../lib/gcc/arm-none-eabi/9.3.1/../../../../arm-none-eabi/lib/thumb/v7e-m+dp/hard\libc.a(lib_a-fclose.o)
__sfp_lock_release                                c:/vsarm/armcc/bin/../lib/gcc/arm-none-eabi/9.3.1/../../../../arm-none-eabi/lib/thumb/v7e-m+dp/hard\libc.a(lib_a-findfp.o)
                                                  c:/vsarm/armcc/bin/../lib/gcc/arm-none-eabi/9.3.1/../../../../arm-none-eabi/lib/thumb/v7e-m+dp/hard\libc.a(lib_a-fclose.o)
__sfvwrite_r                                      c:/vsarm/armcc/bin/../lib/gcc/arm-none-eabi/9.3.1/../../../../arm-none-eabi/lib/thumb/v7e-m+dp/hard\libc.a(lib_a-fvwrite.o)
                                                  c:/vsarm/armcc/bin/../lib/gcc/arm-none-eabi/9.3.1/../../../../arm-none-eabi/lib/thumb/v7e-m+dp/hard\libc.a(lib_a-vfiprintf.o)
__sigtramp                                        c:/vsarm/armcc/bin/../lib/gcc/arm-none-eabi/9.3.1/../../../../arm-none-eabi/lib/thumb/v7e-m+dp/hard\libc.a(lib_a-signal.o)
__sigtramp_r                                      c:/vsarm/armcc/bin/../lib/gcc/arm-none-eabi/9.3.1/../../../../arm-none-eabi/lib/thumb/v7e-m+dp/hard\libc.a(lib_a-signal.o)
__sinit                                           c:/vsarm/armcc/bin/../lib/gcc/arm-none-eabi/9.3.1/../../../../arm-none-eabi/lib/thumb/v7e-m+dp/hard\libc.a(lib_a-findfp.o)
                                                  c:/vsarm/armcc/bin/../lib/gcc/arm-none-eabi/9.3.1/../../../../arm-none-eabi/lib/thumb/v7e-m+dp/hard\libc.a(lib_a-fclose.o)
                                                  c:/vsarm/armcc/bin/../lib/gcc/arm-none-eabi/9.3.1/../../../../arm-none-eabi/lib/thumb/v7e-m+dp/hard\libc.a(lib_a-wbuf.o)
                                                  c:/vsarm/armcc/bin/../lib/gcc/arm-none-eabi/9.3.1/../../../../arm-none-eabi/lib/thumb/v7e-m+dp/hard\libc.a(lib_a-fputwc.o)
                                                  c:/vsarm/armcc/bin/../lib/gcc/arm-none-eabi/9.3.1/../../../../arm-none-eabi/lib/thumb/v7e-m+dp/hard\libc.a(lib_a-fflush.o)
                                                  c:/vsarm/armcc/bin/../lib/gcc/arm-none-eabi/9.3.1/../../../../arm-none-eabi/lib/thumb/v7e-m+dp/hard\libc.a(lib_a-wsetup.o)
                                                  c:/vsarm/armcc/bin/../lib/gcc/arm-none-eabi/9.3.1/../../../../arm-none-eabi/lib/thumb/v7e-m+dp/hard\libc.a(lib_a-vfiprintf.o)
__sinit_lock_acquire                              c:/vsarm/armcc/bin/../lib/gcc/arm-none-eabi/9.3.1/../../../../arm-none-eabi/lib/thumb/v7e-m+dp/hard\libc.a(lib_a-findfp.o)
__sinit_lock_release                              c:/vsarm/armcc/bin/../lib/gcc/arm-none-eabi/9.3.1/../../../../arm-none-eabi/lib/thumb/v7e-m+dp/hard\libc.a(lib_a-findfp.o)
__smakebuf_r                                      c:/vsarm/armcc/bin/../lib/gcc/arm-none-eabi/9.3.1/../../../../arm-none-eabi/lib/thumb/v7e-m+dp/hard\libc.a(lib_a-makebuf.o)
                                                  c:/vsarm/armcc/bin/../lib/gcc/arm-none-eabi/9.3.1/../../../../arm-none-eabi/lib/thumb/v7e-m+dp/hard\libc.a(lib_a-wsetup.o)
__sprint_r                                        c:/vsarm/armcc/bin/../lib/gcc/arm-none-eabi/9.3.1/../../../../arm-none-eabi/lib/thumb/v7e-m+dp/hard\libc.a(lib_a-vfiprintf.o)
__sread                                           c:/vsarm/armcc/bin/../lib/gcc/arm-none-eabi/9.3.1/../../../../arm-none-eabi/lib/thumb/v7e-m+dp/hard\libc.a(lib_a-stdio.o)
                                                  c:/vsarm/armcc/bin/../lib/gcc/arm-none-eabi/9.3.1/../../../../arm-none-eabi/lib/thumb/v7e-m+dp/hard\libc.a(lib_a-findfp.o)
__sseek                                           c:/vsarm/armcc/bin/../lib/gcc/arm-none-eabi/9.3.1/../../../../arm-none-eabi/lib/thumb/v7e-m+dp/hard\libc.a(lib_a-stdio.o)
                                                  c:/vsarm/armcc/bin/../lib/gcc/arm-none-eabi/9.3.1/../../../../arm-none-eabi/lib/thumb/v7e-m+dp/hard\libc.a(lib_a-findfp.o)
__ssprint_r                                       c:/vsarm/armcc/bin/../lib/gcc/arm-none-eabi/9.3.1/../../../../arm-none-eabi/lib/thumb/v7e-m+dp/hard\libc.a(lib_a-svfiprintf.o)
                                                  c:/vsarm/armcc/bin/../lib/gcc/arm-none-eabi/9.3.1/../../../../arm-none-eabi/lib/thumb/v7e-m+dp/hard\libc.a(lib_a-svfprintf.o)
__stack                                           c:/vsarm/armcc/bin/../lib/gcc/arm-none-eabi/9.3.1/../../../../arm-none-eabi/lib/thumb/v7e-m+dp/hard/crt0.o
__swbuf                                           c:/vsarm/armcc/bin/../lib/gcc/arm-none-eabi/9.3.1/../../../../arm-none-eabi/lib/thumb/v7e-m+dp/hard\libc.a(lib_a-wbuf.o)
__swbuf_r                                         c:/vsarm/armcc/bin/../lib/gcc/arm-none-eabi/9.3.1/../../../../arm-none-eabi/lib/thumb/v7e-m+dp/hard\libc.a(lib_a-wbuf.o)
                                                  c:/vsarm/armcc/bin/../lib/gcc/arm-none-eabi/9.3.1/../../../../arm-none-eabi/lib/thumb/v7e-m+dp/hard\libc.a(lib_a-fputwc.o)
__swhatbuf_r                                      c:/vsarm/armcc/bin/../lib/gcc/arm-none-eabi/9.3.1/../../../../arm-none-eabi/lib/thumb/v7e-m+dp/hard\libc.a(lib_a-makebuf.o)
__swrite                                          c:/vsarm/armcc/bin/../lib/gcc/arm-none-eabi/9.3.1/../../../../arm-none-eabi/lib/thumb/v7e-m+dp/hard\libc.a(lib_a-stdio.o)
                                                  c:/vsarm/armcc/bin/../lib/gcc/arm-none-eabi/9.3.1/../../../../arm-none-eabi/lib/thumb/v7e-m+dp/hard\libc.a(lib_a-findfp.o)
__swsetup_r                                       c:/vsarm/armcc/bin/../lib/gcc/arm-none-eabi/9.3.1/../../../../arm-none-eabi/lib/thumb/v7e-m+dp/hard\libc.a(lib_a-wsetup.o)
                                                  c:/vsarm/armcc/bin/../lib/gcc/arm-none-eabi/9.3.1/../../../../arm-none-eabi/lib/thumb/v7e-m+dp/hard\libc.a(lib_a-wbuf.o)
                                                  c:/vsarm/armcc/bin/../lib/gcc/arm-none-eabi/9.3.1/../../../../arm-none-eabi/lib/thumb/v7e-m+dp/hard\libc.a(lib_a-fvwrite.o)
                                                  c:/vsarm/armcc/bin/../lib/gcc/arm-none-eabi/9.3.1/../../../../arm-none-eabi/lib/thumb/v7e-m+dp/hard\libc.a(lib_a-vfiprintf.o)
__udivmoddi4                                      c:/vsarm/armcc/bin/../lib/gcc/arm-none-eabi/9.3.1/thumb/v7e-m+dp/hard\libgcc.a(_udivmoddi4.o)
                                                  c:/vsarm/armcc/bin/../lib/gcc/arm-none-eabi/9.3.1/thumb/v7e-m+dp/hard\libgcc.a(_aeabi_uldivmod.o)
__ulp                                             c:/vsarm/armcc/bin/../lib/gcc/arm-none-eabi/9.3.1/../../../../arm-none-eabi/lib/thumb/v7e-m+dp/hard\libc.a(lib_a-mprec.o)
_calloc_r                                         c:/vsarm/armcc/bin/../lib/gcc/arm-none-eabi/9.3.1/../../../../arm-none-eabi/lib/thumb/v7e-m+dp/hard\libc.a(lib_a-callocr.o)
                                                  c:/vsarm/armcc/bin/../lib/gcc/arm-none-eabi/9.3.1/../../../../arm-none-eabi/lib/thumb/v7e-m+dp/hard\libc.a(lib_a-mprec.o)
_cleanup                                          c:/vsarm/armcc/bin/../lib/gcc/arm-none-eabi/9.3.1/../../../../arm-none-eabi/lib/thumb/v7e-m+dp/hard\libc.a(lib_a-findfp.o)
_cleanup_r                                        c:/vsarm/armcc/bin/../lib/gcc/arm-none-eabi/9.3.1/../../../../arm-none-eabi/lib/thumb/v7e-m+dp/hard\libc.a(lib_a-findfp.o)
                                                  c:/vsarm/armcc/bin/../lib/gcc/arm-none-eabi/9.3.1/../../../../arm-none-eabi/lib/thumb/v7e-m+dp/hard\libc.a(lib_a-makebuf.o)
_close                                            c:/vsarm/armcc/bin/../lib/gcc/arm-none-eabi/9.3.1/../../../../arm-none-eabi/lib/thumb/v7e-m+dp/hard\libnosys.a(close.o)
                                                  c:/vsarm/armcc/bin/../lib/gcc/arm-none-eabi/9.3.1/../../../../arm-none-eabi/lib/thumb/v7e-m+dp/hard\libc.a(lib_a-closer.o)
_close_r                                          c:/vsarm/armcc/bin/../lib/gcc/arm-none-eabi/9.3.1/../../../../arm-none-eabi/lib/thumb/v7e-m+dp/hard\libc.a(lib_a-closer.o)
                                                  c:/vsarm/armcc/bin/../lib/gcc/arm-none-eabi/9.3.1/../../../../arm-none-eabi/lib/thumb/v7e-m+dp/hard\libc.a(lib_a-stdio.o)
_ctype_                                           c:/vsarm/armcc/bin/../lib/gcc/arm-none-eabi/9.3.1/../../../../arm-none-eabi/lib/thumb/v7e-m+dp/hard\libc.a(lib_a-ctype_.o)
                                                  c:/vsarm/armcc/bin/../lib/gcc/arm-none-eabi/9.3.1/../../../../arm-none-eabi/lib/thumb/v7e-m+dp/hard\libc.a(lib_a-locale.o)
_dtoa_r                                           c:/vsarm/armcc/bin/../lib/gcc/arm-none-eabi/9.3.1/../../../../arm-none-eabi/lib/thumb/v7e-m+dp/hard\libc.a(lib_a-dtoa.o)
                                                  c:/vsarm/armcc/bin/../lib/gcc/arm-none-eabi/9.3.1/../../../../arm-none-eabi/lib/thumb/v7e-m+dp/hard\libc.a(lib_a-svfprintf.o)
_ebss                                             build/startup_stm32f767xx.o
_edata                                            build/startup_stm32f767xx.o
_estack                                           build/startup_stm32f767xx.o
_exit                                             c:/vsarm/armcc/bin/../lib/gcc/arm-none-eabi/9.3.1/../../../../arm-none-eabi/lib/thumb/v7e-m+dp/hard\libnosys.a(_exit.o)
                                                  c:/vsarm/armcc/bin/../lib/gcc/arm-none-eabi/9.3.1/../../../../arm-none-eabi/lib/thumb/v7e-m+dp/hard\libc.a(lib_a-abort.o)
                                                  c:/vsarm/armcc/bin/../lib/gcc/arm-none-eabi/9.3.1/../../../../arm-none-eabi/lib/thumb/v7e-m+dp/hard\libc.a(lib_a-exit.o)
_fclose_r                                         c:/vsarm/armcc/bin/../lib/gcc/arm-none-eabi/9.3.1/../../../../arm-none-eabi/lib/thumb/v7e-m+dp/hard\libc.a(lib_a-fclose.o)
                                                  c:/vsarm/armcc/bin/../lib/gcc/arm-none-eabi/9.3.1/../../../../arm-none-eabi/lib/thumb/v7e-m+dp/hard\libc.a(lib_a-findfp.o)
_fflush_r                                         c:/vsarm/armcc/bin/../lib/gcc/arm-none-eabi/9.3.1/../../../../arm-none-eabi/lib/thumb/v7e-m+dp/hard\libc.a(lib_a-fflush.o)
                                                  c:/vsarm/armcc/bin/../lib/gcc/arm-none-eabi/9.3.1/../../../../arm-none-eabi/lib/thumb/v7e-m+dp/hard\libc.a(lib_a-wbuf.o)
                                                  c:/vsarm/armcc/bin/../lib/gcc/arm-none-eabi/9.3.1/../../../../arm-none-eabi/lib/thumb/v7e-m+dp/hard\libc.a(lib_a-fvwrite.o)
                                                  c:/vsarm/armcc/bin/../lib/gcc/arm-none-eabi/9.3.1/../../../../arm-none-eabi/lib/thumb/v7e-m+dp/hard\libc.a(lib_a-vfiprintf.o)
_fini                                             c:/vsarm/armcc/bin/../lib/gcc/arm-none-eabi/9.3.1/thumb/v7e-m+dp/hard/crti.o
                                                  c:/vsarm/armcc/bin/../lib/gcc/arm-none-eabi/9.3.1/../../../../arm-none-eabi/lib/thumb/v7e-m+dp/hard\libc.a(lib_a-fini.o)
_fiprintf_r                                       c:/vsarm/armcc/bin/../lib/gcc/arm-none-eabi/9.3.1/../../../../arm-none-eabi/lib/thumb/v7e-m+dp/hard\libc.a(lib_a-fiprintf.o)
_fputwc_r                                         c:/vsarm/armcc/bin/../lib/gcc/arm-none-eabi/9.3.1/../../../../arm-none-eabi/lib/thumb/v7e-m+dp/hard\libc.a(lib_a-fputwc.o)
                                                  c:/vsarm/armcc/bin/../lib/gcc/arm-none-eabi/9.3.1/../../../../arm-none-eabi/lib/thumb/v7e-m+dp/hard\libc.a(lib_a-vfiprintf.o)
_free_r                                           c:/vsarm/armcc/bin/../lib/gcc/arm-none-eabi/9.3.1/../../../../arm-none-eabi/lib/thumb/v7e-m+dp/hard\libc.a(lib_a-freer.o)
                                                  c:/vsarm/armcc/bin/../lib/gcc/arm-none-eabi/9.3.1/../../../../arm-none-eabi/lib/thumb/v7e-m+dp/hard\libc.a(lib_a-fclose.o)
                                                  c:/vsarm/armcc/bin/../lib/gcc/arm-none-eabi/9.3.1/../../../../arm-none-eabi/lib/thumb/v7e-m+dp/hard\libc.a(lib_a-fvwrite.o)
                                                  c:/vsarm/armcc/bin/../lib/gcc/arm-none-eabi/9.3.1/../../../../arm-none-eabi/lib/thumb/v7e-m+dp/hard\libc.a(lib_a-fflush.o)
                                                  c:/vsarm/armcc/bin/../lib/gcc/arm-none-eabi/9.3.1/../../../../arm-none-eabi/lib/thumb/v7e-m+dp/hard\libc.a(lib_a-wsetup.o)
                                                  c:/vsarm/armcc/bin/../lib/gcc/arm-none-eabi/9.3.1/../../../../arm-none-eabi/lib/thumb/v7e-m+dp/hard\libc.a(lib_a-reent.o)
                                                  c:/vsarm/armcc/bin/../lib/gcc/arm-none-eabi/9.3.1/../../../../arm-none-eabi/lib/thumb/v7e-m+dp/hard\libc.a(lib_a-reallocr.o)
                                                  c:/vsarm/armcc/bin/../lib/gcc/arm-none-eabi/9.3.1/../../../../arm-none-eabi/lib/thumb/v7e-m+dp/hard\libc.a(lib_a-svfiprintf.o)
                                                  c:/vsarm/armcc/bin/../lib/gcc/arm-none-eabi/9.3.1/../../../../arm-none-eabi/lib/thumb/v7e-m+dp/hard\libc.a(lib_a-mallocr.o)
                                                  c:/vsarm/armcc/bin/../lib/gcc/arm-none-eabi/9.3.1/../../../../arm-none-eabi/lib/thumb/v7e-m+dp/hard\libc.a(lib_a-svfprintf.o)
_fstat                                            c:/vsarm/armcc/bin/../lib/gcc/arm-none-eabi/9.3.1/../../../../arm-none-eabi/lib/thumb/v7e-m+dp/hard\libnosys.a(fstat.o)
                                                  c:/vsarm/armcc/bin/../lib/gcc/arm-none-eabi/9.3.1/../../../../arm-none-eabi/lib/thumb/v7e-m+dp/hard\libc.a(lib_a-fstatr.o)
_fstat_r                                          c:/vsarm/armcc/bin/../lib/gcc/arm-none-eabi/9.3.1/../../../../arm-none-eabi/lib/thumb/v7e-m+dp/hard\libc.a(lib_a-fstatr.o)
                                                  c:/vsarm/armcc/bin/../lib/gcc/arm-none-eabi/9.3.1/../../../../arm-none-eabi/lib/thumb/v7e-m+dp/hard\libc.a(lib_a-makebuf.o)
_fwalk                                            c:/vsarm/armcc/bin/../lib/gcc/arm-none-eabi/9.3.1/../../../../arm-none-eabi/lib/thumb/v7e-m+dp/hard\libc.a(lib_a-fwalk.o)
                                                  c:/vsarm/armcc/bin/../lib/gcc/arm-none-eabi/9.3.1/../../../../arm-none-eabi/lib/thumb/v7e-m+dp/hard\libc.a(lib_a-findfp.o)
_fwalk_reent                                      c:/vsarm/armcc/bin/../lib/gcc/arm-none-eabi/9.3.1/../../../../arm-none-eabi/lib/thumb/v7e-m+dp/hard\libc.a(lib_a-fwalk.o)
                                                  c:/vsarm/armcc/bin/../lib/gcc/arm-none-eabi/9.3.1/../../../../arm-none-eabi/lib/thumb/v7e-m+dp/hard\libc.a(lib_a-findfp.o)
                                                  c:/vsarm/armcc/bin/../lib/gcc/arm-none-eabi/9.3.1/../../../../arm-none-eabi/lib/thumb/v7e-m+dp/hard\libc.a(lib_a-fflush.o)
_getpid                                           c:/vsarm/armcc/bin/../lib/gcc/arm-none-eabi/9.3.1/../../../../arm-none-eabi/lib/thumb/v7e-m+dp/hard\libnosys.a(getpid.o)
                                                  c:/vsarm/armcc/bin/../lib/gcc/arm-none-eabi/9.3.1/../../../../arm-none-eabi/lib/thumb/v7e-m+dp/hard\libc.a(lib_a-signalr.o)
_getpid_r                                         c:/vsarm/armcc/bin/../lib/gcc/arm-none-eabi/9.3.1/../../../../arm-none-eabi/lib/thumb/v7e-m+dp/hard\libc.a(lib_a-signalr.o)
                                                  c:/vsarm/armcc/bin/../lib/gcc/arm-none-eabi/9.3.1/../../../../arm-none-eabi/lib/thumb/v7e-m+dp/hard\libc.a(lib_a-signal.o)
_global_impure_ptr                                c:/vsarm/armcc/bin/../lib/gcc/arm-none-eabi/9.3.1/../../../../arm-none-eabi/lib/thumb/v7e-m+dp/hard\libc.a(lib_a-impure.o)
                                                  c:/vsarm/armcc/bin/../lib/gcc/arm-none-eabi/9.3.1/../../../../arm-none-eabi/lib/thumb/v7e-m+dp/hard\libc.a(lib_a-findfp.o)
                                                  c:/vsarm/armcc/bin/../lib/gcc/arm-none-eabi/9.3.1/../../../../arm-none-eabi/lib/thumb/v7e-m+dp/hard\libc.a(lib_a-fflush.o)
                                                  c:/vsarm/armcc/bin/../lib/gcc/arm-none-eabi/9.3.1/../../../../arm-none-eabi/lib/thumb/v7e-m+dp/hard\libc.a(lib_a-__atexit.o)
                                                  c:/vsarm/armcc/bin/../lib/gcc/arm-none-eabi/9.3.1/../../../../arm-none-eabi/lib/thumb/v7e-m+dp/hard\libc.a(lib_a-__call_atexit.o)
                                                  c:/vsarm/armcc/bin/../lib/gcc/arm-none-eabi/9.3.1/../../../../arm-none-eabi/lib/thumb/v7e-m+dp/hard\libc.a(lib_a-exit.o)
_impure_ptr                                       c:/vsarm/armcc/bin/../lib/gcc/arm-none-eabi/9.3.1/../../../../arm-none-eabi/lib/thumb/v7e-m+dp/hard\libc.a(lib_a-impure.o)
                                                  c:/vsarm/armcc/bin/../lib/gcc/arm-none-eabi/9.3.1/../../../../arm-none-eabi/lib/thumb/v7e-m+dp/hard\libc.a(lib_a-fclose.o)
                                                  c:/vsarm/armcc/bin/../lib/gcc/arm-none-eabi/9.3.1/../../../../arm-none-eabi/lib/thumb/v7e-m+dp/hard\libc.a(lib_a-wcrtomb.o)
                                                  c:/vsarm/armcc/bin/../lib/gcc/arm-none-eabi/9.3.1/../../../../arm-none-eabi/lib/thumb/v7e-m+dp/hard\libc.a(lib_a-wbuf.o)
                                                  c:/vsarm/armcc/bin/../lib/gcc/arm-none-eabi/9.3.1/../../../../arm-none-eabi/lib/thumb/v7e-m+dp/hard\libc.a(lib_a-signal.o)
                                                  c:/vsarm/armcc/bin/../lib/gcc/arm-none-eabi/9.3.1/../../../../arm-none-eabi/lib/thumb/v7e-m+dp/hard\libc.a(lib_a-fputwc.o)
                                                  c:/vsarm/armcc/bin/../lib/gcc/arm-none-eabi/9.3.1/../../../../arm-none-eabi/lib/thumb/v7e-m+dp/hard\libc.a(lib_a-findfp.o)
                                                  c:/vsarm/armcc/bin/../lib/gcc/arm-none-eabi/9.3.1/../../../../arm-none-eabi/lib/thumb/v7e-m+dp/hard\libc.a(lib_a-fflush.o)
                                                  c:/vsarm/armcc/bin/../lib/gcc/arm-none-eabi/9.3.1/../../../../arm-none-eabi/lib/thumb/v7e-m+dp/hard\libc.a(lib_a-wsetup.o)
                                                  c:/vsarm/armcc/bin/../lib/gcc/arm-none-eabi/9.3.1/../../../../arm-none-eabi/lib/thumb/v7e-m+dp/hard\libc.a(lib_a-vfiprintf.o)
                                                  c:/vsarm/armcc/bin/../lib/gcc/arm-none-eabi/9.3.1/../../../../arm-none-eabi/lib/thumb/v7e-m+dp/hard\libc.a(lib_a-reent.o)
                                                  c:/vsarm/armcc/bin/../lib/gcc/arm-none-eabi/9.3.1/../../../../arm-none-eabi/lib/thumb/v7e-m+dp/hard\libc.a(lib_a-locale.o)
                                                  c:/vsarm/armcc/bin/../lib/gcc/arm-none-eabi/9.3.1/../../../../arm-none-eabi/lib/thumb/v7e-m+dp/hard\libc.a(lib_a-fiprintf.o)
                                                  c:/vsarm/armcc/bin/../lib/gcc/arm-none-eabi/9.3.1/../../../../arm-none-eabi/lib/thumb/v7e-m+dp/hard\libc.a(lib_a-assert.o)
                                                  c:/vsarm/armcc/bin/../lib/gcc/arm-none-eabi/9.3.1/../../../../arm-none-eabi/lib/thumb/v7e-m+dp/hard\libc.a(lib_a-sprintf.o)
_init                                             c:/vsarm/armcc/bin/../lib/gcc/arm-none-eabi/9.3.1/thumb/v7e-m+dp/hard/crti.o
                                                  c:/vsarm/armcc/bin/../lib/gcc/arm-none-eabi/9.3.1/../../../../arm-none-eabi/lib/thumb/v7e-m+dp/hard\libc.a(lib_a-init.o)
_init_signal                                      c:/vsarm/armcc/bin/../lib/gcc/arm-none-eabi/9.3.1/../../../../arm-none-eabi/lib/thumb/v7e-m+dp/hard\libc.a(lib_a-signal.o)
_init_signal_r                                    c:/vsarm/armcc/bin/../lib/gcc/arm-none-eabi/9.3.1/../../../../arm-none-eabi/lib/thumb/v7e-m+dp/hard\libc.a(lib_a-signal.o)
_isatty                                           c:/vsarm/armcc/bin/../lib/gcc/arm-none-eabi/9.3.1/../../../../arm-none-eabi/lib/thumb/v7e-m+dp/hard\libnosys.a(isatty.o)
                                                  c:/vsarm/armcc/bin/../lib/gcc/arm-none-eabi/9.3.1/../../../../arm-none-eabi/lib/thumb/v7e-m+dp/hard\libc.a(lib_a-isattyr.o)
_isatty_r                                         c:/vsarm/armcc/bin/../lib/gcc/arm-none-eabi/9.3.1/../../../../arm-none-eabi/lib/thumb/v7e-m+dp/hard\libc.a(lib_a-isattyr.o)
                                                  c:/vsarm/armcc/bin/../lib/gcc/arm-none-eabi/9.3.1/../../../../arm-none-eabi/lib/thumb/v7e-m+dp/hard\libc.a(lib_a-makebuf.o)
_kill                                             c:/vsarm/armcc/bin/../lib/gcc/arm-none-eabi/9.3.1/../../../../arm-none-eabi/lib/thumb/v7e-m+dp/hard\libnosys.a(kill.o)
                                                  c:/vsarm/armcc/bin/../lib/gcc/arm-none-eabi/9.3.1/../../../../arm-none-eabi/lib/thumb/v7e-m+dp/hard\libc.a(lib_a-signalr.o)
_kill_r                                           c:/vsarm/armcc/bin/../lib/gcc/arm-none-eabi/9.3.1/../../../../arm-none-eabi/lib/thumb/v7e-m+dp/hard\libc.a(lib_a-signalr.o)
                                                  c:/vsarm/armcc/bin/../lib/gcc/arm-none-eabi/9.3.1/../../../../arm-none-eabi/lib/thumb/v7e-m+dp/hard\libc.a(lib_a-signal.o)
_localeconv_r                                     c:/vsarm/armcc/bin/../lib/gcc/arm-none-eabi/9.3.1/../../../../arm-none-eabi/lib/thumb/v7e-m+dp/hard\libc.a(lib_a-localeconv.o)
                                                  c:/vsarm/armcc/bin/../lib/gcc/arm-none-eabi/9.3.1/../../../../arm-none-eabi/lib/thumb/v7e-m+dp/hard\libc.a(lib_a-vfiprintf.o)
                                                  c:/vsarm/armcc/bin/../lib/gcc/arm-none-eabi/9.3.1/../../../../arm-none-eabi/lib/thumb/v7e-m+dp/hard\libc.a(lib_a-svfiprintf.o)
                                                  c:/vsarm/armcc/bin/../lib/gcc/arm-none-eabi/9.3.1/../../../../arm-none-eabi/lib/thumb/v7e-m+dp/hard\libc.a(lib_a-svfprintf.o)
_lseek                                            c:/vsarm/armcc/bin/../lib/gcc/arm-none-eabi/9.3.1/../../../../arm-none-eabi/lib/thumb/v7e-m+dp/hard\libnosys.a(lseek.o)
                                                  c:/vsarm/armcc/bin/../lib/gcc/arm-none-eabi/9.3.1/../../../../arm-none-eabi/lib/thumb/v7e-m+dp/hard\libc.a(lib_a-lseekr.o)
_lseek_r                                          c:/vsarm/armcc/bin/../lib/gcc/arm-none-eabi/9.3.1/../../../../arm-none-eabi/lib/thumb/v7e-m+dp/hard\libc.a(lib_a-lseekr.o)
                                                  c:/vsarm/armcc/bin/../lib/gcc/arm-none-eabi/9.3.1/../../../../arm-none-eabi/lib/thumb/v7e-m+dp/hard\libc.a(lib_a-stdio.o)
_mainCRTStartup                                   c:/vsarm/armcc/bin/../lib/gcc/arm-none-eabi/9.3.1/../../../../arm-none-eabi/lib/thumb/v7e-m+dp/hard/crt0.o
_malloc_r                                         c:/vsarm/armcc/bin/../lib/gcc/arm-none-eabi/9.3.1/../../../../arm-none-eabi/lib/thumb/v7e-m+dp/hard\libc.a(lib_a-mallocr.o)
                                                  c:/vsarm/armcc/bin/../lib/gcc/arm-none-eabi/9.3.1/../../../../arm-none-eabi/lib/thumb/v7e-m+dp/hard\libc.a(lib_a-signal.o)
                                                  c:/vsarm/armcc/bin/../lib/gcc/arm-none-eabi/9.3.1/../../../../arm-none-eabi/lib/thumb/v7e-m+dp/hard\libc.a(lib_a-makebuf.o)
                                                  c:/vsarm/armcc/bin/../lib/gcc/arm-none-eabi/9.3.1/../../../../arm-none-eabi/lib/thumb/v7e-m+dp/hard\libc.a(lib_a-fvwrite.o)
                                                  c:/vsarm/armcc/bin/../lib/gcc/arm-none-eabi/9.3.1/../../../../arm-none-eabi/lib/thumb/v7e-m+dp/hard\libc.a(lib_a-findfp.o)
                                                  c:/vsarm/armcc/bin/../lib/gcc/arm-none-eabi/9.3.1/../../../../arm-none-eabi/lib/thumb/v7e-m+dp/hard\libc.a(lib_a-reallocr.o)
                                                  c:/vsarm/armcc/bin/../lib/gcc/arm-none-eabi/9.3.1/../../../../arm-none-eabi/lib/thumb/v7e-m+dp/hard\libc.a(lib_a-callocr.o)
                                                  c:/vsarm/armcc/bin/../lib/gcc/arm-none-eabi/9.3.1/../../../../arm-none-eabi/lib/thumb/v7e-m+dp/hard\libc.a(lib_a-svfiprintf.o)
                                                  c:/vsarm/armcc/bin/../lib/gcc/arm-none-eabi/9.3.1/../../../../arm-none-eabi/lib/thumb/v7e-m+dp/hard\libc.a(lib_a-svfprintf.o)
_malloc_trim_r                                    c:/vsarm/armcc/bin/../lib/gcc/arm-none-eabi/9.3.1/../../../../arm-none-eabi/lib/thumb/v7e-m+dp/hard\libc.a(lib_a-freer.o)
_mbtowc_r                                         c:/vsarm/armcc/bin/../lib/gcc/arm-none-eabi/9.3.1/../../../../arm-none-eabi/lib/thumb/v7e-m+dp/hard\libc.a(lib_a-mbtowc_r.o)
_mprec_log10                                      c:/vsarm/armcc/bin/../lib/gcc/arm-none-eabi/9.3.1/../../../../arm-none-eabi/lib/thumb/v7e-m+dp/hard\libc.a(lib_a-mprec.o)
_raise_r                                          c:/vsarm/armcc/bin/../lib/gcc/arm-none-eabi/9.3.1/../../../../arm-none-eabi/lib/thumb/v7e-m+dp/hard\libc.a(lib_a-signal.o)
_read                                             c:/vsarm/armcc/bin/../lib/gcc/arm-none-eabi/9.3.1/../../../../arm-none-eabi/lib/thumb/v7e-m+dp/hard\libnosys.a(read.o)
                                                  c:/vsarm/armcc/bin/../lib/gcc/arm-none-eabi/9.3.1/../../../../arm-none-eabi/lib/thumb/v7e-m+dp/hard\libc.a(lib_a-readr.o)
_read_r                                           c:/vsarm/armcc/bin/../lib/gcc/arm-none-eabi/9.3.1/../../../../arm-none-eabi/lib/thumb/v7e-m+dp/hard\libc.a(lib_a-readr.o)
                                                  c:/vsarm/armcc/bin/../lib/gcc/arm-none-eabi/9.3.1/../../../../arm-none-eabi/lib/thumb/v7e-m+dp/hard\libc.a(lib_a-stdio.o)
_realloc_r                                        c:/vsarm/armcc/bin/../lib/gcc/arm-none-eabi/9.3.1/../../../../arm-none-eabi/lib/thumb/v7e-m+dp/hard\libc.a(lib_a-reallocr.o)
                                                  c:/vsarm/armcc/bin/../lib/gcc/arm-none-eabi/9.3.1/../../../../arm-none-eabi/lib/thumb/v7e-m+dp/hard\libc.a(lib_a-fvwrite.o)
                                                  c:/vsarm/armcc/bin/../lib/gcc/arm-none-eabi/9.3.1/../../../../arm-none-eabi/lib/thumb/v7e-m+dp/hard\libc.a(lib_a-svfiprintf.o)
_reclaim_reent                                    c:/vsarm/armcc/bin/../lib/gcc/arm-none-eabi/9.3.1/../../../../arm-none-eabi/lib/thumb/v7e-m+dp/hard\libc.a(lib_a-reent.o)
_sbrk                                             c:/vsarm/armcc/bin/../lib/gcc/arm-none-eabi/9.3.1/../../../../arm-none-eabi/lib/thumb/v7e-m+dp/hard\libnosys.a(sbrk.o)
                                                  c:/vsarm/armcc/bin/../lib/gcc/arm-none-eabi/9.3.1/../../../../arm-none-eabi/lib/thumb/v7e-m+dp/hard\libc.a(lib_a-sbrkr.o)
_sbrk_r                                           c:/vsarm/armcc/bin/../lib/gcc/arm-none-eabi/9.3.1/../../../../arm-none-eabi/lib/thumb/v7e-m+dp/hard\libc.a(lib_a-sbrkr.o)
                                                  c:/vsarm/armcc/bin/../lib/gcc/arm-none-eabi/9.3.1/../../../../arm-none-eabi/lib/thumb/v7e-m+dp/hard\libc.a(lib_a-mallocr.o)
                                                  c:/vsarm/armcc/bin/../lib/gcc/arm-none-eabi/9.3.1/../../../../arm-none-eabi/lib/thumb/v7e-m+dp/hard\libc.a(lib_a-freer.o)
_sbss                                             build/startup_stm32f767xx.o
_sdata                                            build/startup_stm32f767xx.o
_setlocale_r                                      c:/vsarm/armcc/bin/../lib/gcc/arm-none-eabi/9.3.1/../../../../arm-none-eabi/lib/thumb/v7e-m+dp/hard\libc.a(lib_a-locale.o)
_sidata                                           build/startup_stm32f767xx.o
_signal_r                                         c:/vsarm/armcc/bin/../lib/gcc/arm-none-eabi/9.3.1/../../../../arm-none-eabi/lib/thumb/v7e-m+dp/hard\libc.a(lib_a-signal.o)
_sprintf_r                                        c:/vsarm/armcc/bin/../lib/gcc/arm-none-eabi/9.3.1/../../../../arm-none-eabi/lib/thumb/v7e-m+dp/hard\libc.a(lib_a-sprintf.o)
_stack_init                                       c:/vsarm/armcc/bin/../lib/gcc/arm-none-eabi/9.3.1/../../../../arm-none-eabi/lib/thumb/v7e-m+dp/hard/crt0.o
_start                                            c:/vsarm/armcc/bin/../lib/gcc/arm-none-eabi/9.3.1/../../../../arm-none-eabi/lib/thumb/v7e-m+dp/hard/crt0.o
_svfiprintf_r                                     c:/vsarm/armcc/bin/../lib/gcc/arm-none-eabi/9.3.1/../../../../arm-none-eabi/lib/thumb/v7e-m+dp/hard\libc.a(lib_a-svfiprintf.o)
_svfprintf_r                                      c:/vsarm/armcc/bin/../lib/gcc/arm-none-eabi/9.3.1/../../../../arm-none-eabi/lib/thumb/v7e-m+dp/hard\libc.a(lib_a-svfprintf.o)
                                                  c:/vsarm/armcc/bin/../lib/gcc/arm-none-eabi/9.3.1/../../../../arm-none-eabi/lib/thumb/v7e-m+dp/hard\libc.a(lib_a-sprintf.o)
_vfiprintf_r                                      c:/vsarm/armcc/bin/../lib/gcc/arm-none-eabi/9.3.1/../../../../arm-none-eabi/lib/thumb/v7e-m+dp/hard\libc.a(lib_a-vfiprintf.o)
                                                  c:/vsarm/armcc/bin/../lib/gcc/arm-none-eabi/9.3.1/../../../../arm-none-eabi/lib/thumb/v7e-m+dp/hard\libc.a(lib_a-fiprintf.o)
_wcrtomb_r                                        c:/vsarm/armcc/bin/../lib/gcc/arm-none-eabi/9.3.1/../../../../arm-none-eabi/lib/thumb/v7e-m+dp/hard\libc.a(lib_a-wcrtomb.o)
                                                  c:/vsarm/armcc/bin/../lib/gcc/arm-none-eabi/9.3.1/../../../../arm-none-eabi/lib/thumb/v7e-m+dp/hard\libc.a(lib_a-fputwc.o)
_wctomb_r                                         c:/vsarm/armcc/bin/../lib/gcc/arm-none-eabi/9.3.1/../../../../arm-none-eabi/lib/thumb/v7e-m+dp/hard\libc.a(lib_a-wctomb_r.o)
_write                                            c:/vsarm/armcc/bin/../lib/gcc/arm-none-eabi/9.3.1/../../../../arm-none-eabi/lib/thumb/v7e-m+dp/hard\libnosys.a(write.o)
                                                  c:/vsarm/armcc/bin/../lib/gcc/arm-none-eabi/9.3.1/../../../../arm-none-eabi/lib/thumb/v7e-m+dp/hard\libc.a(lib_a-writer.o)
_write_r                                          c:/vsarm/armcc/bin/../lib/gcc/arm-none-eabi/9.3.1/../../../../arm-none-eabi/lib/thumb/v7e-m+dp/hard\libc.a(lib_a-writer.o)
                                                  c:/vsarm/armcc/bin/../lib/gcc/arm-none-eabi/9.3.1/../../../../arm-none-eabi/lib/thumb/v7e-m+dp/hard\libc.a(lib_a-stdio.o)
abort                                             c:/vsarm/armcc/bin/../lib/gcc/arm-none-eabi/9.3.1/../../../../arm-none-eabi/lib/thumb/v7e-m+dp/hard\libc.a(lib_a-abort.o)
                                                  c:/vsarm/armcc/bin/../lib/gcc/arm-none-eabi/9.3.1/../../../../arm-none-eabi/lib/thumb/v7e-m+dp/hard\libc.a(lib_a-assert.o)
atexit                                            c:/vsarm/armcc/bin/../lib/gcc/arm-none-eabi/9.3.1/../../../../arm-none-eabi/lib/thumb/v7e-m+dp/hard\libc.a(lib_a-atexit.o)
                                                  c:/vsarm/armcc/bin/../lib/gcc/arm-none-eabi/9.3.1/../../../../arm-none-eabi/lib/thumb/v7e-m+dp/hard\libc.a(lib_a-__call_atexit.o)
                                                  c:/vsarm/armcc/bin/../lib/gcc/arm-none-eabi/9.3.1/../../../../arm-none-eabi/lib/thumb/v7e-m+dp/hard/crt0.o
b                                                 build/main.o
cleanup_glue                                      c:/vsarm/armcc/bin/../lib/gcc/arm-none-eabi/9.3.1/../../../../arm-none-eabi/lib/thumb/v7e-m+dp/hard\libc.a(lib_a-reent.o)
clearUART                                         build/main.o
cmdBuffer                                         build/main.o
convert_565                                       build/main.o
dataBuffer                                        build/main.o
end                                               c:/vsarm/armcc/bin/../lib/gcc/arm-none-eabi/9.3.1/../../../../arm-none-eabi/lib/thumb/v7e-m+dp/hard\libnosys.a(sbrk.o)
errno                                             c:/vsarm/armcc/bin/../lib/gcc/arm-none-eabi/9.3.1/../../../../arm-none-eabi/lib/thumb/v7e-m+dp/hard\libc.a(lib_a-reent.o)
                                                  c:/vsarm/armcc/bin/../lib/gcc/arm-none-eabi/9.3.1/../../../../arm-none-eabi/lib/thumb/v7e-m+dp/hard\libnosys.a(write.o)
                                                  c:/vsarm/armcc/bin/../lib/gcc/arm-none-eabi/9.3.1/../../../../arm-none-eabi/lib/thumb/v7e-m+dp/hard\libnosys.a(read.o)
                                                  c:/vsarm/armcc/bin/../lib/gcc/arm-none-eabi/9.3.1/../../../../arm-none-eabi/lib/thumb/v7e-m+dp/hard\libnosys.a(lseek.o)
                                                  c:/vsarm/armcc/bin/../lib/gcc/arm-none-eabi/9.3.1/../../../../arm-none-eabi/lib/thumb/v7e-m+dp/hard\libnosys.a(kill.o)
                                                  c:/vsarm/armcc/bin/../lib/gcc/arm-none-eabi/9.3.1/../../../../arm-none-eabi/lib/thumb/v7e-m+dp/hard\libnosys.a(isatty.o)
                                                  c:/vsarm/armcc/bin/../lib/gcc/arm-none-eabi/9.3.1/../../../../arm-none-eabi/lib/thumb/v7e-m+dp/hard\libnosys.a(getpid.o)
                                                  c:/vsarm/armcc/bin/../lib/gcc/arm-none-eabi/9.3.1/../../../../arm-none-eabi/lib/thumb/v7e-m+dp/hard\libnosys.a(fstat.o)
                                                  c:/vsarm/armcc/bin/../lib/gcc/arm-none-eabi/9.3.1/../../../../arm-none-eabi/lib/thumb/v7e-m+dp/hard\libnosys.a(close.o)
                                                  c:/vsarm/armcc/bin/../lib/gcc/arm-none-eabi/9.3.1/../../../../arm-none-eabi/lib/thumb/v7e-m+dp/hard\libc.a(lib_a-readr.o)
                                                  c:/vsarm/armcc/bin/../lib/gcc/arm-none-eabi/9.3.1/../../../../arm-none-eabi/lib/thumb/v7e-m+dp/hard\libc.a(lib_a-lseekr.o)
                                                  c:/vsarm/armcc/bin/../lib/gcc/arm-none-eabi/9.3.1/../../../../arm-none-eabi/lib/thumb/v7e-m+dp/hard\libc.a(lib_a-isattyr.o)
                                                  c:/vsarm/armcc/bin/../lib/gcc/arm-none-eabi/9.3.1/../../../../arm-none-eabi/lib/thumb/v7e-m+dp/hard\libc.a(lib_a-fstatr.o)
                                                  c:/vsarm/armcc/bin/../lib/gcc/arm-none-eabi/9.3.1/../../../../arm-none-eabi/lib/thumb/v7e-m+dp/hard\libc.a(lib_a-closer.o)
                                                  c:/vsarm/armcc/bin/../lib/gcc/arm-none-eabi/9.3.1/../../../../arm-none-eabi/lib/thumb/v7e-m+dp/hard\libc.a(lib_a-writer.o)
                                                  c:/vsarm/armcc/bin/../lib/gcc/arm-none-eabi/9.3.1/../../../../arm-none-eabi/lib/thumb/v7e-m+dp/hard\libc.a(lib_a-signalr.o)
                                                  c:/vsarm/armcc/bin/../lib/gcc/arm-none-eabi/9.3.1/../../../../arm-none-eabi/lib/thumb/v7e-m+dp/hard\libc.a(lib_a-sbrkr.o)
exit                                              c:/vsarm/armcc/bin/../lib/gcc/arm-none-eabi/9.3.1/../../../../arm-none-eabi/lib/thumb/v7e-m+dp/hard\libc.a(lib_a-exit.o)
                                                  c:/vsarm/armcc/bin/../lib/gcc/arm-none-eabi/9.3.1/../../../../arm-none-eabi/lib/thumb/v7e-m+dp/hard/crt0.o
fclose                                            c:/vsarm/armcc/bin/../lib/gcc/arm-none-eabi/9.3.1/../../../../arm-none-eabi/lib/thumb/v7e-m+dp/hard\libc.a(lib_a-fclose.o)
fflush                                            c:/vsarm/armcc/bin/../lib/gcc/arm-none-eabi/9.3.1/../../../../arm-none-eabi/lib/thumb/v7e-m+dp/hard\libc.a(lib_a-fflush.o)
fiprintf                                          c:/vsarm/armcc/bin/../lib/gcc/arm-none-eabi/9.3.1/../../../../arm-none-eabi/lib/thumb/v7e-m+dp/hard\libc.a(lib_a-fiprintf.o)
                                                  c:/vsarm/armcc/bin/../lib/gcc/arm-none-eabi/9.3.1/../../../../arm-none-eabi/lib/thumb/v7e-m+dp/hard\libc.a(lib_a-assert.o)
fputwc                                            c:/vsarm/armcc/bin/../lib/gcc/arm-none-eabi/9.3.1/../../../../arm-none-eabi/lib/thumb/v7e-m+dp/hard\libc.a(lib_a-fputwc.o)
frexp                                             c:/vsarm/armcc/bin/../lib/gcc/arm-none-eabi/9.3.1/../../../../arm-none-eabi/lib/thumb/v7e-m+dp/hard\libc.a(lib_a-s_frexp.o)
                                                  c:/vsarm/armcc/bin/../lib/gcc/arm-none-eabi/9.3.1/../../../../arm-none-eabi/lib/thumb/v7e-m+dp/hard\libc.a(lib_a-svfprintf.o)
g                                                 build/main.o
g_pfnVectors                                      build/startup_stm32f767xx.o
getch                                             build/main.o
h                                                 build/main.o
h3_getch                                          build/main.o
h3_print                                          build/main.o
h3_printc                                         build/main.o
h3_println                                        build/main.o
hardware_init_hook                                c:/vsarm/armcc/bin/../lib/gcc/arm-none-eabi/9.3.1/../../../../arm-none-eabi/lib/thumb/v7e-m+dp/hard/crt0.o
hi2c1                                             build/i2c.o
                                                  build/main.o
hrng                                              build/rng.o
hspi5                                             build/spi.o
                                                  build/ILI9341_STM32_Driver.o
                                                  build/ILI9341_GFX.o
htim1                                             build/tim.o
                                                  build/main.o
htim2                                             build/tim.o
                                                  build/stm32f7xx_it.o
huart3                                            build/usart.o
                                                  build/main.o
last                                              build/main.o
localeconv                                        c:/vsarm/armcc/bin/../lib/gcc/arm-none-eabi/9.3.1/../../../../arm-none-eabi/lib/thumb/v7e-m+dp/hard\libc.a(lib_a-localeconv.o)
main                                              build/main.o
                                                  build/startup_stm32f767xx.o
                                                  c:/vsarm/armcc/bin/../lib/gcc/arm-none-eabi/9.3.1/../../../../arm-none-eabi/lib/thumb/v7e-m+dp/hard/crt0.o
memchr                                            c:/vsarm/armcc/bin/../lib/gcc/arm-none-eabi/9.3.1/../../../../arm-none-eabi/lib/thumb/v7e-m+dp/hard\libc.a(lib_a-memchr.o)
                                                  c:/vsarm/armcc/bin/../lib/gcc/arm-none-eabi/9.3.1/../../../../arm-none-eabi/lib/thumb/v7e-m+dp/hard\libc.a(lib_a-fvwrite.o)
                                                  c:/vsarm/armcc/bin/../lib/gcc/arm-none-eabi/9.3.1/../../../../arm-none-eabi/lib/thumb/v7e-m+dp/hard\libc.a(lib_a-vfiprintf.o)
                                                  c:/vsarm/armcc/bin/../lib/gcc/arm-none-eabi/9.3.1/../../../../arm-none-eabi/lib/thumb/v7e-m+dp/hard\libc.a(lib_a-svfiprintf.o)
                                                  c:/vsarm/armcc/bin/../lib/gcc/arm-none-eabi/9.3.1/../../../../arm-none-eabi/lib/thumb/v7e-m+dp/hard\libc.a(lib_a-svfprintf.o)
memcpy                                            c:/vsarm/armcc/bin/../lib/gcc/arm-none-eabi/9.3.1/../../../../arm-none-eabi/lib/thumb/v7e-m+dp/hard\libc.a(lib_a-memcpy.o)
                                                  c:/vsarm/armcc/bin/../lib/gcc/arm-none-eabi/9.3.1/../../../../arm-none-eabi/lib/thumb/v7e-m+dp/hard\libc.a(lib_a-fvwrite.o)
                                                  c:/vsarm/armcc/bin/../lib/gcc/arm-none-eabi/9.3.1/../../../../arm-none-eabi/lib/thumb/v7e-m+dp/hard\libc.a(lib_a-svfiprintf.o)
                                                  c:/vsarm/armcc/bin/../lib/gcc/arm-none-eabi/9.3.1/../../../../arm-none-eabi/lib/thumb/v7e-m+dp/hard\libc.a(lib_a-mprec.o)
                                                  c:/vsarm/armcc/bin/../lib/gcc/arm-none-eabi/9.3.1/../../../../arm-none-eabi/lib/thumb/v7e-m+dp/hard\libc.a(lib_a-dtoa.o)
memmove                                           c:/vsarm/armcc/bin/../lib/gcc/arm-none-eabi/9.3.1/../../../../arm-none-eabi/lib/thumb/v7e-m+dp/hard\libc.a(lib_a-memmove.o)
                                                  c:/vsarm/armcc/bin/../lib/gcc/arm-none-eabi/9.3.1/../../../../arm-none-eabi/lib/thumb/v7e-m+dp/hard\libc.a(lib_a-fvwrite.o)
                                                  c:/vsarm/armcc/bin/../lib/gcc/arm-none-eabi/9.3.1/../../../../arm-none-eabi/lib/thumb/v7e-m+dp/hard\libc.a(lib_a-reallocr.o)
                                                  c:/vsarm/armcc/bin/../lib/gcc/arm-none-eabi/9.3.1/../../../../arm-none-eabi/lib/thumb/v7e-m+dp/hard\libc.a(lib_a-svfiprintf.o)
memset                                            c:/vsarm/armcc/bin/../lib/gcc/arm-none-eabi/9.3.1/../../../../arm-none-eabi/lib/thumb/v7e-m+dp/hard\libc.a(lib_a-memset.o)
                                                  c:/vsarm/armcc/bin/../lib/gcc/arm-none-eabi/9.3.1/../../../../arm-none-eabi/lib/thumb/v7e-m+dp/hard\libc.a(lib_a-findfp.o)
                                                  c:/vsarm/armcc/bin/../lib/gcc/arm-none-eabi/9.3.1/../../../../arm-none-eabi/lib/thumb/v7e-m+dp/hard\libc.a(lib_a-callocr.o)
                                                  build/main.o
                                                  c:/vsarm/armcc/bin/../lib/gcc/arm-none-eabi/9.3.1/../../../../arm-none-eabi/lib/thumb/v7e-m+dp/hard/crt0.o
pFlash                                            build/stm32f7xx_hal_flash.o
                                                  build/stm32f7xx_hal_flash_ex.o
print                                             build/main.o
printc                                            build/main.o
println                                           build/main.o
r                                                 build/main.o
raise                                             c:/vsarm/armcc/bin/../lib/gcc/arm-none-eabi/9.3.1/../../../../arm-none-eabi/lib/thumb/v7e-m+dp/hard\libc.a(lib_a-signal.o)
                                                  c:/vsarm/armcc/bin/../lib/gcc/arm-none-eabi/9.3.1/../../../../arm-none-eabi/lib/thumb/v7e-m+dp/hard\libc.a(lib_a-abort.o)
readAM2320                                        build/main.o
setlocale                                         c:/vsarm/armcc/bin/../lib/gcc/arm-none-eabi/9.3.1/../../../../arm-none-eabi/lib/thumb/v7e-m+dp/hard\libc.a(lib_a-locale.o)
signal                                            c:/vsarm/armcc/bin/../lib/gcc/arm-none-eabi/9.3.1/../../../../arm-none-eabi/lib/thumb/v7e-m+dp/hard\libc.a(lib_a-signal.o)
snow_tiger                                        build/main.o
software_init_hook                                c:/vsarm/armcc/bin/../lib/gcc/arm-none-eabi/9.3.1/../../../../arm-none-eabi/lib/thumb/v7e-m+dp/hard/crt0.o
sprintf                                           c:/vsarm/armcc/bin/../lib/gcc/arm-none-eabi/9.3.1/../../../../arm-none-eabi/lib/thumb/v7e-m+dp/hard\libc.a(lib_a-sprintf.o)
                                                  build/main.o
status                                            build/main.o
step                                              build/main.o
str                                               build/main.o
strcmp                                            c:/vsarm/armcc/bin/../lib/gcc/arm-none-eabi/9.3.1/../../../../arm-none-eabi/lib/thumb/v7e-m+dp/hard\libc.a(lib_a-strcmp.o)
                                                  c:/vsarm/armcc/bin/../lib/gcc/arm-none-eabi/9.3.1/../../../../arm-none-eabi/lib/thumb/v7e-m+dp/hard\libc.a(lib_a-locale.o)
strlen                                            c:/vsarm/armcc/bin/../lib/gcc/arm-none-eabi/9.3.1/../../../../arm-none-eabi/lib/thumb/v7e-m+dp/hard\libc.a(lib_a-strlen.o)
                                                  c:/vsarm/armcc/bin/../lib/gcc/arm-none-eabi/9.3.1/../../../../arm-none-eabi/lib/thumb/v7e-m+dp/hard\libc.a(lib_a-vfiprintf.o)
                                                  c:/vsarm/armcc/bin/../lib/gcc/arm-none-eabi/9.3.1/../../../../arm-none-eabi/lib/thumb/v7e-m+dp/hard\libc.a(lib_a-svfiprintf.o)
                                                  c:/vsarm/armcc/bin/../lib/gcc/arm-none-eabi/9.3.1/../../../../arm-none-eabi/lib/thumb/v7e-m+dp/hard\libc.a(lib_a-svfprintf.o)
                                                  build/main.o
strncpy                                           c:/vsarm/armcc/bin/../lib/gcc/arm-none-eabi/9.3.1/../../../../arm-none-eabi/lib/thumb/v7e-m+dp/hard\libc.a(lib_a-strncpy.o)
                                                  c:/vsarm/armcc/bin/../lib/gcc/arm-none-eabi/9.3.1/../../../../arm-none-eabi/lib/thumb/v7e-m+dp/hard\libc.a(lib_a-vfiprintf.o)
                                                  c:/vsarm/armcc/bin/../lib/gcc/arm-none-eabi/9.3.1/../../../../arm-none-eabi/lib/thumb/v7e-m+dp/hard\libc.a(lib_a-svfiprintf.o)
                                                  c:/vsarm/armcc/bin/../lib/gcc/arm-none-eabi/9.3.1/../../../../arm-none-eabi/lib/thumb/v7e-m+dp/hard\libc.a(lib_a-svfprintf.o)
t                                                 build/main.o
tick                                              build/main.o
                                                  build/stm32f7xx_it.o
uwTick                                            build/stm32f7xx_hal.o
uwTickFreq                                        build/stm32f7xx_hal.o
uwTickPrio                                        build/stm32f7xx_hal.o
vfiprintf                                         c:/vsarm/armcc/bin/../lib/gcc/arm-none-eabi/9.3.1/../../../../arm-none-eabi/lib/thumb/v7e-m+dp/hard\libc.a(lib_a-vfiprintf.o)
wcrtomb                                           c:/vsarm/armcc/bin/../lib/gcc/arm-none-eabi/9.3.1/../../../../arm-none-eabi/lib/thumb/v7e-m+dp/hard\libc.a(lib_a-wcrtomb.o)
