ARM GAS  C:\Users\Haruka\AppData\Local\Temp\ccgT5NLw.s 			page 1


   1              		.cpu cortex-m7
   2              		.eabi_attribute 28, 1
   3              		.eabi_attribute 20, 1
   4              		.eabi_attribute 21, 1
   5              		.eabi_attribute 23, 3
   6              		.eabi_attribute 24, 1
   7              		.eabi_attribute 25, 1
   8              		.eabi_attribute 26, 1
   9              		.eabi_attribute 30, 1
  10              		.eabi_attribute 34, 1
  11              		.eabi_attribute 18, 4
  12              		.file	"main.c"
  13              		.text
  14              	.Ltext0:
  15              		.cfi_sections	.debug_frame
  16              		.section	.text.h3_print,"ax",%progbits
  17              		.align	1
  18              		.global	h3_print
  19              		.arch armv7e-m
  20              		.syntax unified
  21              		.thumb
  22              		.thumb_func
  23              		.fpu fpv5-d16
  25              	h3_print:
  26              	.LVL0:
  27              	.LFB144:
  28              		.file 1 "Src/stm32_print.h"
   1:Src/stm32_print.h **** #include "usart.h"
   2:Src/stm32_print.h **** #include "string.h"
   3:Src/stm32_print.h **** 
   4:Src/stm32_print.h **** extern UART_HandleTypeDef huart3;
   5:Src/stm32_print.h **** 
   6:Src/stm32_print.h **** struct _Serial {
   7:Src/stm32_print.h ****     void (*print)(char *str);
   8:Src/stm32_print.h ****     void (*println)(char *str);
   9:Src/stm32_print.h ****     void (*printc)(char ch);
  10:Src/stm32_print.h ****     char (*getch)();
  11:Src/stm32_print.h **** };
  12:Src/stm32_print.h **** 
  13:Src/stm32_print.h **** void h3_print(char *str){
  29              		.loc 1 13 25 view -0
  30              		.cfi_startproc
  31              		@ args = 0, pretend = 0, frame = 0
  32              		@ frame_needed = 0, uses_anonymous_args = 0
  33              		.loc 1 13 25 is_stmt 0 view .LVU1
  34 0000 10B5     		push	{r4, lr}
  35              	.LCFI0:
  36              		.cfi_def_cfa_offset 8
  37              		.cfi_offset 4, -8
  38              		.cfi_offset 14, -4
  39 0002 0446     		mov	r4, r0
  14:Src/stm32_print.h ****     while(__HAL_UART_GET_FLAG(&huart3,UART_FLAG_TC)==RESET){}
  40              		.loc 1 14 5 is_stmt 1 view .LVU2
  41              	.L2:
  42              		.loc 1 14 61 discriminator 1 view .LVU3
  43              		.loc 1 14 10 discriminator 1 view .LVU4
  44              		.loc 1 14 11 is_stmt 0 discriminator 1 view .LVU5
ARM GAS  C:\Users\Haruka\AppData\Local\Temp\ccgT5NLw.s 			page 2


  45 0004 084B     		ldr	r3, .L4
  46 0006 1B68     		ldr	r3, [r3]
  47 0008 DB69     		ldr	r3, [r3, #28]
  48              		.loc 1 14 10 discriminator 1 view .LVU6
  49 000a 13F0400F 		tst	r3, #64
  50 000e F9D0     		beq	.L2
  15:Src/stm32_print.h ****     HAL_UART_Transmit(&huart3, (uint8_t*) str, strlen(str),1000);
  51              		.loc 1 15 5 is_stmt 1 view .LVU7
  52              		.loc 1 15 48 is_stmt 0 view .LVU8
  53 0010 2046     		mov	r0, r4
  54              	.LVL1:
  55              		.loc 1 15 48 view .LVU9
  56 0012 FFF7FEFF 		bl	strlen
  57              	.LVL2:
  58              		.loc 1 15 5 view .LVU10
  59 0016 4FF47A73 		mov	r3, #1000
  60 001a 82B2     		uxth	r2, r0
  61 001c 2146     		mov	r1, r4
  62 001e 0248     		ldr	r0, .L4
  63 0020 FFF7FEFF 		bl	HAL_UART_Transmit
  64              	.LVL3:
  16:Src/stm32_print.h **** }
  65              		.loc 1 16 1 view .LVU11
  66 0024 10BD     		pop	{r4, pc}
  67              	.LVL4:
  68              	.L5:
  69              		.loc 1 16 1 view .LVU12
  70 0026 00BF     		.align	2
  71              	.L4:
  72 0028 00000000 		.word	huart3
  73              		.cfi_endproc
  74              	.LFE144:
  76              		.section	.rodata.h3_println.str1.4,"aMS",%progbits,1
  77              		.align	2
  78              	.LC0:
  79 0000 0D0A00   		.ascii	"\015\012\000"
  80              		.section	.text.h3_println,"ax",%progbits
  81              		.align	1
  82              		.global	h3_println
  83              		.syntax unified
  84              		.thumb
  85              		.thumb_func
  86              		.fpu fpv5-d16
  88              	h3_println:
  89              	.LVL5:
  90              	.LFB145:
  17:Src/stm32_print.h **** 
  18:Src/stm32_print.h **** void h3_println(char *str){
  91              		.loc 1 18 27 is_stmt 1 view -0
  92              		.cfi_startproc
  93              		@ args = 0, pretend = 0, frame = 0
  94              		@ frame_needed = 0, uses_anonymous_args = 0
  95              		.loc 1 18 27 is_stmt 0 view .LVU14
  96 0000 10B5     		push	{r4, lr}
  97              	.LCFI1:
  98              		.cfi_def_cfa_offset 8
  99              		.cfi_offset 4, -8
ARM GAS  C:\Users\Haruka\AppData\Local\Temp\ccgT5NLw.s 			page 3


 100              		.cfi_offset 14, -4
 101 0002 0446     		mov	r4, r0
  19:Src/stm32_print.h ****     while(__HAL_UART_GET_FLAG(&huart3,UART_FLAG_TC)==RESET){}
 102              		.loc 1 19 5 is_stmt 1 view .LVU15
 103              	.L7:
 104              		.loc 1 19 61 discriminator 1 view .LVU16
 105              		.loc 1 19 10 discriminator 1 view .LVU17
 106              		.loc 1 19 11 is_stmt 0 discriminator 1 view .LVU18
 107 0004 094B     		ldr	r3, .L9
 108 0006 1B68     		ldr	r3, [r3]
 109 0008 DB69     		ldr	r3, [r3, #28]
 110              		.loc 1 19 10 discriminator 1 view .LVU19
 111 000a 13F0400F 		tst	r3, #64
 112 000e F9D0     		beq	.L7
  20:Src/stm32_print.h ****     HAL_UART_Transmit(&huart3, (uint8_t*) str, strlen(str),1000);
 113              		.loc 1 20 5 is_stmt 1 view .LVU20
 114              		.loc 1 20 48 is_stmt 0 view .LVU21
 115 0010 2046     		mov	r0, r4
 116              	.LVL6:
 117              		.loc 1 20 48 view .LVU22
 118 0012 FFF7FEFF 		bl	strlen
 119              	.LVL7:
 120              		.loc 1 20 5 view .LVU23
 121 0016 4FF47A73 		mov	r3, #1000
 122 001a 82B2     		uxth	r2, r0
 123 001c 2146     		mov	r1, r4
 124 001e 0348     		ldr	r0, .L9
 125 0020 FFF7FEFF 		bl	HAL_UART_Transmit
 126              	.LVL8:
  21:Src/stm32_print.h ****     h3_print("\r\n");
 127              		.loc 1 21 5 is_stmt 1 view .LVU24
 128 0024 0248     		ldr	r0, .L9+4
 129 0026 FFF7FEFF 		bl	h3_print
 130              	.LVL9:
  22:Src/stm32_print.h **** }
 131              		.loc 1 22 1 is_stmt 0 view .LVU25
 132 002a 10BD     		pop	{r4, pc}
 133              	.LVL10:
 134              	.L10:
 135              		.loc 1 22 1 view .LVU26
 136              		.align	2
 137              	.L9:
 138 002c 00000000 		.word	huart3
 139 0030 00000000 		.word	.LC0
 140              		.cfi_endproc
 141              	.LFE145:
 143              		.section	.text.h3_printc,"ax",%progbits
 144              		.align	1
 145              		.global	h3_printc
 146              		.syntax unified
 147              		.thumb
 148              		.thumb_func
 149              		.fpu fpv5-d16
 151              	h3_printc:
 152              	.LVL11:
 153              	.LFB146:
  23:Src/stm32_print.h **** 
ARM GAS  C:\Users\Haruka\AppData\Local\Temp\ccgT5NLw.s 			page 4


  24:Src/stm32_print.h **** void h3_printc(char ch){
 154              		.loc 1 24 24 is_stmt 1 view -0
 155              		.cfi_startproc
 156              		@ args = 0, pretend = 0, frame = 8
 157              		@ frame_needed = 0, uses_anonymous_args = 0
 158              		.loc 1 24 24 is_stmt 0 view .LVU28
 159 0000 00B5     		push	{lr}
 160              	.LCFI2:
 161              		.cfi_def_cfa_offset 4
 162              		.cfi_offset 14, -4
 163 0002 83B0     		sub	sp, sp, #12
 164              	.LCFI3:
 165              		.cfi_def_cfa_offset 16
 166 0004 8DF80700 		strb	r0, [sp, #7]
  25:Src/stm32_print.h ****     while(__HAL_UART_GET_FLAG(&huart3,UART_FLAG_TC)==RESET){}
 167              		.loc 1 25 5 is_stmt 1 view .LVU29
 168              	.L12:
 169              		.loc 1 25 61 discriminator 1 view .LVU30
 170              		.loc 1 25 10 discriminator 1 view .LVU31
 171              		.loc 1 25 11 is_stmt 0 discriminator 1 view .LVU32
 172 0008 084B     		ldr	r3, .L14
 173 000a 1B68     		ldr	r3, [r3]
 174 000c DB69     		ldr	r3, [r3, #28]
 175              		.loc 1 25 10 discriminator 1 view .LVU33
 176 000e 13F0400F 		tst	r3, #64
 177 0012 F9D0     		beq	.L12
  26:Src/stm32_print.h ****     HAL_UART_Transmit(&huart3, (uint8_t*) &ch, 1,1000);
 178              		.loc 1 26 5 is_stmt 1 view .LVU34
 179 0014 4FF47A73 		mov	r3, #1000
 180 0018 0122     		movs	r2, #1
 181 001a 0DF10701 		add	r1, sp, #7
 182 001e 0348     		ldr	r0, .L14
 183              	.LVL12:
 184              		.loc 1 26 5 is_stmt 0 view .LVU35
 185 0020 FFF7FEFF 		bl	HAL_UART_Transmit
 186              	.LVL13:
  27:Src/stm32_print.h **** }
 187              		.loc 1 27 1 view .LVU36
 188 0024 03B0     		add	sp, sp, #12
 189              	.LCFI4:
 190              		.cfi_def_cfa_offset 4
 191              		@ sp needed
 192 0026 5DF804FB 		ldr	pc, [sp], #4
 193              	.L15:
 194 002a 00BF     		.align	2
 195              	.L14:
 196 002c 00000000 		.word	huart3
 197              		.cfi_endproc
 198              	.LFE146:
 200              		.section	.text.h3_getch,"ax",%progbits
 201              		.align	1
 202              		.global	h3_getch
 203              		.syntax unified
 204              		.thumb
 205              		.thumb_func
 206              		.fpu fpv5-d16
 208              	h3_getch:
ARM GAS  C:\Users\Haruka\AppData\Local\Temp\ccgT5NLw.s 			page 5


 209              	.LFB147:
  28:Src/stm32_print.h **** 
  29:Src/stm32_print.h **** char h3_getch(){
 210              		.loc 1 29 16 is_stmt 1 view -0
 211              		.cfi_startproc
 212              		@ args = 0, pretend = 0, frame = 8
 213              		@ frame_needed = 0, uses_anonymous_args = 0
 214 0000 00B5     		push	{lr}
 215              	.LCFI5:
 216              		.cfi_def_cfa_offset 4
 217              		.cfi_offset 14, -4
 218 0002 83B0     		sub	sp, sp, #12
 219              	.LCFI6:
 220              		.cfi_def_cfa_offset 16
 221              	.L17:
  30:Src/stm32_print.h ****     char ch1;
  31:Src/stm32_print.h **** 	while(__HAL_UART_GET_FLAG(&huart3,UART_FLAG_RXNE)== RESET){}
 222              		.loc 1 31 61 discriminator 1 view .LVU38
 223              		.loc 1 31 7 discriminator 1 view .LVU39
 224              		.loc 1 31 8 is_stmt 0 discriminator 1 view .LVU40
 225 0004 094B     		ldr	r3, .L19
 226 0006 1B68     		ldr	r3, [r3]
 227 0008 DB69     		ldr	r3, [r3, #28]
 228              		.loc 1 31 7 discriminator 1 view .LVU41
 229 000a 13F0200F 		tst	r3, #32
 230 000e F9D0     		beq	.L17
  32:Src/stm32_print.h **** 	HAL_UART_Receive(&huart3, (uint8_t*) &ch1, 1, 1000);
 231              		.loc 1 32 2 is_stmt 1 view .LVU42
 232 0010 4FF47A73 		mov	r3, #1000
 233 0014 0122     		movs	r2, #1
 234 0016 0DF10701 		add	r1, sp, #7
 235 001a 0448     		ldr	r0, .L19
 236 001c FFF7FEFF 		bl	HAL_UART_Receive
 237              	.LVL14:
  33:Src/stm32_print.h **** 	return ch1;
 238              		.loc 1 33 2 view .LVU43
  34:Src/stm32_print.h **** }
 239              		.loc 1 34 1 is_stmt 0 view .LVU44
 240 0020 9DF80700 		ldrb	r0, [sp, #7]	@ zero_extendqisi2
 241 0024 03B0     		add	sp, sp, #12
 242              	.LCFI7:
 243              		.cfi_def_cfa_offset 4
 244              		@ sp needed
 245 0026 5DF804FB 		ldr	pc, [sp], #4
 246              	.L20:
 247 002a 00BF     		.align	2
 248              	.L19:
 249 002c 00000000 		.word	huart3
 250              		.cfi_endproc
 251              	.LFE147:
 253              		.section	.text.print,"ax",%progbits
 254              		.align	1
 255              		.global	print
 256              		.syntax unified
 257              		.thumb
 258              		.thumb_func
 259              		.fpu fpv5-d16
ARM GAS  C:\Users\Haruka\AppData\Local\Temp\ccgT5NLw.s 			page 6


 261              	print:
 262              	.LVL15:
 263              	.LFB148:
  35:Src/stm32_print.h **** 
  36:Src/stm32_print.h **** struct _Serial Serial = (struct _Serial){.print=h3_print, .println=h3_println, .printc=h3_printc, .
  37:Src/stm32_print.h **** 
  38:Src/stm32_print.h **** void print(UART_HandleTypeDef *_huart, char *str){
 264              		.loc 1 38 50 is_stmt 1 view -0
 265              		.cfi_startproc
 266              		@ args = 0, pretend = 0, frame = 0
 267              		@ frame_needed = 0, uses_anonymous_args = 0
 268              		.loc 1 38 50 is_stmt 0 view .LVU46
 269 0000 38B5     		push	{r3, r4, r5, lr}
 270              	.LCFI8:
 271              		.cfi_def_cfa_offset 16
 272              		.cfi_offset 3, -16
 273              		.cfi_offset 4, -12
 274              		.cfi_offset 5, -8
 275              		.cfi_offset 14, -4
 276 0002 0446     		mov	r4, r0
 277 0004 0D46     		mov	r5, r1
  39:Src/stm32_print.h ****     while(__HAL_UART_GET_FLAG(_huart,UART_FLAG_TC)==RESET){}
 278              		.loc 1 39 5 is_stmt 1 view .LVU47
 279              	.L22:
 280              		.loc 1 39 60 discriminator 1 view .LVU48
 281              		.loc 1 39 10 discriminator 1 view .LVU49
 282              		.loc 1 39 11 is_stmt 0 discriminator 1 view .LVU50
 283 0006 2368     		ldr	r3, [r4]
 284 0008 DB69     		ldr	r3, [r3, #28]
 285              		.loc 1 39 10 discriminator 1 view .LVU51
 286 000a 13F0400F 		tst	r3, #64
 287 000e FAD0     		beq	.L22
  40:Src/stm32_print.h ****     HAL_UART_Transmit(_huart, (uint8_t*) str, strlen(str),1000);
 288              		.loc 1 40 5 is_stmt 1 view .LVU52
 289              		.loc 1 40 47 is_stmt 0 view .LVU53
 290 0010 2846     		mov	r0, r5
 291              	.LVL16:
 292              		.loc 1 40 47 view .LVU54
 293 0012 FFF7FEFF 		bl	strlen
 294              	.LVL17:
 295              		.loc 1 40 5 view .LVU55
 296 0016 4FF47A73 		mov	r3, #1000
 297 001a 82B2     		uxth	r2, r0
 298 001c 2946     		mov	r1, r5
 299 001e 2046     		mov	r0, r4
 300 0020 FFF7FEFF 		bl	HAL_UART_Transmit
 301              	.LVL18:
  41:Src/stm32_print.h **** }
 302              		.loc 1 41 1 view .LVU56
 303 0024 38BD     		pop	{r3, r4, r5, pc}
 304              		.loc 1 41 1 view .LVU57
 305              		.cfi_endproc
 306              	.LFE148:
 308              		.section	.text.println,"ax",%progbits
 309              		.align	1
 310              		.global	println
 311              		.syntax unified
ARM GAS  C:\Users\Haruka\AppData\Local\Temp\ccgT5NLw.s 			page 7


 312              		.thumb
 313              		.thumb_func
 314              		.fpu fpv5-d16
 316              	println:
 317              	.LVL19:
 318              	.LFB149:
  42:Src/stm32_print.h **** 
  43:Src/stm32_print.h **** void println(UART_HandleTypeDef *_huart, char *str){
 319              		.loc 1 43 52 is_stmt 1 view -0
 320              		.cfi_startproc
 321              		@ args = 0, pretend = 0, frame = 0
 322              		@ frame_needed = 0, uses_anonymous_args = 0
 323              		.loc 1 43 52 is_stmt 0 view .LVU59
 324 0000 38B5     		push	{r3, r4, r5, lr}
 325              	.LCFI9:
 326              		.cfi_def_cfa_offset 16
 327              		.cfi_offset 3, -16
 328              		.cfi_offset 4, -12
 329              		.cfi_offset 5, -8
 330              		.cfi_offset 14, -4
 331 0002 0446     		mov	r4, r0
 332 0004 0D46     		mov	r5, r1
  44:Src/stm32_print.h ****     while(__HAL_UART_GET_FLAG(_huart,UART_FLAG_TC)==RESET){}
 333              		.loc 1 44 5 is_stmt 1 view .LVU60
 334              	.L25:
 335              		.loc 1 44 60 discriminator 1 view .LVU61
 336              		.loc 1 44 10 discriminator 1 view .LVU62
 337              		.loc 1 44 11 is_stmt 0 discriminator 1 view .LVU63
 338 0006 2368     		ldr	r3, [r4]
 339 0008 DB69     		ldr	r3, [r3, #28]
 340              		.loc 1 44 10 discriminator 1 view .LVU64
 341 000a 13F0400F 		tst	r3, #64
 342 000e FAD0     		beq	.L25
  45:Src/stm32_print.h ****     HAL_UART_Transmit(_huart, (uint8_t*) str, strlen(str),1000);
 343              		.loc 1 45 5 is_stmt 1 view .LVU65
 344              		.loc 1 45 47 is_stmt 0 view .LVU66
 345 0010 2846     		mov	r0, r5
 346              	.LVL20:
 347              		.loc 1 45 47 view .LVU67
 348 0012 FFF7FEFF 		bl	strlen
 349              	.LVL21:
 350              		.loc 1 45 5 view .LVU68
 351 0016 4FF47A73 		mov	r3, #1000
 352 001a 82B2     		uxth	r2, r0
 353 001c 2946     		mov	r1, r5
 354 001e 2046     		mov	r0, r4
 355 0020 FFF7FEFF 		bl	HAL_UART_Transmit
 356              	.LVL22:
  46:Src/stm32_print.h ****     print(_huart,"\r\n");
 357              		.loc 1 46 5 is_stmt 1 view .LVU69
 358 0024 0249     		ldr	r1, .L27
 359 0026 2046     		mov	r0, r4
 360 0028 FFF7FEFF 		bl	print
 361              	.LVL23:
  47:Src/stm32_print.h **** }
 362              		.loc 1 47 1 is_stmt 0 view .LVU70
 363 002c 38BD     		pop	{r3, r4, r5, pc}
ARM GAS  C:\Users\Haruka\AppData\Local\Temp\ccgT5NLw.s 			page 8


 364              	.LVL24:
 365              	.L28:
 366              		.loc 1 47 1 view .LVU71
 367 002e 00BF     		.align	2
 368              	.L27:
 369 0030 00000000 		.word	.LC0
 370              		.cfi_endproc
 371              	.LFE149:
 373              		.section	.text.printc,"ax",%progbits
 374              		.align	1
 375              		.global	printc
 376              		.syntax unified
 377              		.thumb
 378              		.thumb_func
 379              		.fpu fpv5-d16
 381              	printc:
 382              	.LVL25:
 383              	.LFB150:
  48:Src/stm32_print.h **** 
  49:Src/stm32_print.h **** void printc(UART_HandleTypeDef *_huart, char ch){
 384              		.loc 1 49 49 is_stmt 1 view -0
 385              		.cfi_startproc
 386              		@ args = 0, pretend = 0, frame = 8
 387              		@ frame_needed = 0, uses_anonymous_args = 0
 388              		.loc 1 49 49 is_stmt 0 view .LVU73
 389 0000 00B5     		push	{lr}
 390              	.LCFI10:
 391              		.cfi_def_cfa_offset 4
 392              		.cfi_offset 14, -4
 393 0002 83B0     		sub	sp, sp, #12
 394              	.LCFI11:
 395              		.cfi_def_cfa_offset 16
 396 0004 8DF80710 		strb	r1, [sp, #7]
  50:Src/stm32_print.h ****     while(__HAL_UART_GET_FLAG(_huart,UART_FLAG_TC)==RESET){}
 397              		.loc 1 50 5 is_stmt 1 view .LVU74
 398              	.L30:
 399              		.loc 1 50 60 discriminator 1 view .LVU75
 400              		.loc 1 50 10 discriminator 1 view .LVU76
 401              		.loc 1 50 11 is_stmt 0 discriminator 1 view .LVU77
 402 0008 0368     		ldr	r3, [r0]
 403 000a DB69     		ldr	r3, [r3, #28]
 404              		.loc 1 50 10 discriminator 1 view .LVU78
 405 000c 13F0400F 		tst	r3, #64
 406 0010 FAD0     		beq	.L30
  51:Src/stm32_print.h ****     HAL_UART_Transmit(_huart, (uint8_t*) &ch, 1,1000);
 407              		.loc 1 51 5 is_stmt 1 view .LVU79
 408 0012 4FF47A73 		mov	r3, #1000
 409 0016 0122     		movs	r2, #1
 410 0018 0DF10701 		add	r1, sp, #7
 411              	.LVL26:
 412              		.loc 1 51 5 is_stmt 0 view .LVU80
 413 001c FFF7FEFF 		bl	HAL_UART_Transmit
 414              	.LVL27:
  52:Src/stm32_print.h **** }
 415              		.loc 1 52 1 view .LVU81
 416 0020 03B0     		add	sp, sp, #12
 417              	.LCFI12:
ARM GAS  C:\Users\Haruka\AppData\Local\Temp\ccgT5NLw.s 			page 9


 418              		.cfi_def_cfa_offset 4
 419              		@ sp needed
 420 0022 5DF804FB 		ldr	pc, [sp], #4
 421              		.cfi_endproc
 422              	.LFE150:
 424              		.section	.text.getch,"ax",%progbits
 425              		.align	1
 426              		.global	getch
 427              		.syntax unified
 428              		.thumb
 429              		.thumb_func
 430              		.fpu fpv5-d16
 432              	getch:
 433              	.LFB151:
  53:Src/stm32_print.h **** 
  54:Src/stm32_print.h **** char getch(UART_HandleTypeDef *_huart){
 434              		.loc 1 54 39 is_stmt 1 view -0
 435              		.cfi_startproc
 436              		@ args = 0, pretend = 0, frame = 8
 437              		@ frame_needed = 0, uses_anonymous_args = 0
 438              	.LVL28:
 439              		.loc 1 54 39 is_stmt 0 view .LVU83
 440 0000 00B5     		push	{lr}
 441              	.LCFI13:
 442              		.cfi_def_cfa_offset 4
 443              		.cfi_offset 14, -4
 444 0002 83B0     		sub	sp, sp, #12
 445              	.LCFI14:
 446              		.cfi_def_cfa_offset 16
 447              	.L33:
  55:Src/stm32_print.h ****     char ch1;
  56:Src/stm32_print.h **** 	while(__HAL_UART_GET_FLAG(_huart,UART_FLAG_RXNE)== RESET){}
 448              		.loc 1 56 60 is_stmt 1 discriminator 1 view .LVU84
 449              		.loc 1 56 7 discriminator 1 view .LVU85
 450              		.loc 1 56 8 is_stmt 0 discriminator 1 view .LVU86
 451 0004 0368     		ldr	r3, [r0]
 452 0006 DB69     		ldr	r3, [r3, #28]
 453              		.loc 1 56 7 discriminator 1 view .LVU87
 454 0008 13F0200F 		tst	r3, #32
 455 000c FAD0     		beq	.L33
  57:Src/stm32_print.h **** 	HAL_UART_Receive(_huart, (uint8_t*) &ch1, 1, 1000);
 456              		.loc 1 57 2 is_stmt 1 view .LVU88
 457 000e 4FF47A73 		mov	r3, #1000
 458 0012 0122     		movs	r2, #1
 459 0014 0DF10701 		add	r1, sp, #7
 460 0018 FFF7FEFF 		bl	HAL_UART_Receive
 461              	.LVL29:
  58:Src/stm32_print.h **** 	return ch1;
 462              		.loc 1 58 2 view .LVU89
  59:Src/stm32_print.h **** }...
 463              		.loc 1 59 1 is_stmt 0 view .LVU90
 464 001c 9DF80700 		ldrb	r0, [sp, #7]	@ zero_extendqisi2
 465 0020 03B0     		add	sp, sp, #12
 466              	.LCFI15:
 467              		.cfi_def_cfa_offset 4
 468              		@ sp needed
 469 0022 5DF804FB 		ldr	pc, [sp], #4
ARM GAS  C:\Users\Haruka\AppData\Local\Temp\ccgT5NLw.s 			page 10


 470              		.cfi_endproc
 471              	.LFE151:
 473              		.section	.text.CRC16_2,"ax",%progbits
 474              		.align	1
 475              		.global	CRC16_2
 476              		.syntax unified
 477              		.thumb
 478              		.thumb_func
 479              		.fpu fpv5-d16
 481              	CRC16_2:
 482              	.LVL30:
 483              	.LFB154:
 484              		.file 2 "Src/main.c"
   1:Src/main.c    **** /* USER CODE BEGIN Header */
   2:Src/main.c    **** /**
   3:Src/main.c    ****   ******************************************************************************
   4:Src/main.c    ****   * @file           : main.c
   5:Src/main.c    ****   * @brief          : Main program body
   6:Src/main.c    ****   ******************************************************************************
   7:Src/main.c    ****   * @attention
   8:Src/main.c    ****   *
   9:Src/main.c    ****   * <h2><center>&copy; Copyright (c) 2020 STMicroelectronics.
  10:Src/main.c    ****   * All rights reserved.</center></h2>
  11:Src/main.c    ****   *
  12:Src/main.c    ****   * This software component is licensed by ST under BSD 3-Clause license,
  13:Src/main.c    ****   * the "License"; You may not use this file except in compliance with the
  14:Src/main.c    ****   * License. You may obtain a copy of the License at:
  15:Src/main.c    ****   *                        opensource.org/licenses/BSD-3-Clause
  16:Src/main.c    ****   *
  17:Src/main.c    ****   ******************************************************************************
  18:Src/main.c    ****   */
  19:Src/main.c    **** /* USER CODE END Header */
  20:Src/main.c    **** 
  21:Src/main.c    **** /* Includes ------------------------------------------------------------------*/
  22:Src/main.c    **** #include "main.h"
  23:Src/main.c    **** #include "i2c.h"
  24:Src/main.c    **** #include "rng.h"
  25:Src/main.c    **** #include "spi.h"
  26:Src/main.c    **** #include "tim.h"
  27:Src/main.c    **** #include "usart.h"
  28:Src/main.c    **** #include "gpio.h"
  29:Src/main.c    **** 
  30:Src/main.c    **** /* Private includes ----------------------------------------------------------*/
  31:Src/main.c    **** /* USER CODE BEGIN Includes */
  32:Src/main.c    **** #include "stdio.h"
  33:Src/main.c    **** #include "stm32_print.h"
  34:Src/main.c    **** #include "ILI9341_Touchscreen.h"
  35:Src/main.c    **** 
  36:Src/main.c    **** #include "ILI9341_STM32_Driver.h"
  37:Src/main.c    **** #include "ILI9341_GFX.h"
  38:Src/main.c    **** 
  39:Src/main.c    **** #include "snow_tiger.h"
  40:Src/main.c    **** /* USER CODE END Includes */
  41:Src/main.c    **** 
  42:Src/main.c    **** /* Private typedef -----------------------------------------------------------*/
  43:Src/main.c    **** /* USER CODE BEGIN PTD */
  44:Src/main.c    **** 
ARM GAS  C:\Users\Haruka\AppData\Local\Temp\ccgT5NLw.s 			page 11


  45:Src/main.c    **** /* USER CODE END PTD */
  46:Src/main.c    **** 
  47:Src/main.c    **** /* Private define ------------------------------------------------------------*/
  48:Src/main.c    **** /* USER CODE BEGIN PD */
  49:Src/main.c    **** /* USER CODE END PD */
  50:Src/main.c    **** 
  51:Src/main.c    **** /* Private macro -------------------------------------------------------------*/
  52:Src/main.c    **** /* USER CODE BEGIN PM */
  53:Src/main.c    **** 
  54:Src/main.c    **** /* USER CODE END PM */
  55:Src/main.c    **** 
  56:Src/main.c    **** /* Private variables ---------------------------------------------------------*/
  57:Src/main.c    **** 
  58:Src/main.c    **** /* USER CODE BEGIN PV */
  59:Src/main.c    **** /* Private variables ---------------------------------------------------------*/
  60:Src/main.c    **** char str[50];
  61:Src/main.c    **** uint8_t cmdBuffer[3];
  62:Src/main.c    **** uint8_t dataBuffer[8];
  63:Src/main.c    **** uint32_t tick;
  64:Src/main.c    **** uint32_t last = 0, AM2320_last = 0;
  65:Src/main.c    **** float h=30.0, t=40.0;
  66:Src/main.c    **** uint8_t step = 0;
  67:Src/main.c    **** HAL_StatusTypeDef status;
  68:Src/main.c    **** 
  69:Src/main.c    **** uint8_t r = 0,g = 128,b = 255;
  70:Src/main.c    **** /* USER CODE END PV */
  71:Src/main.c    **** 
  72:Src/main.c    **** /* Private function prototypes -----------------------------------------------*/
  73:Src/main.c    **** void SystemClock_Config(void);
  74:Src/main.c    **** /* USER CODE BEGIN PFP */
  75:Src/main.c    **** /* Private function prototypes -----------------------------------------------*/
  76:Src/main.c    **** uint16_t CRC16_2(uint8_t*, uint8_t);
  77:Src/main.c    **** void readAM2320(void);
  78:Src/main.c    **** uint16_t convert_565(void);
  79:Src/main.c    **** void clearUART(void);
  80:Src/main.c    **** /* USER CODE END PFP */
  81:Src/main.c    **** 
  82:Src/main.c    **** /* Private user code ---------------------------------------------------------*/
  83:Src/main.c    **** /* USER CODE BEGIN 0 */
  84:Src/main.c    **** 
  85:Src/main.c    **** /* USER CODE END 0 */
  86:Src/main.c    **** 
  87:Src/main.c    **** /**
  88:Src/main.c    ****   * @brief  The application entry point.
  89:Src/main.c    ****   * @retval int
  90:Src/main.c    ****   */
  91:Src/main.c    **** int main(void)
  92:Src/main.c    **** {
  93:Src/main.c    ****   /* USER CODE BEGIN 1 */
  94:Src/main.c    **** 
  95:Src/main.c    ****   /* USER CODE END 1 */
  96:Src/main.c    ****   
  97:Src/main.c    **** 
  98:Src/main.c    ****   /* Enable I-Cache---------------------------------------------------------*/
  99:Src/main.c    ****   SCB_EnableICache();
 100:Src/main.c    **** 
 101:Src/main.c    ****   /* Enable D-Cache---------------------------------------------------------*/
ARM GAS  C:\Users\Haruka\AppData\Local\Temp\ccgT5NLw.s 			page 12


 102:Src/main.c    ****   SCB_EnableDCache();
 103:Src/main.c    **** 
 104:Src/main.c    ****   /* MCU Configuration--------------------------------------------------------*/
 105:Src/main.c    **** 
 106:Src/main.c    ****   /* Reset of all peripherals, Initializes the Flash interface and the Systick. */
 107:Src/main.c    ****   HAL_Init();
 108:Src/main.c    **** 
 109:Src/main.c    ****   /* USER CODE BEGIN Init */
 110:Src/main.c    **** 
 111:Src/main.c    ****   /* USER CODE END Init */
 112:Src/main.c    **** 
 113:Src/main.c    ****   /* Configure the system clock */
 114:Src/main.c    ****   SystemClock_Config();
 115:Src/main.c    **** 
 116:Src/main.c    ****   /* USER CODE BEGIN SysInit */
 117:Src/main.c    **** 
 118:Src/main.c    ****   /* USER CODE END SysInit */
 119:Src/main.c    **** 
 120:Src/main.c    ****   /* Initialize all configured peripherals */
 121:Src/main.c    ****   MX_GPIO_Init();
 122:Src/main.c    ****   MX_USART3_UART_Init();
 123:Src/main.c    ****   MX_SPI5_Init();
 124:Src/main.c    ****   MX_TIM1_Init();
 125:Src/main.c    ****   MX_RNG_Init();
 126:Src/main.c    ****   MX_TIM2_Init();
 127:Src/main.c    ****   MX_I2C1_Init();
 128:Src/main.c    ****   /* USER CODE BEGIN 2 */
 129:Src/main.c    **** 	ILI9341_Init();//initial driver setup to drive ili9341
 130:Src/main.c    **** 	HAL_TIM_Base_Start_IT(&htim1);
 131:Src/main.c    **** 	clearUART();
 132:Src/main.c    **** 	Serial.println("Start Timer");
 133:Src/main.c    **** 	Serial.println("Start I2C");
 134:Src/main.c    **** 
 135:Src/main.c    **** 	cmdBuffer[0] = 0x03;
 136:Src/main.c    **** 	cmdBuffer[1] = 0x00;
 137:Src/main.c    **** 	cmdBuffer[2] = 0x04;
 138:Src/main.c    ****   /* USER CODE END 2 */
 139:Src/main.c    **** 
 140:Src/main.c    ****   /* Infinite loop */
 141:Src/main.c    ****   /* USER CODE BEGIN WHILE */
 142:Src/main.c    ****   while (1)
 143:Src/main.c    ****   {
 144:Src/main.c    ****     /* USER CODE END WHILE */
 145:Src/main.c    **** 
 146:Src/main.c    ****     /* USER CODE BEGIN 3 */
 147:Src/main.c    **** 		
 148:Src/main.c    **** //----------------------------------------------------------PERFORMANCE TEST
 149:Src/main.c    **** // 		ILI9341_Fill_Screen(WHITE);
 150:Src/main.c    **** // 		ILI9341_Set_Rotation(SCREEN_HORIZONTAL_1);
 151:Src/main.c    **** // 		ILI9341_Draw_Text("FPS TEST, 40 loop 2 screens", 10, 10, BLACK, 1, WHITE);
 152:Src/main.c    **** // 		HAL_Delay(2000);
 153:Src/main.c    **** // 		ILI9341_Fill_Screen(WHITE);
 154:Src/main.c    **** 		
 155:Src/main.c    **** // 		uint32_t Timer_Counter = 0;
 156:Src/main.c    **** // 		for(uint32_t j = 0; j < 2; j++)
 157:Src/main.c    **** // 		{
 158:Src/main.c    **** // 			HAL_TIM_Base_Start(&htim1);
ARM GAS  C:\Users\Haruka\AppData\Local\Temp\ccgT5NLw.s 			page 13


 159:Src/main.c    **** // 			for(uint16_t i = 0; i < 10; i++)
 160:Src/main.c    **** // 			{
 161:Src/main.c    **** // 				ILI9341_Fill_Screen(WHITE);
 162:Src/main.c    **** // 				ILI9341_Fill_Screen(BLACK);
 163:Src/main.c    **** // 			}
 164:Src/main.c    **** 			
 165:Src/main.c    **** // 			//20.000 per second!
 166:Src/main.c    **** // 			HAL_TIM_Base_Stop(&htim1);		
 167:Src/main.c    **** // 			Timer_Counter += __HAL_TIM_GET_COUNTER(&htim1);
 168:Src/main.c    **** // 			__HAL_TIM_SET_COUNTER(&htim1, 0);
 169:Src/main.c    **** // 		}
 170:Src/main.c    **** // 		Timer_Counter /= 2;
 171:Src/main.c    **** 		
 172:Src/main.c    **** // 		char counter_buff[30];		
 173:Src/main.c    **** // 		ILI9341_Fill_Screen(WHITE);
 174:Src/main.c    **** // 		ILI9341_Set_Rotation(SCREEN_HORIZONTAL_1);
 175:Src/main.c    **** // 		sprintf(counter_buff, "Timer counter value: %ld", Timer_Counter*2);		
 176:Src/main.c    **** // 		ILI9341_Draw_Text(counter_buff, 10, 10, BLACK, 1, WHITE);
 177:Src/main.c    **** 		
 178:Src/main.c    **** // 		double seconds_passed = 2*((float)Timer_Counter / 20000);
 179:Src/main.c    **** // 		sprintf(counter_buff, "Time: %.3f Sec", seconds_passed);		
 180:Src/main.c    **** // 		ILI9341_Draw_Text(counter_buff, 10, 30, BLACK, 2, WHITE);
 181:Src/main.c    **** 		
 182:Src/main.c    **** // 		double timer_float = 20/(((float)Timer_Counter)/20000);	//Frames per sec
 183:Src/main.c    **** 		
 184:Src/main.c    **** // 		sprintf(counter_buff, "FPS:  %.2f", timer_float);
 185:Src/main.c    **** // 		ILI9341_Draw_Text(counter_buff, 10, 50, BLACK, 2, WHITE);
 186:Src/main.c    **** // 		double MB_PS = timer_float*240*320*2/1000000;
 187:Src/main.c    **** // 		sprintf(counter_buff, "MB/S: %.2f", MB_PS);
 188:Src/main.c    **** // 		ILI9341_Draw_Text(counter_buff, 10, 70, BLACK, 2, WHITE);
 189:Src/main.c    **** // 		double SPI_utilized_percentage = (MB_PS/(6.25 ))*100;		//50mbits / 8 bits
 190:Src/main.c    **** // 		sprintf(counter_buff, "SPI Utilized: %.2f", SPI_utilized_percentage);
 191:Src/main.c    **** // 		ILI9341_Draw_Text(counter_buff, 10, 90, BLACK, 2, WHITE);
 192:Src/main.c    **** // 		HAL_Delay(10000);
 193:Src/main.c    **** 		
 194:Src/main.c    **** 		
 195:Src/main.c    **** // 		static uint16_t x = 0;
 196:Src/main.c    **** // 		static uint16_t y = 0;
 197:Src/main.c    **** 		
 198:Src/main.c    **** // 		char Temp_Buffer_text[40];
 199:Src/main.c    **** 		
 200:Src/main.c    **** // //----------------------------------------------------------COUNTING MULTIPLE SEGMENTS		
 201:Src/main.c    **** // 		ILI9341_Fill_Screen(WHITE);
 202:Src/main.c    **** // 		ILI9341_Set_Rotation(SCREEN_HORIZONTAL_1);
 203:Src/main.c    **** // 		ILI9341_Draw_Text("Counting multiple segments at once", 10, 10, BLACK, 1, WHITE);
 204:Src/main.c    **** // 		HAL_Delay(2000);
 205:Src/main.c    **** // 		ILI9341_Fill_Screen(WHITE);
 206:Src/main.c    **** 		
 207:Src/main.c    **** 		
 208:Src/main.c    **** // 		for(uint16_t i = 0; i <= 10; i++)
 209:Src/main.c    **** // 		{
 210:Src/main.c    **** // 		sprintf(Temp_Buffer_text, "Counting: %d", i);
 211:Src/main.c    **** // 		ILI9341_Draw_Text(Temp_Buffer_text, 10, 10, BLACK, 2, WHITE);		
 212:Src/main.c    **** // 		ILI9341_Draw_Text(Temp_Buffer_text, 10, 30, BLUE, 2, WHITE);
 213:Src/main.c    **** // 		ILI9341_Draw_Text(Temp_Buffer_text, 10, 50, RED, 2, WHITE);
 214:Src/main.c    **** // 		ILI9341_Draw_Text(Temp_Buffer_text, 10, 70, GREEN, 2, WHITE);
 215:Src/main.c    **** // 		ILI9341_Draw_Text(Temp_Buffer_text, 10, 90, BLACK, 2, WHITE);
ARM GAS  C:\Users\Haruka\AppData\Local\Temp\ccgT5NLw.s 			page 14


 216:Src/main.c    **** // 		ILI9341_Draw_Text(Temp_Buffer_text, 10, 110, BLUE, 2, WHITE);
 217:Src/main.c    **** // 		ILI9341_Draw_Text(Temp_Buffer_text, 10, 130, RED, 2, WHITE);
 218:Src/main.c    **** // 		ILI9341_Draw_Text(Temp_Buffer_text, 10, 150, GREEN, 2, WHITE);
 219:Src/main.c    **** // 		ILI9341_Draw_Text(Temp_Buffer_text, 10, 170, WHITE, 2, BLACK);
 220:Src/main.c    **** // 		ILI9341_Draw_Text(Temp_Buffer_text, 10, 190, BLUE, 2, BLACK);
 221:Src/main.c    **** // 		ILI9341_Draw_Text(Temp_Buffer_text, 10, 210, RED, 2, BLACK);		
 222:Src/main.c    **** // 		}
 223:Src/main.c    **** 		
 224:Src/main.c    **** // 		HAL_Delay(1000);
 225:Src/main.c    **** 
 226:Src/main.c    **** // //----------------------------------------------------------COUNTING SINGLE SEGMENT		
 227:Src/main.c    **** // 		ILI9341_Fill_Screen(WHITE);
 228:Src/main.c    **** // 		ILI9341_Set_Rotation(SCREEN_HORIZONTAL_1);
 229:Src/main.c    **** // 		ILI9341_Draw_Text("Counting single segment", 10, 10, BLACK, 1, WHITE);
 230:Src/main.c    **** // 		HAL_Delay(2000);
 231:Src/main.c    **** // 		ILI9341_Fill_Screen(WHITE);
 232:Src/main.c    **** 	
 233:Src/main.c    **** // 		for(uint16_t i = 0; i <= 100; i++)
 234:Src/main.c    **** // 		{
 235:Src/main.c    **** // 		sprintf(Temp_Buffer_text, "Counting: %d", i);
 236:Src/main.c    **** // 		ILI9341_Draw_Text(Temp_Buffer_text, 10, 10, BLACK, 3, WHITE);			
 237:Src/main.c    **** // 		}
 238:Src/main.c    **** 		
 239:Src/main.c    **** // 		HAL_Delay(1000);
 240:Src/main.c    **** 		
 241:Src/main.c    **** // //----------------------------------------------------------ALIGNMENT TEST
 242:Src/main.c    **** // 		ILI9341_Fill_Screen(WHITE);
 243:Src/main.c    **** // 		ILI9341_Set_Rotation(SCREEN_HORIZONTAL_1);
 244:Src/main.c    **** // 		ILI9341_Draw_Text("Rectangle alignment check", 10, 10, BLACK, 1, WHITE);
 245:Src/main.c    **** // 		HAL_Delay(2000);
 246:Src/main.c    **** // 		ILI9341_Fill_Screen(WHITE);
 247:Src/main.c    **** 		
 248:Src/main.c    **** // 		ILI9341_Draw_Hollow_Rectangle_Coord(50, 50, 100, 100, BLACK);
 249:Src/main.c    **** // 		ILI9341_Draw_Filled_Rectangle_Coord(20, 20, 50, 50, BLACK);
 250:Src/main.c    **** // 		ILI9341_Draw_Hollow_Rectangle_Coord(10, 10, 19, 19, BLACK);
 251:Src/main.c    **** // 		HAL_Delay(1000);
 252:Src/main.c    **** 
 253:Src/main.c    **** // //----------------------------------------------------------LINES EXAMPLE		
 254:Src/main.c    **** // 		ILI9341_Fill_Screen(WHITE);
 255:Src/main.c    **** // 		ILI9341_Set_Rotation(SCREEN_HORIZONTAL_1);
 256:Src/main.c    **** // 		ILI9341_Draw_Text("Randomly placed and sized", 10, 10, BLACK, 1, WHITE);
 257:Src/main.c    **** // 		ILI9341_Draw_Text("Horizontal and Vertical lines", 10, 20, BLACK, 1, WHITE);
 258:Src/main.c    **** // 		HAL_Delay(2000);
 259:Src/main.c    **** // 		ILI9341_Fill_Screen(WHITE);
 260:Src/main.c    **** 		
 261:Src/main.c    **** // 		for(uint32_t i = 0; i < 30000; i++)
 262:Src/main.c    **** // 		{
 263:Src/main.c    **** // 			uint32_t random_num = 0;
 264:Src/main.c    **** // 			uint16_t xr = 0;
 265:Src/main.c    **** // 			uint16_t yr = 0;
 266:Src/main.c    **** // 			uint16_t radiusr = 0;
 267:Src/main.c    **** // 			uint16_t colourr = 0;
 268:Src/main.c    **** // 			random_num = HAL_RNG_GetRandomNumber(&hrng);
 269:Src/main.c    **** // 			xr = random_num;
 270:Src/main.c    **** // 			random_num = HAL_RNG_GetRandomNumber(&hrng);
 271:Src/main.c    **** // 			yr = random_num;
 272:Src/main.c    **** // 			random_num = HAL_RNG_GetRandomNumber(&hrng);
ARM GAS  C:\Users\Haruka\AppData\Local\Temp\ccgT5NLw.s 			page 15


 273:Src/main.c    **** // 			radiusr = random_num;
 274:Src/main.c    **** // 			random_num = HAL_RNG_GetRandomNumber(&hrng);
 275:Src/main.c    **** // 			colourr = random_num;
 276:Src/main.c    **** 			
 277:Src/main.c    **** // 			xr &= 0x01FF;
 278:Src/main.c    **** // 			yr &= 0x01FF;
 279:Src/main.c    **** // 			radiusr &= 0x001F;			
 280:Src/main.c    **** // 			//ili9341_drawpixel(xr, yr, WHITE);
 281:Src/main.c    **** // 			ILI9341_Draw_Horizontal_Line(xr, yr, radiusr, colourr);			
 282:Src/main.c    **** // 			ILI9341_Draw_Vertical_Line(xr, yr, radiusr, colourr);
 283:Src/main.c    **** // 		}
 284:Src/main.c    **** 		
 285:Src/main.c    **** // 		HAL_Delay(1000);
 286:Src/main.c    **** 		
 287:Src/main.c    **** // //----------------------------------------------------------HOLLOW CIRCLES EXAMPLE		
 288:Src/main.c    **** // 		ILI9341_Fill_Screen(WHITE);
 289:Src/main.c    **** // 		ILI9341_Set_Rotation(SCREEN_HORIZONTAL_1);
 290:Src/main.c    **** // 		ILI9341_Draw_Text("Randomly placed and sized", 10, 10, BLACK, 1, WHITE);
 291:Src/main.c    **** // 		ILI9341_Draw_Text("Circles", 10, 20, BLACK, 1, WHITE);
 292:Src/main.c    **** // 		HAL_Delay(2000);
 293:Src/main.c    **** // 		ILI9341_Fill_Screen(WHITE);		
 294:Src/main.c    **** 		
 295:Src/main.c    **** 		
 296:Src/main.c    **** // 		for(uint32_t i = 0; i < 3000; i++)
 297:Src/main.c    **** // 		{
 298:Src/main.c    **** // 			uint32_t random_num = 0;
 299:Src/main.c    **** // 			uint16_t xr = 0;
 300:Src/main.c    **** // 			uint16_t yr = 0;
 301:Src/main.c    **** // 			uint16_t radiusr = 0;
 302:Src/main.c    **** // 			uint16_t colourr = 0;
 303:Src/main.c    **** // 			random_num = HAL_RNG_GetRandomNumber(&hrng);
 304:Src/main.c    **** // 			xr = random_num;
 305:Src/main.c    **** // 			random_num = HAL_RNG_GetRandomNumber(&hrng);
 306:Src/main.c    **** // 			yr = random_num;
 307:Src/main.c    **** // 			random_num = HAL_RNG_GetRandomNumber(&hrng);
 308:Src/main.c    **** // 			radiusr = random_num;
 309:Src/main.c    **** // 			random_num = HAL_RNG_GetRandomNumber(&hrng);
 310:Src/main.c    **** // 			colourr = random_num;
 311:Src/main.c    **** 			
 312:Src/main.c    **** // 			xr &= 0x01FF;
 313:Src/main.c    **** // 			yr &= 0x01FF;
 314:Src/main.c    **** // 			radiusr &= 0x001F;			
 315:Src/main.c    **** // 			//ili9341_drawpixel(xr, yr, WHITE);
 316:Src/main.c    **** // 			ILI9341_Draw_Hollow_Circle(xr, yr, radiusr*2, colourr);
 317:Src/main.c    **** // 		}
 318:Src/main.c    **** // 		HAL_Delay(1000);
 319:Src/main.c    **** 
 320:Src/main.c    **** // //----------------------------------------------------------FILLED CIRCLES EXAMPLE		
 321:Src/main.c    **** // 		ILI9341_Fill_Screen(WHITE);
 322:Src/main.c    **** // 		ILI9341_Set_Rotation(SCREEN_HORIZONTAL_1);
 323:Src/main.c    **** // 		ILI9341_Draw_Text("Randomly placed and sized", 10, 10, BLACK, 1, WHITE);
 324:Src/main.c    **** // 		ILI9341_Draw_Text("Filled Circles", 10, 20, BLACK, 1, WHITE);
 325:Src/main.c    **** // 		HAL_Delay(2000);
 326:Src/main.c    **** // 		ILI9341_Fill_Screen(WHITE);
 327:Src/main.c    **** 		
 328:Src/main.c    **** // 		for(uint32_t i = 0; i < 1000; i++)
 329:Src/main.c    **** // 		{
ARM GAS  C:\Users\Haruka\AppData\Local\Temp\ccgT5NLw.s 			page 16


 330:Src/main.c    **** // 			uint32_t random_num = 0;
 331:Src/main.c    **** // 			uint16_t xr = 0;
 332:Src/main.c    **** // 			uint16_t yr = 0;
 333:Src/main.c    **** // 			uint16_t radiusr = 0;
 334:Src/main.c    **** // 			uint16_t colourr = 0;
 335:Src/main.c    **** // 			random_num = HAL_RNG_GetRandomNumber(&hrng);
 336:Src/main.c    **** // 			xr = random_num;
 337:Src/main.c    **** // 			random_num = HAL_RNG_GetRandomNumber(&hrng);
 338:Src/main.c    **** // 			yr = random_num;
 339:Src/main.c    **** // 			random_num = HAL_RNG_GetRandomNumber(&hrng);
 340:Src/main.c    **** // 			radiusr = random_num;
 341:Src/main.c    **** // 			random_num = HAL_RNG_GetRandomNumber(&hrng);
 342:Src/main.c    **** // 			colourr = random_num;
 343:Src/main.c    **** 			
 344:Src/main.c    **** // 			xr &= 0x01FF;
 345:Src/main.c    **** // 			yr &= 0x01FF;
 346:Src/main.c    **** // 			radiusr &= 0x001F;			
 347:Src/main.c    **** // 			//ili9341_drawpixel(xr, yr, WHITE);
 348:Src/main.c    **** // 			ILI9341_Draw_Filled_Circle(xr, yr, radiusr/2, colourr);
 349:Src/main.c    **** // 		}
 350:Src/main.c    **** // 		HAL_Delay(1000);
 351:Src/main.c    **** 
 352:Src/main.c    **** // //----------------------------------------------------------HOLLOW RECTANGLES EXAMPLE		
 353:Src/main.c    **** // 		ILI9341_Fill_Screen(WHITE);
 354:Src/main.c    **** // 		ILI9341_Set_Rotation(SCREEN_HORIZONTAL_1);
 355:Src/main.c    **** // 		ILI9341_Draw_Text("Randomly placed and sized", 10, 10, BLACK, 1, WHITE);
 356:Src/main.c    **** // 		ILI9341_Draw_Text("Rectangles", 10, 20, BLACK, 1, WHITE);
 357:Src/main.c    **** // 		HAL_Delay(2000);
 358:Src/main.c    **** // 		ILI9341_Fill_Screen(WHITE);
 359:Src/main.c    **** 		
 360:Src/main.c    **** // 		for(uint32_t i = 0; i < 20000; i++)
 361:Src/main.c    **** // 		{
 362:Src/main.c    **** // 			uint32_t random_num = 0;
 363:Src/main.c    **** // 			uint16_t xr = 0;
 364:Src/main.c    **** // 			uint16_t yr = 0;
 365:Src/main.c    **** // 			uint16_t radiusr = 0;
 366:Src/main.c    **** // 			uint16_t colourr = 0;
 367:Src/main.c    **** // 			random_num = HAL_RNG_GetRandomNumber(&hrng);
 368:Src/main.c    **** // 			xr = random_num;
 369:Src/main.c    **** // 			random_num = HAL_RNG_GetRandomNumber(&hrng);
 370:Src/main.c    **** // 			yr = random_num;
 371:Src/main.c    **** // 			random_num = HAL_RNG_GetRandomNumber(&hrng);
 372:Src/main.c    **** // 			radiusr = random_num;
 373:Src/main.c    **** // 			random_num = HAL_RNG_GetRandomNumber(&hrng);
 374:Src/main.c    **** // 			colourr = random_num;
 375:Src/main.c    **** 			
 376:Src/main.c    **** // 			xr &= 0x01FF;
 377:Src/main.c    **** // 			yr &= 0x01FF;
 378:Src/main.c    **** // 			radiusr &= 0x001F;			
 379:Src/main.c    **** // 			//ili9341_drawpixel(xr, yr, WHITE);
 380:Src/main.c    **** // 			ILI9341_Draw_Hollow_Rectangle_Coord(xr, yr, xr+radiusr, yr+radiusr, colourr);
 381:Src/main.c    **** // 		}
 382:Src/main.c    **** // 		HAL_Delay(1000);
 383:Src/main.c    **** 
 384:Src/main.c    **** // //----------------------------------------------------------FILLED RECTANGLES EXAMPLE		
 385:Src/main.c    **** // 		ILI9341_Fill_Screen(WHITE);
 386:Src/main.c    **** // 		ILI9341_Set_Rotation(SCREEN_HORIZONTAL_1);
ARM GAS  C:\Users\Haruka\AppData\Local\Temp\ccgT5NLw.s 			page 17


 387:Src/main.c    **** // 		ILI9341_Draw_Text("Randomly placed and sized", 10, 10, BLACK, 1, WHITE);
 388:Src/main.c    **** // 		ILI9341_Draw_Text("Filled Rectangles", 10, 20, BLACK, 1, WHITE);
 389:Src/main.c    **** // 		HAL_Delay(2000);
 390:Src/main.c    **** // 		ILI9341_Fill_Screen(WHITE);
 391:Src/main.c    **** 		
 392:Src/main.c    **** // 		for(uint32_t i = 0; i < 20000; i++)
 393:Src/main.c    **** // 		{
 394:Src/main.c    **** // 			uint32_t random_num = 0;
 395:Src/main.c    **** // 			uint16_t xr = 0;
 396:Src/main.c    **** // 			uint16_t yr = 0;
 397:Src/main.c    **** // 			uint16_t radiusr = 0;
 398:Src/main.c    **** // 			uint16_t colourr = 0;
 399:Src/main.c    **** // 			random_num = HAL_RNG_GetRandomNumber(&hrng);
 400:Src/main.c    **** // 			xr = random_num;
 401:Src/main.c    **** // 			random_num = HAL_RNG_GetRandomNumber(&hrng);
 402:Src/main.c    **** // 			yr = random_num;
 403:Src/main.c    **** // 			random_num = HAL_RNG_GetRandomNumber(&hrng);
 404:Src/main.c    **** // 			radiusr = random_num;
 405:Src/main.c    **** // 			random_num = HAL_RNG_GetRandomNumber(&hrng);
 406:Src/main.c    **** // 			colourr = random_num;
 407:Src/main.c    **** 			
 408:Src/main.c    **** // 			xr &= 0x01FF;
 409:Src/main.c    **** // 			yr &= 0x01FF;
 410:Src/main.c    **** // 			radiusr &= 0x001F;			
 411:Src/main.c    **** // 			//ili9341_drawpixel(xr, yr, WHITE);
 412:Src/main.c    **** // 			ILI9341_Draw_Rectangle(xr, yr, radiusr, radiusr, colourr);
 413:Src/main.c    **** // 		}
 414:Src/main.c    **** // 		HAL_Delay(1000);
 415:Src/main.c    **** 				
 416:Src/main.c    **** // //----------------------------------------------------------INDIVIDUAL PIXEL EXAMPLE		
 417:Src/main.c    **** 		
 418:Src/main.c    **** // 		ILI9341_Fill_Screen(WHITE);
 419:Src/main.c    **** // 		ILI9341_Set_Rotation(SCREEN_HORIZONTAL_1);
 420:Src/main.c    **** // 		ILI9341_Draw_Text("Slow draw by selecting", 10, 10, BLACK, 1, WHITE);
 421:Src/main.c    **** // 		ILI9341_Draw_Text("and adressing pixels", 10, 20, BLACK, 1, WHITE);
 422:Src/main.c    **** // 		HAL_Delay(2000);
 423:Src/main.c    **** // 		ILI9341_Fill_Screen(WHITE);
 424:Src/main.c    **** 			
 425:Src/main.c    **** 		
 426:Src/main.c    **** // 		x = 0;
 427:Src/main.c    **** // 		y = 0;	
 428:Src/main.c    **** // 		while (y < 240)
 429:Src/main.c    **** // 		{
 430:Src/main.c    **** // 		while ((x < 320) && (y < 240))
 431:Src/main.c    **** // 		{
 432:Src/main.c    **** 			
 433:Src/main.c    **** // 			if(x % 2)
 434:Src/main.c    **** // 			{
 435:Src/main.c    **** // 				ILI9341_Draw_Pixel(x, y, BLACK);
 436:Src/main.c    **** // 			}
 437:Src/main.c    **** 			
 438:Src/main.c    **** // 			x++;
 439:Src/main.c    **** // 		}
 440:Src/main.c    **** 		
 441:Src/main.c    **** // 			y++;
 442:Src/main.c    **** // 			x = 0;
 443:Src/main.c    **** // 		}
ARM GAS  C:\Users\Haruka\AppData\Local\Temp\ccgT5NLw.s 			page 18


 444:Src/main.c    **** 		
 445:Src/main.c    **** // 		x = 0;
 446:Src/main.c    **** // 		y = 0;	
 447:Src/main.c    **** 
 448:Src/main.c    **** 		
 449:Src/main.c    **** // 		while (y < 240)
 450:Src/main.c    **** // 		{
 451:Src/main.c    **** // 		while ((x < 320) && (y < 240))
 452:Src/main.c    **** // 		{
 453:Src/main.c    **** 			
 454:Src/main.c    **** // 			if(y % 2)
 455:Src/main.c    **** // 			{
 456:Src/main.c    **** // 				ILI9341_Draw_Pixel(x, y, BLACK);
 457:Src/main.c    **** // 			}
 458:Src/main.c    **** 			
 459:Src/main.c    **** // 			x++;
 460:Src/main.c    **** // 		}
 461:Src/main.c    **** 		
 462:Src/main.c    **** // 			y++;
 463:Src/main.c    **** // 			x = 0;
 464:Src/main.c    **** // 		}
 465:Src/main.c    **** // 		HAL_Delay(2000);
 466:Src/main.c    **** 		
 467:Src/main.c    **** // //----------------------------------------------------------INDIVIDUAL PIXEL EXAMPLE		
 468:Src/main.c    **** // 		ILI9341_Fill_Screen(WHITE);
 469:Src/main.c    **** // 		ILI9341_Set_Rotation(SCREEN_HORIZONTAL_1);
 470:Src/main.c    **** // 		ILI9341_Draw_Text("Random position and colour", 10, 10, BLACK, 1, WHITE);
 471:Src/main.c    **** // 		ILI9341_Draw_Text("500000 pixels", 10, 20, BLACK, 1, WHITE);
 472:Src/main.c    **** // 		HAL_Delay(2000);
 473:Src/main.c    **** // 		ILI9341_Fill_Screen(WHITE);	
 474:Src/main.c    **** 		
 475:Src/main.c    **** 				
 476:Src/main.c    **** // 		for(uint32_t i = 0; i < 500000; i++)
 477:Src/main.c    **** // 		{
 478:Src/main.c    **** // 			uint32_t random_num = 0;
 479:Src/main.c    **** // 			uint16_t xr = 0;
 480:Src/main.c    **** // 			uint16_t yr = 0;
 481:Src/main.c    **** // 			random_num = HAL_RNG_GetRandomNumber(&hrng);
 482:Src/main.c    **** // 			xr = random_num;
 483:Src/main.c    **** // 			random_num = HAL_RNG_GetRandomNumber(&hrng);
 484:Src/main.c    **** // 			yr = random_num;
 485:Src/main.c    **** // 			uint16_t color = HAL_RNG_GetRandomNumber(&hrng);
 486:Src/main.c    **** 			
 487:Src/main.c    **** // 			xr &= 0x01FF;
 488:Src/main.c    **** // 			yr &= 0x01FF;
 489:Src/main.c    **** // 			ILI9341_Draw_Pixel(xr, yr, color);
 490:Src/main.c    **** // 		}
 491:Src/main.c    **** // 		HAL_Delay(2000);
 492:Src/main.c    **** 		
 493:Src/main.c    **** // //----------------------------------------------------------565 COLOUR EXAMPLE, Grayscale		
 494:Src/main.c    **** // 		ILI9341_Fill_Screen(WHITE);
 495:Src/main.c    **** // 		ILI9341_Set_Rotation(SCREEN_HORIZONTAL_1);
 496:Src/main.c    **** // 		ILI9341_Draw_Text("Colour gradient", 10, 10, BLACK, 1, WHITE);
 497:Src/main.c    **** // 		ILI9341_Draw_Text("Grayscale", 10, 20, BLACK, 1, WHITE);
 498:Src/main.c    **** // 		HAL_Delay(2000);
 499:Src/main.c    **** 		
 500:Src/main.c    **** 		
ARM GAS  C:\Users\Haruka\AppData\Local\Temp\ccgT5NLw.s 			page 19


 501:Src/main.c    **** // 		for(uint16_t i = 0; i <= (320); i++)
 502:Src/main.c    **** // 		{
 503:Src/main.c    **** // 			uint16_t Red = 0;
 504:Src/main.c    **** // 			uint16_t Green = 0;
 505:Src/main.c    **** // 			uint16_t Blue = 0;
 506:Src/main.c    **** 			
 507:Src/main.c    **** // 			Red = i/(10);
 508:Src/main.c    **** // 			Red <<= 11;
 509:Src/main.c    **** // 			Green = i/(5);
 510:Src/main.c    **** // 			Green <<= 5;
 511:Src/main.c    **** // 			Blue = i/(10);
 512:Src/main.c    **** 			
 513:Src/main.c    **** 			
 514:Src/main.c    **** 			
 515:Src/main.c    **** // 			uint16_t RGB_color = Red + Green + Blue;
 516:Src/main.c    **** // 			ILI9341_Draw_Rectangle(i, x, 1, 240, RGB_color);
 517:Src/main.c    **** 			
 518:Src/main.c    **** // 		}
 519:Src/main.c    **** // 		HAL_Delay(2000);
 520:Src/main.c    **** 
 521:Src/main.c    **** // //----------------------------------------------------------IMAGE EXAMPLE, Snow Tiger		
 522:Src/main.c    **** // 		ILI9341_Fill_Screen(WHITE);
 523:Src/main.c    **** // 		ILI9341_Set_Rotation(SCREEN_HORIZONTAL_1);
 524:Src/main.c    **** // 		ILI9341_Draw_Text("RGB Picture", 10, 10, BLACK, 1, WHITE);
 525:Src/main.c    **** // 		ILI9341_Draw_Text("TIGER", 10, 20, BLACK, 1, WHITE);
 526:Src/main.c    **** // 		HAL_Delay(2000);			
 527:Src/main.c    **** // 		ILI9341_Draw_Image((const char*)snow_tiger, SCREEN_VERTICAL_2);		
 528:Src/main.c    **** // 		ILI9341_Set_Rotation(SCREEN_VERTICAL_1);
 529:Src/main.c    **** // 		HAL_Delay(5000);		
 530:Src/main.c    **** 		
 531:Src/main.c    **** 		
 532:Src/main.c    **** //----------------------------------------------------------TOUCHSCREEN EXAMPLE		
 533:Src/main.c    **** 		ILI9341_Fill_Screen(WHITE);
 534:Src/main.c    **** 		ILI9341_Set_Rotation(SCREEN_HORIZONTAL_1);
 535:Src/main.c    **** 		ILI9341_Draw_Text("Touchscreen", 10, 10, BLACK, 2, WHITE);
 536:Src/main.c    **** 		ILI9341_Draw_Text("Touch to draw", 10, 30, BLACK, 2, WHITE);
 537:Src/main.c    **** 		ILI9341_Set_Rotation(SCREEN_VERTICAL_1);
 538:Src/main.c    **** 		
 539:Src/main.c    **** 		
 540:Src/main.c    **** 		while(1)
 541:Src/main.c    **** 		{
 542:Src/main.c    **** 			HAL_Delay(20);
 543:Src/main.c    **** 			
 544:Src/main.c    **** 			if(TP_Touchpad_Pressed())
 545:Src/main.c    ****         {
 546:Src/main.c    **** 					
 547:Src/main.c    **** 					uint16_t x_pos = 0;
 548:Src/main.c    **** 					uint16_t y_pos = 0;
 549:Src/main.c    **** 					
 550:Src/main.c    **** 					
 551:Src/main.c    **** 					HAL_GPIO_WritePin(GPIOB, LD3_Pin|LD2_Pin, GPIO_PIN_SET);
 552:Src/main.c    **** 					
 553:Src/main.c    ****           uint16_t position_array[2];					
 554:Src/main.c    **** 					
 555:Src/main.c    **** 					if(TP_Read_Coordinates(position_array) == TOUCHPAD_DATA_OK)
 556:Src/main.c    **** 					{
 557:Src/main.c    **** 					x_pos = position_array[0];
ARM GAS  C:\Users\Haruka\AppData\Local\Temp\ccgT5NLw.s 			page 20


 558:Src/main.c    **** 					y_pos = position_array[1];					
 559:Src/main.c    **** 					ILI9341_Draw_Filled_Circle(x_pos, y_pos, 2, BLACK);
 560:Src/main.c    **** 					
 561:Src/main.c    **** 					ILI9341_Set_Rotation(SCREEN_HORIZONTAL_1);					
 562:Src/main.c    **** 					char counter_buff[30];								
 563:Src/main.c    **** 					sprintf(counter_buff, "POS X: %.3d", x_pos);						
 564:Src/main.c    **** 					ILI9341_Draw_Text(counter_buff, 10, 80, BLACK, 2, WHITE);					
 565:Src/main.c    **** 					sprintf(counter_buff, "POS Y: %.3d", y_pos);						
 566:Src/main.c    **** 					ILI9341_Draw_Text(counter_buff, 10, 120, BLACK, 2, WHITE);
 567:Src/main.c    **** 					ILI9341_Set_Rotation(SCREEN_VERTICAL_1);
 568:Src/main.c    **** 					}
 569:Src/main.c    **** 					
 570:Src/main.c    **** 					ILI9341_Draw_Pixel(x_pos, y_pos, BLACK);
 571:Src/main.c    **** 					
 572:Src/main.c    ****         }
 573:Src/main.c    **** 			else
 574:Src/main.c    **** 			{
 575:Src/main.c    **** 				HAL_GPIO_WritePin(GPIOB, LD3_Pin|LD2_Pin, GPIO_PIN_RESET);
 576:Src/main.c    **** 			}
 577:Src/main.c    **** 			
 578:Src/main.c    **** 		}
 579:Src/main.c    **** 		
 580:Src/main.c    **** 	// if(tick - last > 1000){
 581:Src/main.c    **** 	// 	char buf[100];
 582:Src/main.c    **** 	// 	sprintf(buf,"temperature = %4.1f\thumidity = %4.1f\t(r, g, b) -> (%d, %d, %d) 0X%04X\r",t,h,r,
 583:Src/main.c    **** 	// 	Serial.print(buf);
 584:Src/main.c    **** 	// 	last = tick;
 585:Src/main.c    **** 	// }
 586:Src/main.c    **** 	
 587:Src/main.c    **** 	// readAM2320();
 588:Src/main.c    **** 	// HAL_Delay(0);
 589:Src/main.c    ****   }
 590:Src/main.c    ****   /* USER CODE END 3 */
 591:Src/main.c    **** }
 592:Src/main.c    **** 
 593:Src/main.c    **** /**
 594:Src/main.c    ****   * @brief System Clock Configuration
 595:Src/main.c    ****   * @retval None
 596:Src/main.c    ****   */
 597:Src/main.c    **** void SystemClock_Config(void)
 598:Src/main.c    **** {
 599:Src/main.c    ****   RCC_OscInitTypeDef RCC_OscInitStruct = {0};
 600:Src/main.c    ****   RCC_ClkInitTypeDef RCC_ClkInitStruct = {0};
 601:Src/main.c    ****   RCC_PeriphCLKInitTypeDef PeriphClkInitStruct = {0};
 602:Src/main.c    **** 
 603:Src/main.c    ****   /** Configure LSE Drive Capability 
 604:Src/main.c    ****   */
 605:Src/main.c    ****   HAL_PWR_EnableBkUpAccess();
 606:Src/main.c    ****   /** Configure the main internal regulator output voltage 
 607:Src/main.c    ****   */
 608:Src/main.c    ****   __HAL_RCC_PWR_CLK_ENABLE();
 609:Src/main.c    ****   __HAL_PWR_VOLTAGESCALING_CONFIG(PWR_REGULATOR_VOLTAGE_SCALE1);
 610:Src/main.c    ****   /** Initializes the CPU, AHB and APB busses clocks 
 611:Src/main.c    ****   */
 612:Src/main.c    ****   RCC_OscInitStruct.OscillatorType = RCC_OSCILLATORTYPE_HSE;
 613:Src/main.c    ****   RCC_OscInitStruct.HSEState = RCC_HSE_BYPASS;
 614:Src/main.c    ****   RCC_OscInitStruct.PLL.PLLState = RCC_PLL_ON;
ARM GAS  C:\Users\Haruka\AppData\Local\Temp\ccgT5NLw.s 			page 21


 615:Src/main.c    ****   RCC_OscInitStruct.PLL.PLLSource = RCC_PLLSOURCE_HSE;
 616:Src/main.c    ****   RCC_OscInitStruct.PLL.PLLM = 4;
 617:Src/main.c    ****   RCC_OscInitStruct.PLL.PLLN = 200;
 618:Src/main.c    ****   RCC_OscInitStruct.PLL.PLLP = RCC_PLLP_DIV2;
 619:Src/main.c    ****   RCC_OscInitStruct.PLL.PLLQ = 9;
 620:Src/main.c    ****   if (HAL_RCC_OscConfig(&RCC_OscInitStruct) != HAL_OK)
 621:Src/main.c    ****   {
 622:Src/main.c    ****     Error_Handler();
 623:Src/main.c    ****   }
 624:Src/main.c    ****   /** Activate the Over-Drive mode 
 625:Src/main.c    ****   */
 626:Src/main.c    ****   if (HAL_PWREx_EnableOverDrive() != HAL_OK)
 627:Src/main.c    ****   {
 628:Src/main.c    ****     Error_Handler();
 629:Src/main.c    ****   }
 630:Src/main.c    ****   /** Initializes the CPU, AHB and APB busses clocks 
 631:Src/main.c    ****   */
 632:Src/main.c    ****   RCC_ClkInitStruct.ClockType = RCC_CLOCKTYPE_HCLK|RCC_CLOCKTYPE_SYSCLK
 633:Src/main.c    ****                               |RCC_CLOCKTYPE_PCLK1|RCC_CLOCKTYPE_PCLK2;
 634:Src/main.c    ****   RCC_ClkInitStruct.SYSCLKSource = RCC_SYSCLKSOURCE_PLLCLK;
 635:Src/main.c    ****   RCC_ClkInitStruct.AHBCLKDivider = RCC_SYSCLK_DIV1;
 636:Src/main.c    ****   RCC_ClkInitStruct.APB1CLKDivider = RCC_HCLK_DIV4;
 637:Src/main.c    ****   RCC_ClkInitStruct.APB2CLKDivider = RCC_HCLK_DIV2;
 638:Src/main.c    **** 
 639:Src/main.c    ****   if (HAL_RCC_ClockConfig(&RCC_ClkInitStruct, FLASH_LATENCY_6) != HAL_OK)
 640:Src/main.c    ****   {
 641:Src/main.c    ****     Error_Handler();
 642:Src/main.c    ****   }
 643:Src/main.c    ****   PeriphClkInitStruct.PeriphClockSelection = RCC_PERIPHCLK_USART3|RCC_PERIPHCLK_I2C1
 644:Src/main.c    ****                               |RCC_PERIPHCLK_CLK48;
 645:Src/main.c    ****   PeriphClkInitStruct.Usart3ClockSelection = RCC_USART3CLKSOURCE_PCLK1;
 646:Src/main.c    ****   PeriphClkInitStruct.I2c1ClockSelection = RCC_I2C1CLKSOURCE_PCLK1;
 647:Src/main.c    ****   PeriphClkInitStruct.Clk48ClockSelection = RCC_CLK48SOURCE_PLL;
 648:Src/main.c    ****   if (HAL_RCCEx_PeriphCLKConfig(&PeriphClkInitStruct) != HAL_OK)
 649:Src/main.c    ****   {
 650:Src/main.c    ****     Error_Handler();
 651:Src/main.c    ****   }
 652:Src/main.c    **** }
 653:Src/main.c    **** 
 654:Src/main.c    **** /* USER CODE BEGIN 4 */
 655:Src/main.c    **** uint16_t CRC16_2(uint8_t* ptr, uint8_t length){
 485              		.loc 2 655 47 is_stmt 1 view -0
 486              		.cfi_startproc
 487              		@ args = 0, pretend = 0, frame = 0
 488              		@ frame_needed = 0, uses_anonymous_args = 0
 489              		@ link register save eliminated.
 490              		.loc 2 655 47 is_stmt 0 view .LVU92
 491 0000 10B4     		push	{r4}
 492              	.LCFI16:
 493              		.cfi_def_cfa_offset 4
 494              		.cfi_offset 4, -4
 495 0002 0446     		mov	r4, r0
 656:Src/main.c    **** 	uint16_t crc = 0xFFFF;
 496              		.loc 2 656 2 is_stmt 1 view .LVU93
 497              	.LVL31:
 657:Src/main.c    **** 	uint8_t s = 0x00;
 498              		.loc 2 657 2 view .LVU94
ARM GAS  C:\Users\Haruka\AppData\Local\Temp\ccgT5NLw.s 			page 22


 658:Src/main.c    **** 	while(length--){
 499              		.loc 2 658 2 view .LVU95
 656:Src/main.c    **** 	uint16_t crc = 0xFFFF;
 500              		.loc 2 656 11 is_stmt 0 view .LVU96
 501 0004 4FF6FF70 		movw	r0, #65535
 502              	.LVL32:
 503              	.L36:
 504              		.loc 2 658 7 is_stmt 1 view .LVU97
 505 0008 0B46     		mov	r3, r1
 506              		.loc 2 658 14 is_stmt 0 view .LVU98
 507 000a 0139     		subs	r1, r1, #1
 508              	.LVL33:
 509              		.loc 2 658 14 view .LVU99
 510 000c C9B2     		uxtb	r1, r1
 511              	.LVL34:
 512              		.loc 2 658 7 view .LVU100
 513 000e 8BB1     		cbz	r3, .L43
 659:Src/main.c    **** 		crc^=*ptr++;
 514              		.loc 2 659 3 is_stmt 1 view .LVU101
 515              	.LVL35:
 516              		.loc 2 659 8 is_stmt 0 view .LVU102
 517 0010 14F8013B 		ldrb	r3, [r4], #1	@ zero_extendqisi2
 518              	.LVL36:
 519              		.loc 2 659 6 view .LVU103
 520 0014 5840     		eors	r0, r0, r3
 521              	.LVL37:
 660:Src/main.c    **** 		for(s = 0; s < 8; s++){
 522              		.loc 2 660 3 is_stmt 1 view .LVU104
 523              		.loc 2 660 9 is_stmt 0 view .LVU105
 524 0016 0023     		movs	r3, #0
 525              		.loc 2 660 3 view .LVU106
 526 0018 02E0     		b	.L37
 527              	.LVL38:
 528              	.L38:
 661:Src/main.c    **** 			if((crc & 0x01) != 0){
 662:Src/main.c    **** 				crc >>= 1;
 663:Src/main.c    **** 				crc ^= 0xA001;
 664:Src/main.c    **** 			} else crc >>= 1;
 529              		.loc 2 664 11 is_stmt 1 view .LVU107
 530              		.loc 2 664 15 is_stmt 0 view .LVU108
 531 001a 4008     		lsrs	r0, r0, #1
 532              	.LVL39:
 533              	.L39:
 660:Src/main.c    **** 		for(s = 0; s < 8; s++){
 534              		.loc 2 660 21 is_stmt 1 discriminator 2 view .LVU109
 660:Src/main.c    **** 		for(s = 0; s < 8; s++){
 535              		.loc 2 660 22 is_stmt 0 discriminator 2 view .LVU110
 536 001c 0133     		adds	r3, r3, #1
 537              	.LVL40:
 660:Src/main.c    **** 		for(s = 0; s < 8; s++){
 538              		.loc 2 660 22 discriminator 2 view .LVU111
 539 001e DBB2     		uxtb	r3, r3
 540              	.LVL41:
 541              	.L37:
 660:Src/main.c    **** 		for(s = 0; s < 8; s++){
 542              		.loc 2 660 14 is_stmt 1 discriminator 1 view .LVU112
 660:Src/main.c    **** 		for(s = 0; s < 8; s++){
ARM GAS  C:\Users\Haruka\AppData\Local\Temp\ccgT5NLw.s 			page 23


 543              		.loc 2 660 3 is_stmt 0 discriminator 1 view .LVU113
 544 0020 072B     		cmp	r3, #7
 545 0022 F1D8     		bhi	.L36
 661:Src/main.c    **** 			if((crc & 0x01) != 0){
 546              		.loc 2 661 4 is_stmt 1 view .LVU114
 661:Src/main.c    **** 			if((crc & 0x01) != 0){
 547              		.loc 2 661 6 is_stmt 0 view .LVU115
 548 0024 10F0010F 		tst	r0, #1
 549 0028 F7D0     		beq	.L38
 662:Src/main.c    **** 				crc ^= 0xA001;
 550              		.loc 2 662 5 is_stmt 1 view .LVU116
 551              	.LVL42:
 663:Src/main.c    **** 			} else crc >>= 1;
 552              		.loc 2 663 5 view .LVU117
 663:Src/main.c    **** 			} else crc >>= 1;
 553              		.loc 2 663 9 is_stmt 0 view .LVU118
 554 002a 4AF20102 		movw	r2, #40961
 555 002e 82EA5000 		eor	r0, r2, r0, lsr #1
 556              	.LVL43:
 663:Src/main.c    **** 			} else crc >>= 1;
 557              		.loc 2 663 9 view .LVU119
 558 0032 F3E7     		b	.L39
 559              	.LVL44:
 560              	.L43:
 665:Src/main.c    **** 		}
 666:Src/main.c    **** 	}
 667:Src/main.c    **** 	return crc;
 668:Src/main.c    **** }
 561              		.loc 2 668 1 view .LVU120
 562 0034 5DF8044B 		ldr	r4, [sp], #4
 563              	.LCFI17:
 564              		.cfi_restore 4
 565              		.cfi_def_cfa_offset 0
 566              	.LVL45:
 567              		.loc 2 668 1 view .LVU121
 568 0038 7047     		bx	lr
 569              		.cfi_endproc
 570              	.LFE154:
 572              		.section	.text.readAM2320,"ax",%progbits
 573              		.align	1
 574              		.global	readAM2320
 575              		.syntax unified
 576              		.thumb
 577              		.thumb_func
 578              		.fpu fpv5-d16
 580              	readAM2320:
 581              	.LFB155:
 669:Src/main.c    **** void readAM2320(){
 582              		.loc 2 669 18 is_stmt 1 view -0
 583              		.cfi_startproc
 584              		@ args = 0, pretend = 0, frame = 0
 585              		@ frame_needed = 0, uses_anonymous_args = 0
 670:Src/main.c    **** 	if(tick - AM2320_last > 3000){
 586              		.loc 2 670 2 view .LVU123
 587              		.loc 2 670 10 is_stmt 0 view .LVU124
 588 0000 334B     		ldr	r3, .L54
 589 0002 1A68     		ldr	r2, [r3]
ARM GAS  C:\Users\Haruka\AppData\Local\Temp\ccgT5NLw.s 			page 24


 590 0004 334B     		ldr	r3, .L54+4
 591 0006 1B68     		ldr	r3, [r3]
 592 0008 D31A     		subs	r3, r2, r3
 593              		.loc 2 670 4 view .LVU125
 594 000a 40F6B831 		movw	r1, #3000
 595 000e 8B42     		cmp	r3, r1
 596 0010 00D8     		bhi	.L51
 597 0012 7047     		bx	lr
 598              	.L51:
 669:Src/main.c    **** void readAM2320(){
 599              		.loc 2 669 18 view .LVU126
 600 0014 70B5     		push	{r4, r5, r6, lr}
 601              	.LCFI18:
 602              		.cfi_def_cfa_offset 16
 603              		.cfi_offset 4, -16
 604              		.cfi_offset 5, -12
 605              		.cfi_offset 6, -8
 606              		.cfi_offset 14, -4
 607 0016 82B0     		sub	sp, sp, #8
 608              	.LCFI19:
 609              		.cfi_def_cfa_offset 24
 610              	.LBB38:
 671:Src/main.c    **** 		AM2320_last = tick;
 611              		.loc 2 671 3 is_stmt 1 view .LVU127
 612              		.loc 2 671 15 is_stmt 0 view .LVU128
 613 0018 2E4B     		ldr	r3, .L54+4
 614 001a 1A60     		str	r2, [r3]
 672:Src/main.c    **** 		HAL_GPIO_TogglePin(GPIOB, GPIO_PIN_0);
 615              		.loc 2 672 3 is_stmt 1 view .LVU129
 616 001c 0121     		movs	r1, #1
 617 001e 2E48     		ldr	r0, .L54+8
 618 0020 FFF7FEFF 		bl	HAL_GPIO_TogglePin
 619              	.LVL46:
 673:Src/main.c    **** 		
 674:Src/main.c    **** 		HAL_I2C_Master_Transmit(&hi2c1, 0x5c<<1, cmdBuffer, 3, 200); //wake
 620              		.loc 2 674 3 view .LVU130
 621 0024 2D4D     		ldr	r5, .L54+12
 622 0026 2E4C     		ldr	r4, .L54+16
 623 0028 C826     		movs	r6, #200
 624 002a 0096     		str	r6, [sp]
 625 002c 0323     		movs	r3, #3
 626 002e 2A46     		mov	r2, r5
 627 0030 B821     		movs	r1, #184
 628 0032 2046     		mov	r0, r4
 629 0034 FFF7FEFF 		bl	HAL_I2C_Master_Transmit
 630              	.LVL47:
 675:Src/main.c    **** 		HAL_I2C_Master_Transmit(&hi2c1, 0x5c<<1, cmdBuffer, 3, 200); //read command
 631              		.loc 2 675 3 view .LVU131
 632 0038 0096     		str	r6, [sp]
 633 003a 0323     		movs	r3, #3
 634 003c 2A46     		mov	r2, r5
 635 003e B821     		movs	r1, #184
 636 0040 2046     		mov	r0, r4
 637 0042 FFF7FEFF 		bl	HAL_I2C_Master_Transmit
 638              	.LVL48:
 676:Src/main.c    **** 		HAL_Delay(1);
 639              		.loc 2 676 3 view .LVU132
ARM GAS  C:\Users\Haruka\AppData\Local\Temp\ccgT5NLw.s 			page 25


 640 0046 0120     		movs	r0, #1
 641 0048 FFF7FEFF 		bl	HAL_Delay
 642              	.LVL49:
 677:Src/main.c    **** 		HAL_I2C_Master_Receive(&hi2c1, 0x5c<<1, dataBuffer, 8, 200);
 643              		.loc 2 677 3 view .LVU133
 644 004c 254D     		ldr	r5, .L54+20
 645 004e 0096     		str	r6, [sp]
 646 0050 0823     		movs	r3, #8
 647 0052 2A46     		mov	r2, r5
 648 0054 B821     		movs	r1, #184
 649 0056 2046     		mov	r0, r4
 650 0058 FFF7FEFF 		bl	HAL_I2C_Master_Receive
 651              	.LVL50:
 678:Src/main.c    **** 		
 679:Src/main.c    **** 		uint16_t Rcrc = dataBuffer[7] << 8;
 652              		.loc 2 679 3 view .LVU134
 653              		.loc 2 679 29 is_stmt 0 view .LVU135
 654 005c EB79     		ldrb	r3, [r5, #7]	@ zero_extendqisi2
 655              	.LVL51:
 680:Src/main.c    **** 		Rcrc += dataBuffer[6];
 656              		.loc 2 680 3 is_stmt 1 view .LVU136
 657              		.loc 2 680 21 is_stmt 0 view .LVU137
 658 005e AC79     		ldrb	r4, [r5, #6]	@ zero_extendqisi2
 659              		.loc 2 680 8 view .LVU138
 660 0060 04EB0324 		add	r4, r4, r3, lsl #8
 661 0064 A4B2     		uxth	r4, r4
 662              	.LVL52:
 681:Src/main.c    **** 		if(Rcrc == CRC16_2(dataBuffer, 6)){
 663              		.loc 2 681 3 is_stmt 1 view .LVU139
 664              		.loc 2 681 14 is_stmt 0 view .LVU140
 665 0066 0621     		movs	r1, #6
 666 0068 2846     		mov	r0, r5
 667 006a FFF7FEFF 		bl	CRC16_2
 668              	.LVL53:
 669              		.loc 2 681 5 view .LVU141
 670 006e A042     		cmp	r0, r4
 671 0070 01D0     		beq	.L52
 672              	.L44:
 673              	.LBE38:
 682:Src/main.c    **** 			uint16_t temperature = ((dataBuffer[4] & 0x7F) << 8) + dataBuffer[5];
 683:Src/main.c    **** 			t = temperature / 10.0;
 684:Src/main.c    **** 			t = (((dataBuffer[4] & 0x80) >> 7) == 1) ? (t * (-1)) : t;
 685:Src/main.c    **** 			
 686:Src/main.c    **** 			uint16_t humidity = (dataBuffer[2] << 8) + dataBuffer[3];
 687:Src/main.c    **** 			h = humidity / 10.0;
 688:Src/main.c    **** 		}
 689:Src/main.c    **** 	}
 690:Src/main.c    **** }
 674              		.loc 2 690 1 view .LVU142
 675 0072 02B0     		add	sp, sp, #8
 676              	.LCFI20:
 677              		.cfi_remember_state
 678              		.cfi_def_cfa_offset 16
 679              		@ sp needed
 680 0074 70BD     		pop	{r4, r5, r6, pc}
 681              	.LVL54:
 682              	.L52:
ARM GAS  C:\Users\Haruka\AppData\Local\Temp\ccgT5NLw.s 			page 26


 683              	.LCFI21:
 684              		.cfi_restore_state
 685              	.LBB41:
 686              	.LBB39:
 682:Src/main.c    **** 			uint16_t temperature = ((dataBuffer[4] & 0x7F) << 8) + dataBuffer[5];
 687              		.loc 2 682 4 is_stmt 1 view .LVU143
 682:Src/main.c    **** 			uint16_t temperature = ((dataBuffer[4] & 0x7F) << 8) + dataBuffer[5];
 688              		.loc 2 682 39 is_stmt 0 view .LVU144
 689 0076 2A79     		ldrb	r2, [r5, #4]	@ zero_extendqisi2
 682:Src/main.c    **** 			uint16_t temperature = ((dataBuffer[4] & 0x7F) << 8) + dataBuffer[5];
 690              		.loc 2 682 51 view .LVU145
 691 0078 1302     		lsls	r3, r2, #8
 692 007a 03F4FE43 		and	r3, r3, #32512
 682:Src/main.c    **** 			uint16_t temperature = ((dataBuffer[4] & 0x7F) << 8) + dataBuffer[5];
 693              		.loc 2 682 69 view .LVU146
 694 007e 6979     		ldrb	r1, [r5, #5]	@ zero_extendqisi2
 682:Src/main.c    **** 			uint16_t temperature = ((dataBuffer[4] & 0x7F) << 8) + dataBuffer[5];
 695              		.loc 2 682 13 view .LVU147
 696 0080 0B44     		add	r3, r3, r1
 697              	.LVL55:
 683:Src/main.c    **** 			t = (((dataBuffer[4] & 0x80) >> 7) == 1) ? (t * (-1)) : t;
 698              		.loc 2 683 4 is_stmt 1 view .LVU148
 683:Src/main.c    **** 			t = (((dataBuffer[4] & 0x80) >> 7) == 1) ? (t * (-1)) : t;
 699              		.loc 2 683 20 is_stmt 0 view .LVU149
 700 0082 07EE903A 		vmov	s15, r3	@ int
 701 0086 B8EEE77B 		vcvt.f64.s32	d7, s15
 702 008a B2EE045B 		vmov.f64	d5, #1.0e+1
 703 008e 87EE056B 		vdiv.f64	d6, d7, d5
 704 0092 B7EEC66B 		vcvt.f32.f64	s12, d6
 684:Src/main.c    **** 			
 705              		.loc 2 684 4 is_stmt 1 view .LVU150
 684:Src/main.c    **** 			
 706              		.loc 2 684 58 is_stmt 0 view .LVU151
 707 0096 D309     		lsrs	r3, r2, #7
 708              	.LVL56:
 684:Src/main.c    **** 			
 709              		.loc 2 684 58 view .LVU152
 710 0098 16D1     		bne	.L53
 711              	.L46:
 684:Src/main.c    **** 			
 712              		.loc 2 684 6 discriminator 4 view .LVU153
 713 009a 134B     		ldr	r3, .L54+24
 714 009c 83ED006A 		vstr.32	s12, [r3]
 686:Src/main.c    **** 			h = humidity / 10.0;
 715              		.loc 2 686 4 is_stmt 1 discriminator 4 view .LVU154
 686:Src/main.c    **** 			h = humidity / 10.0;
 716              		.loc 2 686 35 is_stmt 0 discriminator 4 view .LVU155
 717 00a0 104A     		ldr	r2, .L54+20
 718 00a2 9178     		ldrb	r1, [r2, #2]	@ zero_extendqisi2
 686:Src/main.c    **** 			h = humidity / 10.0;
 719              		.loc 2 686 57 discriminator 4 view .LVU156
 720 00a4 D378     		ldrb	r3, [r2, #3]	@ zero_extendqisi2
 686:Src/main.c    **** 			h = humidity / 10.0;
 721              		.loc 2 686 13 discriminator 4 view .LVU157
 722 00a6 03EB0123 		add	r3, r3, r1, lsl #8
 723 00aa 9BB2     		uxth	r3, r3
 724              	.LVL57:
ARM GAS  C:\Users\Haruka\AppData\Local\Temp\ccgT5NLw.s 			page 27


 687:Src/main.c    **** 		}
 725              		.loc 2 687 4 is_stmt 1 discriminator 4 view .LVU158
 687:Src/main.c    **** 		}
 726              		.loc 2 687 17 is_stmt 0 discriminator 4 view .LVU159
 727 00ac 07EE903A 		vmov	s15, r3	@ int
 728              	.LVL58:
 687:Src/main.c    **** 		}
 729              		.loc 2 687 17 discriminator 4 view .LVU160
 730 00b0 B8EEE77B 		vcvt.f64.s32	d7, s15
 731 00b4 B2EE045B 		vmov.f64	d5, #1.0e+1
 732 00b8 87EE056B 		vdiv.f64	d6, d7, d5
 733 00bc B7EEC66B 		vcvt.f32.f64	s12, d6
 687:Src/main.c    **** 		}
 734              		.loc 2 687 6 discriminator 4 view .LVU161
 735 00c0 0A4B     		ldr	r3, .L54+28
 736              	.LVL59:
 687:Src/main.c    **** 		}
 737              		.loc 2 687 6 discriminator 4 view .LVU162
 738 00c2 83ED006A 		vstr.32	s12, [r3]
 739              	.LBE39:
 740              	.LBE41:
 741              		.loc 2 690 1 discriminator 4 view .LVU163
 742 00c6 D4E7     		b	.L44
 743              	.LVL60:
 744              	.L53:
 745              	.LBB42:
 746              	.LBB40:
 684:Src/main.c    **** 			
 747              		.loc 2 684 58 discriminator 1 view .LVU164
 748 00c8 B1EE466A 		vneg.f32	s12, s12
 749 00cc E5E7     		b	.L46
 750              	.L55:
 751 00ce 00BF     		.align	2
 752              	.L54:
 753 00d0 00000000 		.word	tick
 754 00d4 00000000 		.word	.LANCHOR0
 755 00d8 00040240 		.word	1073873920
 756 00dc 00000000 		.word	cmdBuffer
 757 00e0 00000000 		.word	hi2c1
 758 00e4 00000000 		.word	dataBuffer
 759 00e8 00000000 		.word	.LANCHOR1
 760 00ec 00000000 		.word	.LANCHOR2
 761              	.LBE40:
 762              	.LBE42:
 763              		.cfi_endproc
 764              	.LFE155:
 766              		.section	.text.convert_565,"ax",%progbits
 767              		.align	1
 768              		.global	convert_565
 769              		.syntax unified
 770              		.thumb
 771              		.thumb_func
 772              		.fpu fpv5-d16
 774              	convert_565:
 775              	.LFB156:
 691:Src/main.c    **** uint16_t convert_565(){
 776              		.loc 2 691 23 is_stmt 1 view -0
ARM GAS  C:\Users\Haruka\AppData\Local\Temp\ccgT5NLw.s 			page 28


 777              		.cfi_startproc
 778              		@ args = 0, pretend = 0, frame = 0
 779              		@ frame_needed = 0, uses_anonymous_args = 0
 780              		@ link register save eliminated.
 692:Src/main.c    ****     uint8_t red   = r;
 781              		.loc 2 692 5 view .LVU166
 782              		.loc 2 692 13 is_stmt 0 view .LVU167
 783 0000 064B     		ldr	r3, .L57
 784 0002 1B78     		ldrb	r3, [r3]	@ zero_extendqisi2
 785              	.LVL61:
 693:Src/main.c    ****     uint8_t green = g;
 786              		.loc 2 693 5 is_stmt 1 view .LVU168
 787              		.loc 2 693 13 is_stmt 0 view .LVU169
 788 0004 064A     		ldr	r2, .L57+4
 789 0006 1278     		ldrb	r2, [r2]	@ zero_extendqisi2
 790              	.LVL62:
 694:Src/main.c    ****     uint8_t blue  = b;
 791              		.loc 2 694 5 is_stmt 1 view .LVU170
 792              		.loc 2 694 13 is_stmt 0 view .LVU171
 793 0008 0649     		ldr	r1, .L57+8
 794 000a 0878     		ldrb	r0, [r1]	@ zero_extendqisi2
 795              	.LVL63:
 695:Src/main.c    **** 
 696:Src/main.c    ****     uint16_t b = (blue >> 3) & 0x1f;
 796              		.loc 2 696 5 is_stmt 1 view .LVU172
 697:Src/main.c    ****     uint16_t g = ((green >> 2) & 0x3f) << 5;
 797              		.loc 2 697 5 view .LVU173
 798              		.loc 2 697 40 is_stmt 0 view .LVU174
 799 000c 9208     		lsrs	r2, r2, #2
 800              	.LVL64:
 698:Src/main.c    ****     uint16_t r = ((red >> 3) & 0x1f) << 11;
 801              		.loc 2 698 5 is_stmt 1 view .LVU175
 802              		.loc 2 698 38 is_stmt 0 view .LVU176
 803 000e DB08     		lsrs	r3, r3, #3
 804              	.LVL65:
 805              		.loc 2 698 14 view .LVU177
 806 0010 DB02     		lsls	r3, r3, #11
 807              	.LVL66:
 699:Src/main.c    **** 
 700:Src/main.c    ****     return (uint16_t) (r | g | b);
 808              		.loc 2 700 5 is_stmt 1 view .LVU178
 809              		.loc 2 700 12 is_stmt 0 view .LVU179
 810 0012 43EA4213 		orr	r3, r3, r2, lsl #5
 811              	.LVL67:
 701:Src/main.c    **** }
 812              		.loc 2 701 1 view .LVU180
 813 0016 43EAD000 		orr	r0, r3, r0, lsr #3
 814              	.LVL68:
 815              		.loc 2 701 1 view .LVU181
 816 001a 7047     		bx	lr
 817              	.L58:
 818              		.align	2
 819              	.L57:
 820 001c 00000000 		.word	.LANCHOR3
 821 0020 00000000 		.word	.LANCHOR4
 822 0024 00000000 		.word	.LANCHOR5
 823              		.cfi_endproc
ARM GAS  C:\Users\Haruka\AppData\Local\Temp\ccgT5NLw.s 			page 29


 824              	.LFE156:
 826              		.section	.rodata.clearUART.str1.4,"aMS",%progbits,1
 827              		.align	2
 828              	.LC1:
 829 0000 5B324A00 		.ascii	"[2J\000"
 830              		.align	2
 831              	.LC2:
 832 0004 5B4800   		.ascii	"[H\000"
 833              		.section	.text.clearUART,"ax",%progbits
 834              		.align	1
 835              		.global	clearUART
 836              		.syntax unified
 837              		.thumb
 838              		.thumb_func
 839              		.fpu fpv5-d16
 841              	clearUART:
 842              	.LFB157:
 702:Src/main.c    **** void clearUART(){
 843              		.loc 2 702 17 is_stmt 1 view -0
 844              		.cfi_startproc
 845              		@ args = 0, pretend = 0, frame = 0
 846              		@ frame_needed = 0, uses_anonymous_args = 0
 847 0000 10B5     		push	{r4, lr}
 848              	.LCFI22:
 849              		.cfi_def_cfa_offset 8
 850              		.cfi_offset 4, -8
 851              		.cfi_offset 14, -4
 703:Src/main.c    **** 	Serial.printc(27);
 852              		.loc 2 703 2 view .LVU183
 853              		.loc 2 703 8 is_stmt 0 view .LVU184
 854 0002 074C     		ldr	r4, .L61
 855 0004 A368     		ldr	r3, [r4, #8]
 856              		.loc 2 703 2 view .LVU185
 857 0006 1B20     		movs	r0, #27
 858 0008 9847     		blx	r3
 859              	.LVL69:
 704:Src/main.c    **** 	Serial.print("[2J");
 860              		.loc 2 704 2 is_stmt 1 view .LVU186
 861              		.loc 2 704 8 is_stmt 0 view .LVU187
 862 000a 2368     		ldr	r3, [r4]
 863              		.loc 2 704 2 view .LVU188
 864 000c 0548     		ldr	r0, .L61+4
 865 000e 9847     		blx	r3
 866              	.LVL70:
 705:Src/main.c    **** 	Serial.printc(27);
 867              		.loc 2 705 2 is_stmt 1 view .LVU189
 868              		.loc 2 705 8 is_stmt 0 view .LVU190
 869 0010 A368     		ldr	r3, [r4, #8]
 870              		.loc 2 705 2 view .LVU191
 871 0012 1B20     		movs	r0, #27
 872 0014 9847     		blx	r3
 873              	.LVL71:
 706:Src/main.c    **** 	Serial.print("[H");
 874              		.loc 2 706 2 is_stmt 1 view .LVU192
 875              		.loc 2 706 8 is_stmt 0 view .LVU193
 876 0016 2368     		ldr	r3, [r4]
 877              		.loc 2 706 2 view .LVU194
ARM GAS  C:\Users\Haruka\AppData\Local\Temp\ccgT5NLw.s 			page 30


 878 0018 0348     		ldr	r0, .L61+8
 879 001a 9847     		blx	r3
 880              	.LVL72:
 707:Src/main.c    **** }
 881              		.loc 2 707 1 view .LVU195
 882 001c 10BD     		pop	{r4, pc}
 883              	.L62:
 884 001e 00BF     		.align	2
 885              	.L61:
 886 0020 00000000 		.word	.LANCHOR6
 887 0024 00000000 		.word	.LC1
 888 0028 04000000 		.word	.LC2
 889              		.cfi_endproc
 890              	.LFE157:
 892              		.section	.text.Error_Handler,"ax",%progbits
 893              		.align	1
 894              		.global	Error_Handler
 895              		.syntax unified
 896              		.thumb
 897              		.thumb_func
 898              		.fpu fpv5-d16
 900              	Error_Handler:
 901              	.LFB158:
 708:Src/main.c    **** /* USER CODE END 4 */
 709:Src/main.c    **** 
 710:Src/main.c    **** /**
 711:Src/main.c    ****   * @brief  This function is executed in case of error occurrence.
 712:Src/main.c    ****   * @retval None
 713:Src/main.c    ****   */
 714:Src/main.c    **** void Error_Handler(void)
 715:Src/main.c    **** {
 902              		.loc 2 715 1 is_stmt 1 view -0
 903              		.cfi_startproc
 904              		@ Volatile: function does not return.
 905              		@ args = 0, pretend = 0, frame = 0
 906              		@ frame_needed = 0, uses_anonymous_args = 0
 907              		@ link register save eliminated.
 908              	.L64:
 716:Src/main.c    ****   /* USER CODE BEGIN Error_Handler_Debug */
 717:Src/main.c    ****   /* User can add his own implementation to report the HAL error return state */
 718:Src/main.c    ****   while(1)
 909              		.loc 2 718 3 discriminator 1 view .LVU197
 719:Src/main.c    ****   {
 720:Src/main.c    ****   }
 910              		.loc 2 720 3 discriminator 1 view .LVU198
 718:Src/main.c    ****   {
 911              		.loc 2 718 8 discriminator 1 view .LVU199
 912 0000 FEE7     		b	.L64
 913              		.cfi_endproc
 914              	.LFE158:
 916              		.section	.text.SystemClock_Config,"ax",%progbits
 917              		.align	1
 918              		.global	SystemClock_Config
 919              		.syntax unified
 920              		.thumb
 921              		.thumb_func
 922              		.fpu fpv5-d16
ARM GAS  C:\Users\Haruka\AppData\Local\Temp\ccgT5NLw.s 			page 31


 924              	SystemClock_Config:
 925              	.LFB153:
 598:Src/main.c    ****   RCC_OscInitTypeDef RCC_OscInitStruct = {0};
 926              		.loc 2 598 1 view -0
 927              		.cfi_startproc
 928              		@ args = 0, pretend = 0, frame = 224
 929              		@ frame_needed = 0, uses_anonymous_args = 0
 930 0000 00B5     		push	{lr}
 931              	.LCFI23:
 932              		.cfi_def_cfa_offset 4
 933              		.cfi_offset 14, -4
 934 0002 B9B0     		sub	sp, sp, #228
 935              	.LCFI24:
 936              		.cfi_def_cfa_offset 232
 599:Src/main.c    ****   RCC_ClkInitTypeDef RCC_ClkInitStruct = {0};
 937              		.loc 2 599 3 view .LVU201
 599:Src/main.c    ****   RCC_ClkInitTypeDef RCC_ClkInitStruct = {0};
 938              		.loc 2 599 22 is_stmt 0 view .LVU202
 939 0004 3422     		movs	r2, #52
 940 0006 0021     		movs	r1, #0
 941 0008 2BA8     		add	r0, sp, #172
 942 000a FFF7FEFF 		bl	memset
 943              	.LVL73:
 600:Src/main.c    ****   RCC_PeriphCLKInitTypeDef PeriphClkInitStruct = {0};
 944              		.loc 2 600 3 is_stmt 1 view .LVU203
 600:Src/main.c    ****   RCC_PeriphCLKInitTypeDef PeriphClkInitStruct = {0};
 945              		.loc 2 600 22 is_stmt 0 view .LVU204
 946 000e 0021     		movs	r1, #0
 947 0010 2691     		str	r1, [sp, #152]
 948 0012 2791     		str	r1, [sp, #156]
 949 0014 2891     		str	r1, [sp, #160]
 950 0016 2991     		str	r1, [sp, #164]
 951 0018 2A91     		str	r1, [sp, #168]
 601:Src/main.c    **** 
 952              		.loc 2 601 3 is_stmt 1 view .LVU205
 601:Src/main.c    **** 
 953              		.loc 2 601 28 is_stmt 0 view .LVU206
 954 001a 9022     		movs	r2, #144
 955 001c 02A8     		add	r0, sp, #8
 956 001e FFF7FEFF 		bl	memset
 957              	.LVL74:
 605:Src/main.c    ****   /** Configure the main internal regulator output voltage 
 958              		.loc 2 605 3 is_stmt 1 view .LVU207
 959 0022 FFF7FEFF 		bl	HAL_PWR_EnableBkUpAccess
 960              	.LVL75:
 608:Src/main.c    ****   __HAL_PWR_VOLTAGESCALING_CONFIG(PWR_REGULATOR_VOLTAGE_SCALE1);
 961              		.loc 2 608 3 view .LVU208
 962              	.LBB43:
 608:Src/main.c    ****   __HAL_PWR_VOLTAGESCALING_CONFIG(PWR_REGULATOR_VOLTAGE_SCALE1);
 963              		.loc 2 608 3 view .LVU209
 608:Src/main.c    ****   __HAL_PWR_VOLTAGESCALING_CONFIG(PWR_REGULATOR_VOLTAGE_SCALE1);
 964              		.loc 2 608 3 view .LVU210
 965 0026 294B     		ldr	r3, .L75
 966 0028 1A6C     		ldr	r2, [r3, #64]
 967 002a 42F08052 		orr	r2, r2, #268435456
 968 002e 1A64     		str	r2, [r3, #64]
 608:Src/main.c    ****   __HAL_PWR_VOLTAGESCALING_CONFIG(PWR_REGULATOR_VOLTAGE_SCALE1);
ARM GAS  C:\Users\Haruka\AppData\Local\Temp\ccgT5NLw.s 			page 32


 969              		.loc 2 608 3 view .LVU211
 970 0030 1B6C     		ldr	r3, [r3, #64]
 971 0032 03F08053 		and	r3, r3, #268435456
 972 0036 0093     		str	r3, [sp]
 608:Src/main.c    ****   __HAL_PWR_VOLTAGESCALING_CONFIG(PWR_REGULATOR_VOLTAGE_SCALE1);
 973              		.loc 2 608 3 view .LVU212
 974 0038 009B     		ldr	r3, [sp]
 975              	.LBE43:
 608:Src/main.c    ****   __HAL_PWR_VOLTAGESCALING_CONFIG(PWR_REGULATOR_VOLTAGE_SCALE1);
 976              		.loc 2 608 3 view .LVU213
 609:Src/main.c    ****   /** Initializes the CPU, AHB and APB busses clocks 
 977              		.loc 2 609 3 view .LVU214
 978              	.LBB44:
 609:Src/main.c    ****   /** Initializes the CPU, AHB and APB busses clocks 
 979              		.loc 2 609 3 view .LVU215
 609:Src/main.c    ****   /** Initializes the CPU, AHB and APB busses clocks 
 980              		.loc 2 609 3 view .LVU216
 981 003a 254B     		ldr	r3, .L75+4
 982 003c 1A68     		ldr	r2, [r3]
 983 003e 42F44042 		orr	r2, r2, #49152
 984 0042 1A60     		str	r2, [r3]
 609:Src/main.c    ****   /** Initializes the CPU, AHB and APB busses clocks 
 985              		.loc 2 609 3 view .LVU217
 986 0044 1B68     		ldr	r3, [r3]
 987 0046 03F44043 		and	r3, r3, #49152
 988 004a 0193     		str	r3, [sp, #4]
 609:Src/main.c    ****   /** Initializes the CPU, AHB and APB busses clocks 
 989              		.loc 2 609 3 view .LVU218
 990 004c 019B     		ldr	r3, [sp, #4]
 991              	.LBE44:
 609:Src/main.c    ****   /** Initializes the CPU, AHB and APB busses clocks 
 992              		.loc 2 609 3 view .LVU219
 612:Src/main.c    ****   RCC_OscInitStruct.HSEState = RCC_HSE_BYPASS;
 993              		.loc 2 612 3 view .LVU220
 612:Src/main.c    ****   RCC_OscInitStruct.HSEState = RCC_HSE_BYPASS;
 994              		.loc 2 612 36 is_stmt 0 view .LVU221
 995 004e 0123     		movs	r3, #1
 996 0050 2B93     		str	r3, [sp, #172]
 613:Src/main.c    ****   RCC_OscInitStruct.PLL.PLLState = RCC_PLL_ON;
 997              		.loc 2 613 3 is_stmt 1 view .LVU222
 613:Src/main.c    ****   RCC_OscInitStruct.PLL.PLLState = RCC_PLL_ON;
 998              		.loc 2 613 30 is_stmt 0 view .LVU223
 999 0052 4FF4A023 		mov	r3, #327680
 1000 0056 2C93     		str	r3, [sp, #176]
 614:Src/main.c    ****   RCC_OscInitStruct.PLL.PLLSource = RCC_PLLSOURCE_HSE;
 1001              		.loc 2 614 3 is_stmt 1 view .LVU224
 614:Src/main.c    ****   RCC_OscInitStruct.PLL.PLLSource = RCC_PLLSOURCE_HSE;
 1002              		.loc 2 614 34 is_stmt 0 view .LVU225
 1003 0058 0223     		movs	r3, #2
 1004 005a 3193     		str	r3, [sp, #196]
 615:Src/main.c    ****   RCC_OscInitStruct.PLL.PLLM = 4;
 1005              		.loc 2 615 3 is_stmt 1 view .LVU226
 615:Src/main.c    ****   RCC_OscInitStruct.PLL.PLLM = 4;
 1006              		.loc 2 615 35 is_stmt 0 view .LVU227
 1007 005c 4FF48002 		mov	r2, #4194304
 1008 0060 3292     		str	r2, [sp, #200]
 616:Src/main.c    ****   RCC_OscInitStruct.PLL.PLLN = 200;
ARM GAS  C:\Users\Haruka\AppData\Local\Temp\ccgT5NLw.s 			page 33


 1009              		.loc 2 616 3 is_stmt 1 view .LVU228
 616:Src/main.c    ****   RCC_OscInitStruct.PLL.PLLN = 200;
 1010              		.loc 2 616 30 is_stmt 0 view .LVU229
 1011 0062 0422     		movs	r2, #4
 1012 0064 3392     		str	r2, [sp, #204]
 617:Src/main.c    ****   RCC_OscInitStruct.PLL.PLLP = RCC_PLLP_DIV2;
 1013              		.loc 2 617 3 is_stmt 1 view .LVU230
 617:Src/main.c    ****   RCC_OscInitStruct.PLL.PLLP = RCC_PLLP_DIV2;
 1014              		.loc 2 617 30 is_stmt 0 view .LVU231
 1015 0066 C822     		movs	r2, #200
 1016 0068 3492     		str	r2, [sp, #208]
 618:Src/main.c    ****   RCC_OscInitStruct.PLL.PLLQ = 9;
 1017              		.loc 2 618 3 is_stmt 1 view .LVU232
 618:Src/main.c    ****   RCC_OscInitStruct.PLL.PLLQ = 9;
 1018              		.loc 2 618 30 is_stmt 0 view .LVU233
 1019 006a 3593     		str	r3, [sp, #212]
 619:Src/main.c    ****   if (HAL_RCC_OscConfig(&RCC_OscInitStruct) != HAL_OK)
 1020              		.loc 2 619 3 is_stmt 1 view .LVU234
 619:Src/main.c    ****   if (HAL_RCC_OscConfig(&RCC_OscInitStruct) != HAL_OK)
 1021              		.loc 2 619 30 is_stmt 0 view .LVU235
 1022 006c 0923     		movs	r3, #9
 1023 006e 3693     		str	r3, [sp, #216]
 620:Src/main.c    ****   {
 1024              		.loc 2 620 3 is_stmt 1 view .LVU236
 620:Src/main.c    ****   {
 1025              		.loc 2 620 7 is_stmt 0 view .LVU237
 1026 0070 2BA8     		add	r0, sp, #172
 1027 0072 FFF7FEFF 		bl	HAL_RCC_OscConfig
 1028              	.LVL76:
 620:Src/main.c    ****   {
 1029              		.loc 2 620 6 view .LVU238
 1030 0076 00BB     		cbnz	r0, .L71
 626:Src/main.c    ****   {
 1031              		.loc 2 626 3 is_stmt 1 view .LVU239
 626:Src/main.c    ****   {
 1032              		.loc 2 626 7 is_stmt 0 view .LVU240
 1033 0078 FFF7FEFF 		bl	HAL_PWREx_EnableOverDrive
 1034              	.LVL77:
 626:Src/main.c    ****   {
 1035              		.loc 2 626 6 view .LVU241
 1036 007c F8B9     		cbnz	r0, .L72
 632:Src/main.c    ****                               |RCC_CLOCKTYPE_PCLK1|RCC_CLOCKTYPE_PCLK2;
 1037              		.loc 2 632 3 is_stmt 1 view .LVU242
 632:Src/main.c    ****                               |RCC_CLOCKTYPE_PCLK1|RCC_CLOCKTYPE_PCLK2;
 1038              		.loc 2 632 31 is_stmt 0 view .LVU243
 1039 007e 0F23     		movs	r3, #15
 1040 0080 2693     		str	r3, [sp, #152]
 634:Src/main.c    ****   RCC_ClkInitStruct.AHBCLKDivider = RCC_SYSCLK_DIV1;
 1041              		.loc 2 634 3 is_stmt 1 view .LVU244
 634:Src/main.c    ****   RCC_ClkInitStruct.AHBCLKDivider = RCC_SYSCLK_DIV1;
 1042              		.loc 2 634 34 is_stmt 0 view .LVU245
 1043 0082 0223     		movs	r3, #2
 1044 0084 2793     		str	r3, [sp, #156]
 635:Src/main.c    ****   RCC_ClkInitStruct.APB1CLKDivider = RCC_HCLK_DIV4;
 1045              		.loc 2 635 3 is_stmt 1 view .LVU246
 635:Src/main.c    ****   RCC_ClkInitStruct.APB1CLKDivider = RCC_HCLK_DIV4;
 1046              		.loc 2 635 35 is_stmt 0 view .LVU247
ARM GAS  C:\Users\Haruka\AppData\Local\Temp\ccgT5NLw.s 			page 34


 1047 0086 0023     		movs	r3, #0
 1048 0088 2893     		str	r3, [sp, #160]
 636:Src/main.c    ****   RCC_ClkInitStruct.APB2CLKDivider = RCC_HCLK_DIV2;
 1049              		.loc 2 636 3 is_stmt 1 view .LVU248
 636:Src/main.c    ****   RCC_ClkInitStruct.APB2CLKDivider = RCC_HCLK_DIV2;
 1050              		.loc 2 636 36 is_stmt 0 view .LVU249
 1051 008a 4FF4A053 		mov	r3, #5120
 1052 008e 2993     		str	r3, [sp, #164]
 637:Src/main.c    **** 
 1053              		.loc 2 637 3 is_stmt 1 view .LVU250
 637:Src/main.c    **** 
 1054              		.loc 2 637 36 is_stmt 0 view .LVU251
 1055 0090 4FF48053 		mov	r3, #4096
 1056 0094 2A93     		str	r3, [sp, #168]
 639:Src/main.c    ****   {
 1057              		.loc 2 639 3 is_stmt 1 view .LVU252
 639:Src/main.c    ****   {
 1058              		.loc 2 639 7 is_stmt 0 view .LVU253
 1059 0096 0621     		movs	r1, #6
 1060 0098 26A8     		add	r0, sp, #152
 1061 009a FFF7FEFF 		bl	HAL_RCC_ClockConfig
 1062              	.LVL78:
 639:Src/main.c    ****   {
 1063              		.loc 2 639 6 view .LVU254
 1064 009e 80B9     		cbnz	r0, .L73
 643:Src/main.c    ****                               |RCC_PERIPHCLK_CLK48;
 1065              		.loc 2 643 3 is_stmt 1 view .LVU255
 643:Src/main.c    ****                               |RCC_PERIPHCLK_CLK48;
 1066              		.loc 2 643 44 is_stmt 0 view .LVU256
 1067 00a0 0C4B     		ldr	r3, .L75+8
 1068 00a2 0293     		str	r3, [sp, #8]
 645:Src/main.c    ****   PeriphClkInitStruct.I2c1ClockSelection = RCC_I2C1CLKSOURCE_PCLK1;
 1069              		.loc 2 645 3 is_stmt 1 view .LVU257
 645:Src/main.c    ****   PeriphClkInitStruct.I2c1ClockSelection = RCC_I2C1CLKSOURCE_PCLK1;
 1070              		.loc 2 645 44 is_stmt 0 view .LVU258
 1071 00a4 0023     		movs	r3, #0
 1072 00a6 1593     		str	r3, [sp, #84]
 646:Src/main.c    ****   PeriphClkInitStruct.Clk48ClockSelection = RCC_CLK48SOURCE_PLL;
 1073              		.loc 2 646 3 is_stmt 1 view .LVU259
 646:Src/main.c    ****   PeriphClkInitStruct.Clk48ClockSelection = RCC_CLK48SOURCE_PLL;
 1074              		.loc 2 646 42 is_stmt 0 view .LVU260
 1075 00a8 1B93     		str	r3, [sp, #108]
 647:Src/main.c    ****   if (HAL_RCCEx_PeriphCLKConfig(&PeriphClkInitStruct) != HAL_OK)
 1076              		.loc 2 647 3 is_stmt 1 view .LVU261
 647:Src/main.c    ****   if (HAL_RCCEx_PeriphCLKConfig(&PeriphClkInitStruct) != HAL_OK)
 1077              		.loc 2 647 43 is_stmt 0 view .LVU262
 1078 00aa 2193     		str	r3, [sp, #132]
 648:Src/main.c    ****   {
 1079              		.loc 2 648 3 is_stmt 1 view .LVU263
 648:Src/main.c    ****   {
 1080              		.loc 2 648 7 is_stmt 0 view .LVU264
 1081 00ac 02A8     		add	r0, sp, #8
 1082 00ae FFF7FEFF 		bl	HAL_RCCEx_PeriphCLKConfig
 1083              	.LVL79:
 648:Src/main.c    ****   {
 1084              		.loc 2 648 6 view .LVU265
 1085 00b2 40B9     		cbnz	r0, .L74
ARM GAS  C:\Users\Haruka\AppData\Local\Temp\ccgT5NLw.s 			page 35


 652:Src/main.c    **** 
 1086              		.loc 2 652 1 view .LVU266
 1087 00b4 39B0     		add	sp, sp, #228
 1088              	.LCFI25:
 1089              		.cfi_remember_state
 1090              		.cfi_def_cfa_offset 4
 1091              		@ sp needed
 1092 00b6 5DF804FB 		ldr	pc, [sp], #4
 1093              	.L71:
 1094              	.LCFI26:
 1095              		.cfi_restore_state
 622:Src/main.c    ****   }
 1096              		.loc 2 622 5 is_stmt 1 view .LVU267
 1097 00ba FFF7FEFF 		bl	Error_Handler
 1098              	.LVL80:
 1099              	.L72:
 628:Src/main.c    ****   }
 1100              		.loc 2 628 5 view .LVU268
 1101 00be FFF7FEFF 		bl	Error_Handler
 1102              	.LVL81:
 1103              	.L73:
 641:Src/main.c    ****   }
 1104              		.loc 2 641 5 view .LVU269
 1105 00c2 FFF7FEFF 		bl	Error_Handler
 1106              	.LVL82:
 1107              	.L74:
 650:Src/main.c    ****   }
 1108              		.loc 2 650 5 view .LVU270
 1109 00c6 FFF7FEFF 		bl	Error_Handler
 1110              	.LVL83:
 1111              	.L76:
 1112 00ca 00BF     		.align	2
 1113              	.L75:
 1114 00cc 00380240 		.word	1073887232
 1115 00d0 00700040 		.word	1073770496
 1116 00d4 00412000 		.word	2113792
 1117              		.cfi_endproc
 1118              	.LFE153:
 1120              		.section	.rodata.main.str1.4,"aMS",%progbits,1
 1121              		.align	2
 1122              	.LC3:
 1123 0000 53746172 		.ascii	"Start Timer\000"
 1123      74205469 
 1123      6D657200 
 1124              		.align	2
 1125              	.LC4:
 1126 000c 53746172 		.ascii	"Start I2C\000"
 1126      74204932 
 1126      4300
 1127 0016 0000     		.align	2
 1128              	.LC5:
 1129 0018 546F7563 		.ascii	"Touchscreen\000"
 1129      68736372 
 1129      65656E00 
 1130              		.align	2
 1131              	.LC6:
 1132 0024 546F7563 		.ascii	"Touch to draw\000"
ARM GAS  C:\Users\Haruka\AppData\Local\Temp\ccgT5NLw.s 			page 36


 1132      6820746F 
 1132      20647261 
 1132      7700
 1133 0032 0000     		.align	2
 1134              	.LC7:
 1135 0034 504F5320 		.ascii	"POS X: %.3d\000"
 1135      583A2025 
 1135      2E336400 
 1136              		.align	2
 1137              	.LC8:
 1138 0040 504F5320 		.ascii	"POS Y: %.3d\000"
 1138      593A2025 
 1138      2E336400 
 1139              		.section	.text.main,"ax",%progbits
 1140              		.align	1
 1141              		.global	main
 1142              		.syntax unified
 1143              		.thumb
 1144              		.thumb_func
 1145              		.fpu fpv5-d16
 1147              	main:
 1148              	.LFB152:
  92:Src/main.c    ****   /* USER CODE BEGIN 1 */
 1149              		.loc 2 92 1 view -0
 1150              		.cfi_startproc
 1151              		@ args = 0, pretend = 0, frame = 40
 1152              		@ frame_needed = 0, uses_anonymous_args = 0
 1153 0000 F0B5     		push	{r4, r5, r6, r7, lr}
 1154              	.LCFI27:
 1155              		.cfi_def_cfa_offset 20
 1156              		.cfi_offset 4, -20
 1157              		.cfi_offset 5, -16
 1158              		.cfi_offset 6, -12
 1159              		.cfi_offset 7, -8
 1160              		.cfi_offset 14, -4
 1161 0002 8DB0     		sub	sp, sp, #52
 1162              	.LCFI28:
 1163              		.cfi_def_cfa_offset 72
  99:Src/main.c    **** 
 1164              		.loc 2 99 3 view .LVU272
 1165              	.LBB71:
 1166              	.LBI71:
 1167              		.file 3 "Drivers/CMSIS/Include/core_cm7.h"
   1:Drivers/CMSIS/Include/core_cm7.h **** /**************************************************************************//**
   2:Drivers/CMSIS/Include/core_cm7.h ****  * @file     core_cm7.h
   3:Drivers/CMSIS/Include/core_cm7.h ****  * @brief    CMSIS Cortex-M7 Core Peripheral Access Layer Header File
   4:Drivers/CMSIS/Include/core_cm7.h ****  * @version  V5.0.8
   5:Drivers/CMSIS/Include/core_cm7.h ****  * @date     04. June 2018
   6:Drivers/CMSIS/Include/core_cm7.h ****  ******************************************************************************/
   7:Drivers/CMSIS/Include/core_cm7.h **** /*
   8:Drivers/CMSIS/Include/core_cm7.h ****  * Copyright (c) 2009-2018 Arm Limited. All rights reserved.
   9:Drivers/CMSIS/Include/core_cm7.h ****  *
  10:Drivers/CMSIS/Include/core_cm7.h ****  * SPDX-License-Identifier: Apache-2.0
  11:Drivers/CMSIS/Include/core_cm7.h ****  *
  12:Drivers/CMSIS/Include/core_cm7.h ****  * Licensed under the Apache License, Version 2.0 (the License); you may
  13:Drivers/CMSIS/Include/core_cm7.h ****  * not use this file except in compliance with the License.
  14:Drivers/CMSIS/Include/core_cm7.h ****  * You may obtain a copy of the License at
ARM GAS  C:\Users\Haruka\AppData\Local\Temp\ccgT5NLw.s 			page 37


  15:Drivers/CMSIS/Include/core_cm7.h ****  *
  16:Drivers/CMSIS/Include/core_cm7.h ****  * www.apache.org/licenses/LICENSE-2.0
  17:Drivers/CMSIS/Include/core_cm7.h ****  *
  18:Drivers/CMSIS/Include/core_cm7.h ****  * Unless required by applicable law or agreed to in writing, software
  19:Drivers/CMSIS/Include/core_cm7.h ****  * distributed under the License is distributed on an AS IS BASIS, WITHOUT
  20:Drivers/CMSIS/Include/core_cm7.h ****  * WARRANTIES OR CONDITIONS OF ANY KIND, either express or implied.
  21:Drivers/CMSIS/Include/core_cm7.h ****  * See the License for the specific language governing permissions and
  22:Drivers/CMSIS/Include/core_cm7.h ****  * limitations under the License.
  23:Drivers/CMSIS/Include/core_cm7.h ****  */
  24:Drivers/CMSIS/Include/core_cm7.h **** 
  25:Drivers/CMSIS/Include/core_cm7.h **** #if   defined ( __ICCARM__ )
  26:Drivers/CMSIS/Include/core_cm7.h ****   #pragma system_include         /* treat file as system include file for MISRA check */
  27:Drivers/CMSIS/Include/core_cm7.h **** #elif defined (__clang__)
  28:Drivers/CMSIS/Include/core_cm7.h ****   #pragma clang system_header   /* treat file as system include file */
  29:Drivers/CMSIS/Include/core_cm7.h **** #endif
  30:Drivers/CMSIS/Include/core_cm7.h **** 
  31:Drivers/CMSIS/Include/core_cm7.h **** #ifndef __CORE_CM7_H_GENERIC
  32:Drivers/CMSIS/Include/core_cm7.h **** #define __CORE_CM7_H_GENERIC
  33:Drivers/CMSIS/Include/core_cm7.h **** 
  34:Drivers/CMSIS/Include/core_cm7.h **** #include <stdint.h>
  35:Drivers/CMSIS/Include/core_cm7.h **** 
  36:Drivers/CMSIS/Include/core_cm7.h **** #ifdef __cplusplus
  37:Drivers/CMSIS/Include/core_cm7.h ****  extern "C" {
  38:Drivers/CMSIS/Include/core_cm7.h **** #endif
  39:Drivers/CMSIS/Include/core_cm7.h **** 
  40:Drivers/CMSIS/Include/core_cm7.h **** /**
  41:Drivers/CMSIS/Include/core_cm7.h ****   \page CMSIS_MISRA_Exceptions  MISRA-C:2004 Compliance Exceptions
  42:Drivers/CMSIS/Include/core_cm7.h ****   CMSIS violates the following MISRA-C:2004 rules:
  43:Drivers/CMSIS/Include/core_cm7.h **** 
  44:Drivers/CMSIS/Include/core_cm7.h ****    \li Required Rule 8.5, object/function definition in header file.<br>
  45:Drivers/CMSIS/Include/core_cm7.h ****      Function definitions in header files are used to allow 'inlining'.
  46:Drivers/CMSIS/Include/core_cm7.h **** 
  47:Drivers/CMSIS/Include/core_cm7.h ****    \li Required Rule 18.4, declaration of union type or object of union type: '{...}'.<br>
  48:Drivers/CMSIS/Include/core_cm7.h ****      Unions are used for effective representation of core registers.
  49:Drivers/CMSIS/Include/core_cm7.h **** 
  50:Drivers/CMSIS/Include/core_cm7.h ****    \li Advisory Rule 19.7, Function-like macro defined.<br>
  51:Drivers/CMSIS/Include/core_cm7.h ****      Function-like macros are used to allow more efficient code.
  52:Drivers/CMSIS/Include/core_cm7.h ****  */
  53:Drivers/CMSIS/Include/core_cm7.h **** 
  54:Drivers/CMSIS/Include/core_cm7.h **** 
  55:Drivers/CMSIS/Include/core_cm7.h **** /*******************************************************************************
  56:Drivers/CMSIS/Include/core_cm7.h ****  *                 CMSIS definitions
  57:Drivers/CMSIS/Include/core_cm7.h ****  ******************************************************************************/
  58:Drivers/CMSIS/Include/core_cm7.h **** /**
  59:Drivers/CMSIS/Include/core_cm7.h ****   \ingroup Cortex_M7
  60:Drivers/CMSIS/Include/core_cm7.h ****   @{
  61:Drivers/CMSIS/Include/core_cm7.h ****  */
  62:Drivers/CMSIS/Include/core_cm7.h **** 
  63:Drivers/CMSIS/Include/core_cm7.h **** #include "cmsis_version.h"
  64:Drivers/CMSIS/Include/core_cm7.h **** 
  65:Drivers/CMSIS/Include/core_cm7.h **** /* CMSIS CM7 definitions */
  66:Drivers/CMSIS/Include/core_cm7.h **** #define __CM7_CMSIS_VERSION_MAIN  (__CM_CMSIS_VERSION_MAIN)                  /*!< \deprecated [31:1
  67:Drivers/CMSIS/Include/core_cm7.h **** #define __CM7_CMSIS_VERSION_SUB   ( __CM_CMSIS_VERSION_SUB)                  /*!< \deprecated [15:0
  68:Drivers/CMSIS/Include/core_cm7.h **** #define __CM7_CMSIS_VERSION       ((__CM7_CMSIS_VERSION_MAIN << 16U) | \
  69:Drivers/CMSIS/Include/core_cm7.h ****                                     __CM7_CMSIS_VERSION_SUB           )      /*!< \deprecated CMSIS
  70:Drivers/CMSIS/Include/core_cm7.h **** 
  71:Drivers/CMSIS/Include/core_cm7.h **** #define __CORTEX_M                (7U)                                       /*!< Cortex-M Core */
ARM GAS  C:\Users\Haruka\AppData\Local\Temp\ccgT5NLw.s 			page 38


  72:Drivers/CMSIS/Include/core_cm7.h **** 
  73:Drivers/CMSIS/Include/core_cm7.h **** /** __FPU_USED indicates whether an FPU is used or not.
  74:Drivers/CMSIS/Include/core_cm7.h ****     For this, __FPU_PRESENT has to be checked prior to making use of FPU specific registers and fun
  75:Drivers/CMSIS/Include/core_cm7.h **** */
  76:Drivers/CMSIS/Include/core_cm7.h **** #if defined ( __CC_ARM )
  77:Drivers/CMSIS/Include/core_cm7.h ****   #if defined __TARGET_FPU_VFP
  78:Drivers/CMSIS/Include/core_cm7.h ****     #if defined (__FPU_PRESENT) && (__FPU_PRESENT == 1U)
  79:Drivers/CMSIS/Include/core_cm7.h ****       #define __FPU_USED       1U
  80:Drivers/CMSIS/Include/core_cm7.h ****     #else
  81:Drivers/CMSIS/Include/core_cm7.h ****       #error "Compiler generates FPU instructions for a device without an FPU (check __FPU_PRESENT)
  82:Drivers/CMSIS/Include/core_cm7.h ****       #define __FPU_USED       0U
  83:Drivers/CMSIS/Include/core_cm7.h ****     #endif
  84:Drivers/CMSIS/Include/core_cm7.h ****   #else
  85:Drivers/CMSIS/Include/core_cm7.h ****     #define __FPU_USED         0U
  86:Drivers/CMSIS/Include/core_cm7.h ****   #endif
  87:Drivers/CMSIS/Include/core_cm7.h **** 
  88:Drivers/CMSIS/Include/core_cm7.h **** #elif defined (__ARMCC_VERSION) && (__ARMCC_VERSION >= 6010050)
  89:Drivers/CMSIS/Include/core_cm7.h ****   #if defined __ARM_PCS_VFP
  90:Drivers/CMSIS/Include/core_cm7.h ****     #if defined (__FPU_PRESENT) && (__FPU_PRESENT == 1U)
  91:Drivers/CMSIS/Include/core_cm7.h ****       #define __FPU_USED       1U
  92:Drivers/CMSIS/Include/core_cm7.h ****     #else
  93:Drivers/CMSIS/Include/core_cm7.h ****       #warning "Compiler generates FPU instructions for a device without an FPU (check __FPU_PRESEN
  94:Drivers/CMSIS/Include/core_cm7.h ****       #define __FPU_USED       0U
  95:Drivers/CMSIS/Include/core_cm7.h ****     #endif
  96:Drivers/CMSIS/Include/core_cm7.h ****   #else
  97:Drivers/CMSIS/Include/core_cm7.h ****     #define __FPU_USED         0U
  98:Drivers/CMSIS/Include/core_cm7.h ****   #endif
  99:Drivers/CMSIS/Include/core_cm7.h **** 
 100:Drivers/CMSIS/Include/core_cm7.h **** #elif defined ( __GNUC__ )
 101:Drivers/CMSIS/Include/core_cm7.h ****   #if defined (__VFP_FP__) && !defined(__SOFTFP__)
 102:Drivers/CMSIS/Include/core_cm7.h ****     #if defined (__FPU_PRESENT) && (__FPU_PRESENT == 1U)
 103:Drivers/CMSIS/Include/core_cm7.h ****       #define __FPU_USED       1U
 104:Drivers/CMSIS/Include/core_cm7.h ****     #else
 105:Drivers/CMSIS/Include/core_cm7.h ****       #error "Compiler generates FPU instructions for a device without an FPU (check __FPU_PRESENT)
 106:Drivers/CMSIS/Include/core_cm7.h ****       #define __FPU_USED       0U
 107:Drivers/CMSIS/Include/core_cm7.h ****     #endif
 108:Drivers/CMSIS/Include/core_cm7.h ****   #else
 109:Drivers/CMSIS/Include/core_cm7.h ****     #define __FPU_USED         0U
 110:Drivers/CMSIS/Include/core_cm7.h ****   #endif
 111:Drivers/CMSIS/Include/core_cm7.h **** 
 112:Drivers/CMSIS/Include/core_cm7.h **** #elif defined ( __ICCARM__ )
 113:Drivers/CMSIS/Include/core_cm7.h ****   #if defined __ARMVFP__
 114:Drivers/CMSIS/Include/core_cm7.h ****     #if defined (__FPU_PRESENT) && (__FPU_PRESENT == 1U)
 115:Drivers/CMSIS/Include/core_cm7.h ****       #define __FPU_USED       1U
 116:Drivers/CMSIS/Include/core_cm7.h ****     #else
 117:Drivers/CMSIS/Include/core_cm7.h ****       #error "Compiler generates FPU instructions for a device without an FPU (check __FPU_PRESENT)
 118:Drivers/CMSIS/Include/core_cm7.h ****       #define __FPU_USED       0U
 119:Drivers/CMSIS/Include/core_cm7.h ****     #endif
 120:Drivers/CMSIS/Include/core_cm7.h ****   #else
 121:Drivers/CMSIS/Include/core_cm7.h ****     #define __FPU_USED         0U
 122:Drivers/CMSIS/Include/core_cm7.h ****   #endif
 123:Drivers/CMSIS/Include/core_cm7.h **** 
 124:Drivers/CMSIS/Include/core_cm7.h **** #elif defined ( __TI_ARM__ )
 125:Drivers/CMSIS/Include/core_cm7.h ****   #if defined __TI_VFP_SUPPORT__
 126:Drivers/CMSIS/Include/core_cm7.h ****     #if defined (__FPU_PRESENT) && (__FPU_PRESENT == 1U)
 127:Drivers/CMSIS/Include/core_cm7.h ****       #define __FPU_USED       1U
 128:Drivers/CMSIS/Include/core_cm7.h ****     #else
ARM GAS  C:\Users\Haruka\AppData\Local\Temp\ccgT5NLw.s 			page 39


 129:Drivers/CMSIS/Include/core_cm7.h ****       #error "Compiler generates FPU instructions for a device without an FPU (check __FPU_PRESENT)
 130:Drivers/CMSIS/Include/core_cm7.h ****       #define __FPU_USED       0U
 131:Drivers/CMSIS/Include/core_cm7.h ****     #endif
 132:Drivers/CMSIS/Include/core_cm7.h ****   #else
 133:Drivers/CMSIS/Include/core_cm7.h ****     #define __FPU_USED         0U
 134:Drivers/CMSIS/Include/core_cm7.h ****   #endif
 135:Drivers/CMSIS/Include/core_cm7.h **** 
 136:Drivers/CMSIS/Include/core_cm7.h **** #elif defined ( __TASKING__ )
 137:Drivers/CMSIS/Include/core_cm7.h ****   #if defined __FPU_VFP__
 138:Drivers/CMSIS/Include/core_cm7.h ****     #if defined (__FPU_PRESENT) && (__FPU_PRESENT == 1U)
 139:Drivers/CMSIS/Include/core_cm7.h ****       #define __FPU_USED       1U
 140:Drivers/CMSIS/Include/core_cm7.h ****     #else
 141:Drivers/CMSIS/Include/core_cm7.h ****       #error "Compiler generates FPU instructions for a device without an FPU (check __FPU_PRESENT)
 142:Drivers/CMSIS/Include/core_cm7.h ****       #define __FPU_USED       0U
 143:Drivers/CMSIS/Include/core_cm7.h ****     #endif
 144:Drivers/CMSIS/Include/core_cm7.h ****   #else
 145:Drivers/CMSIS/Include/core_cm7.h ****     #define __FPU_USED         0U
 146:Drivers/CMSIS/Include/core_cm7.h ****   #endif
 147:Drivers/CMSIS/Include/core_cm7.h **** 
 148:Drivers/CMSIS/Include/core_cm7.h **** #elif defined ( __CSMC__ )
 149:Drivers/CMSIS/Include/core_cm7.h ****   #if ( __CSMC__ & 0x400U)
 150:Drivers/CMSIS/Include/core_cm7.h ****     #if defined (__FPU_PRESENT) && (__FPU_PRESENT == 1U)
 151:Drivers/CMSIS/Include/core_cm7.h ****       #define __FPU_USED       1U
 152:Drivers/CMSIS/Include/core_cm7.h ****     #else
 153:Drivers/CMSIS/Include/core_cm7.h ****       #error "Compiler generates FPU instructions for a device without an FPU (check __FPU_PRESENT)
 154:Drivers/CMSIS/Include/core_cm7.h ****       #define __FPU_USED       0U
 155:Drivers/CMSIS/Include/core_cm7.h ****     #endif
 156:Drivers/CMSIS/Include/core_cm7.h ****   #else
 157:Drivers/CMSIS/Include/core_cm7.h ****     #define __FPU_USED         0U
 158:Drivers/CMSIS/Include/core_cm7.h ****   #endif
 159:Drivers/CMSIS/Include/core_cm7.h **** 
 160:Drivers/CMSIS/Include/core_cm7.h **** #endif
 161:Drivers/CMSIS/Include/core_cm7.h **** 
 162:Drivers/CMSIS/Include/core_cm7.h **** #include "cmsis_compiler.h"               /* CMSIS compiler specific defines */
 163:Drivers/CMSIS/Include/core_cm7.h **** 
 164:Drivers/CMSIS/Include/core_cm7.h **** 
 165:Drivers/CMSIS/Include/core_cm7.h **** #ifdef __cplusplus
 166:Drivers/CMSIS/Include/core_cm7.h **** }
 167:Drivers/CMSIS/Include/core_cm7.h **** #endif
 168:Drivers/CMSIS/Include/core_cm7.h **** 
 169:Drivers/CMSIS/Include/core_cm7.h **** #endif /* __CORE_CM7_H_GENERIC */
 170:Drivers/CMSIS/Include/core_cm7.h **** 
 171:Drivers/CMSIS/Include/core_cm7.h **** #ifndef __CMSIS_GENERIC
 172:Drivers/CMSIS/Include/core_cm7.h **** 
 173:Drivers/CMSIS/Include/core_cm7.h **** #ifndef __CORE_CM7_H_DEPENDANT
 174:Drivers/CMSIS/Include/core_cm7.h **** #define __CORE_CM7_H_DEPENDANT
 175:Drivers/CMSIS/Include/core_cm7.h **** 
 176:Drivers/CMSIS/Include/core_cm7.h **** #ifdef __cplusplus
 177:Drivers/CMSIS/Include/core_cm7.h ****  extern "C" {
 178:Drivers/CMSIS/Include/core_cm7.h **** #endif
 179:Drivers/CMSIS/Include/core_cm7.h **** 
 180:Drivers/CMSIS/Include/core_cm7.h **** /* check device defines and use defaults */
 181:Drivers/CMSIS/Include/core_cm7.h **** #if defined __CHECK_DEVICE_DEFINES
 182:Drivers/CMSIS/Include/core_cm7.h ****   #ifndef __CM7_REV
 183:Drivers/CMSIS/Include/core_cm7.h ****     #define __CM7_REV               0x0000U
 184:Drivers/CMSIS/Include/core_cm7.h ****     #warning "__CM7_REV not defined in device header file; using default!"
 185:Drivers/CMSIS/Include/core_cm7.h ****   #endif
ARM GAS  C:\Users\Haruka\AppData\Local\Temp\ccgT5NLw.s 			page 40


 186:Drivers/CMSIS/Include/core_cm7.h **** 
 187:Drivers/CMSIS/Include/core_cm7.h ****   #ifndef __FPU_PRESENT
 188:Drivers/CMSIS/Include/core_cm7.h ****     #define __FPU_PRESENT             0U
 189:Drivers/CMSIS/Include/core_cm7.h ****     #warning "__FPU_PRESENT not defined in device header file; using default!"
 190:Drivers/CMSIS/Include/core_cm7.h ****   #endif
 191:Drivers/CMSIS/Include/core_cm7.h **** 
 192:Drivers/CMSIS/Include/core_cm7.h ****   #ifndef __MPU_PRESENT
 193:Drivers/CMSIS/Include/core_cm7.h ****     #define __MPU_PRESENT             0U
 194:Drivers/CMSIS/Include/core_cm7.h ****     #warning "__MPU_PRESENT not defined in device header file; using default!"
 195:Drivers/CMSIS/Include/core_cm7.h ****   #endif
 196:Drivers/CMSIS/Include/core_cm7.h **** 
 197:Drivers/CMSIS/Include/core_cm7.h ****   #ifndef __ICACHE_PRESENT
 198:Drivers/CMSIS/Include/core_cm7.h ****     #define __ICACHE_PRESENT          0U
 199:Drivers/CMSIS/Include/core_cm7.h ****     #warning "__ICACHE_PRESENT not defined in device header file; using default!"
 200:Drivers/CMSIS/Include/core_cm7.h ****   #endif
 201:Drivers/CMSIS/Include/core_cm7.h **** 
 202:Drivers/CMSIS/Include/core_cm7.h ****   #ifndef __DCACHE_PRESENT
 203:Drivers/CMSIS/Include/core_cm7.h ****     #define __DCACHE_PRESENT          0U
 204:Drivers/CMSIS/Include/core_cm7.h ****     #warning "__DCACHE_PRESENT not defined in device header file; using default!"
 205:Drivers/CMSIS/Include/core_cm7.h ****   #endif
 206:Drivers/CMSIS/Include/core_cm7.h **** 
 207:Drivers/CMSIS/Include/core_cm7.h ****   #ifndef __DTCM_PRESENT
 208:Drivers/CMSIS/Include/core_cm7.h ****     #define __DTCM_PRESENT            0U
 209:Drivers/CMSIS/Include/core_cm7.h ****     #warning "__DTCM_PRESENT        not defined in device header file; using default!"
 210:Drivers/CMSIS/Include/core_cm7.h ****   #endif
 211:Drivers/CMSIS/Include/core_cm7.h **** 
 212:Drivers/CMSIS/Include/core_cm7.h ****   #ifndef __NVIC_PRIO_BITS
 213:Drivers/CMSIS/Include/core_cm7.h ****     #define __NVIC_PRIO_BITS          3U
 214:Drivers/CMSIS/Include/core_cm7.h ****     #warning "__NVIC_PRIO_BITS not defined in device header file; using default!"
 215:Drivers/CMSIS/Include/core_cm7.h ****   #endif
 216:Drivers/CMSIS/Include/core_cm7.h **** 
 217:Drivers/CMSIS/Include/core_cm7.h ****   #ifndef __Vendor_SysTickConfig
 218:Drivers/CMSIS/Include/core_cm7.h ****     #define __Vendor_SysTickConfig    0U
 219:Drivers/CMSIS/Include/core_cm7.h ****     #warning "__Vendor_SysTickConfig not defined in device header file; using default!"
 220:Drivers/CMSIS/Include/core_cm7.h ****   #endif
 221:Drivers/CMSIS/Include/core_cm7.h **** #endif
 222:Drivers/CMSIS/Include/core_cm7.h **** 
 223:Drivers/CMSIS/Include/core_cm7.h **** /* IO definitions (access restrictions to peripheral registers) */
 224:Drivers/CMSIS/Include/core_cm7.h **** /**
 225:Drivers/CMSIS/Include/core_cm7.h ****     \defgroup CMSIS_glob_defs CMSIS Global Defines
 226:Drivers/CMSIS/Include/core_cm7.h **** 
 227:Drivers/CMSIS/Include/core_cm7.h ****     <strong>IO Type Qualifiers</strong> are used
 228:Drivers/CMSIS/Include/core_cm7.h ****     \li to specify the access to peripheral variables.
 229:Drivers/CMSIS/Include/core_cm7.h ****     \li for automatic generation of peripheral register debug information.
 230:Drivers/CMSIS/Include/core_cm7.h **** */
 231:Drivers/CMSIS/Include/core_cm7.h **** #ifdef __cplusplus
 232:Drivers/CMSIS/Include/core_cm7.h ****   #define   __I     volatile             /*!< Defines 'read only' permissions */
 233:Drivers/CMSIS/Include/core_cm7.h **** #else
 234:Drivers/CMSIS/Include/core_cm7.h ****   #define   __I     volatile const       /*!< Defines 'read only' permissions */
 235:Drivers/CMSIS/Include/core_cm7.h **** #endif
 236:Drivers/CMSIS/Include/core_cm7.h **** #define     __O     volatile             /*!< Defines 'write only' permissions */
 237:Drivers/CMSIS/Include/core_cm7.h **** #define     __IO    volatile             /*!< Defines 'read / write' permissions */
 238:Drivers/CMSIS/Include/core_cm7.h **** 
 239:Drivers/CMSIS/Include/core_cm7.h **** /* following defines should be used for structure members */
 240:Drivers/CMSIS/Include/core_cm7.h **** #define     __IM     volatile const      /*! Defines 'read only' structure member permissions */
 241:Drivers/CMSIS/Include/core_cm7.h **** #define     __OM     volatile            /*! Defines 'write only' structure member permissions */
 242:Drivers/CMSIS/Include/core_cm7.h **** #define     __IOM    volatile            /*! Defines 'read / write' structure member permissions */
ARM GAS  C:\Users\Haruka\AppData\Local\Temp\ccgT5NLw.s 			page 41


 243:Drivers/CMSIS/Include/core_cm7.h **** 
 244:Drivers/CMSIS/Include/core_cm7.h **** /*@} end of group Cortex_M7 */
 245:Drivers/CMSIS/Include/core_cm7.h **** 
 246:Drivers/CMSIS/Include/core_cm7.h **** 
 247:Drivers/CMSIS/Include/core_cm7.h **** 
 248:Drivers/CMSIS/Include/core_cm7.h **** /*******************************************************************************
 249:Drivers/CMSIS/Include/core_cm7.h ****  *                 Register Abstraction
 250:Drivers/CMSIS/Include/core_cm7.h ****   Core Register contain:
 251:Drivers/CMSIS/Include/core_cm7.h ****   - Core Register
 252:Drivers/CMSIS/Include/core_cm7.h ****   - Core NVIC Register
 253:Drivers/CMSIS/Include/core_cm7.h ****   - Core SCB Register
 254:Drivers/CMSIS/Include/core_cm7.h ****   - Core SysTick Register
 255:Drivers/CMSIS/Include/core_cm7.h ****   - Core Debug Register
 256:Drivers/CMSIS/Include/core_cm7.h ****   - Core MPU Register
 257:Drivers/CMSIS/Include/core_cm7.h ****   - Core FPU Register
 258:Drivers/CMSIS/Include/core_cm7.h ****  ******************************************************************************/
 259:Drivers/CMSIS/Include/core_cm7.h **** /**
 260:Drivers/CMSIS/Include/core_cm7.h ****   \defgroup CMSIS_core_register Defines and Type Definitions
 261:Drivers/CMSIS/Include/core_cm7.h ****   \brief Type definitions and defines for Cortex-M processor based devices.
 262:Drivers/CMSIS/Include/core_cm7.h **** */
 263:Drivers/CMSIS/Include/core_cm7.h **** 
 264:Drivers/CMSIS/Include/core_cm7.h **** /**
 265:Drivers/CMSIS/Include/core_cm7.h ****   \ingroup    CMSIS_core_register
 266:Drivers/CMSIS/Include/core_cm7.h ****   \defgroup   CMSIS_CORE  Status and Control Registers
 267:Drivers/CMSIS/Include/core_cm7.h ****   \brief      Core Register type definitions.
 268:Drivers/CMSIS/Include/core_cm7.h ****   @{
 269:Drivers/CMSIS/Include/core_cm7.h ****  */
 270:Drivers/CMSIS/Include/core_cm7.h **** 
 271:Drivers/CMSIS/Include/core_cm7.h **** /**
 272:Drivers/CMSIS/Include/core_cm7.h ****   \brief  Union type to access the Application Program Status Register (APSR).
 273:Drivers/CMSIS/Include/core_cm7.h ****  */
 274:Drivers/CMSIS/Include/core_cm7.h **** typedef union
 275:Drivers/CMSIS/Include/core_cm7.h **** {
 276:Drivers/CMSIS/Include/core_cm7.h ****   struct
 277:Drivers/CMSIS/Include/core_cm7.h ****   {
 278:Drivers/CMSIS/Include/core_cm7.h ****     uint32_t _reserved0:16;              /*!< bit:  0..15  Reserved */
 279:Drivers/CMSIS/Include/core_cm7.h ****     uint32_t GE:4;                       /*!< bit: 16..19  Greater than or Equal flags */
 280:Drivers/CMSIS/Include/core_cm7.h ****     uint32_t _reserved1:7;               /*!< bit: 20..26  Reserved */
 281:Drivers/CMSIS/Include/core_cm7.h ****     uint32_t Q:1;                        /*!< bit:     27  Saturation condition flag */
 282:Drivers/CMSIS/Include/core_cm7.h ****     uint32_t V:1;                        /*!< bit:     28  Overflow condition code flag */
 283:Drivers/CMSIS/Include/core_cm7.h ****     uint32_t C:1;                        /*!< bit:     29  Carry condition code flag */
 284:Drivers/CMSIS/Include/core_cm7.h ****     uint32_t Z:1;                        /*!< bit:     30  Zero condition code flag */
 285:Drivers/CMSIS/Include/core_cm7.h ****     uint32_t N:1;                        /*!< bit:     31  Negative condition code flag */
 286:Drivers/CMSIS/Include/core_cm7.h ****   } b;                                   /*!< Structure used for bit  access */
 287:Drivers/CMSIS/Include/core_cm7.h ****   uint32_t w;                            /*!< Type      used for word access */
 288:Drivers/CMSIS/Include/core_cm7.h **** } APSR_Type;
 289:Drivers/CMSIS/Include/core_cm7.h **** 
 290:Drivers/CMSIS/Include/core_cm7.h **** /* APSR Register Definitions */
 291:Drivers/CMSIS/Include/core_cm7.h **** #define APSR_N_Pos                         31U                                            /*!< APSR
 292:Drivers/CMSIS/Include/core_cm7.h **** #define APSR_N_Msk                         (1UL << APSR_N_Pos)                            /*!< APSR
 293:Drivers/CMSIS/Include/core_cm7.h **** 
 294:Drivers/CMSIS/Include/core_cm7.h **** #define APSR_Z_Pos                         30U                                            /*!< APSR
 295:Drivers/CMSIS/Include/core_cm7.h **** #define APSR_Z_Msk                         (1UL << APSR_Z_Pos)                            /*!< APSR
 296:Drivers/CMSIS/Include/core_cm7.h **** 
 297:Drivers/CMSIS/Include/core_cm7.h **** #define APSR_C_Pos                         29U                                            /*!< APSR
 298:Drivers/CMSIS/Include/core_cm7.h **** #define APSR_C_Msk                         (1UL << APSR_C_Pos)                            /*!< APSR
 299:Drivers/CMSIS/Include/core_cm7.h **** 
ARM GAS  C:\Users\Haruka\AppData\Local\Temp\ccgT5NLw.s 			page 42


 300:Drivers/CMSIS/Include/core_cm7.h **** #define APSR_V_Pos                         28U                                            /*!< APSR
 301:Drivers/CMSIS/Include/core_cm7.h **** #define APSR_V_Msk                         (1UL << APSR_V_Pos)                            /*!< APSR
 302:Drivers/CMSIS/Include/core_cm7.h **** 
 303:Drivers/CMSIS/Include/core_cm7.h **** #define APSR_Q_Pos                         27U                                            /*!< APSR
 304:Drivers/CMSIS/Include/core_cm7.h **** #define APSR_Q_Msk                         (1UL << APSR_Q_Pos)                            /*!< APSR
 305:Drivers/CMSIS/Include/core_cm7.h **** 
 306:Drivers/CMSIS/Include/core_cm7.h **** #define APSR_GE_Pos                        16U                                            /*!< APSR
 307:Drivers/CMSIS/Include/core_cm7.h **** #define APSR_GE_Msk                        (0xFUL << APSR_GE_Pos)                         /*!< APSR
 308:Drivers/CMSIS/Include/core_cm7.h **** 
 309:Drivers/CMSIS/Include/core_cm7.h **** 
 310:Drivers/CMSIS/Include/core_cm7.h **** /**
 311:Drivers/CMSIS/Include/core_cm7.h ****   \brief  Union type to access the Interrupt Program Status Register (IPSR).
 312:Drivers/CMSIS/Include/core_cm7.h ****  */
 313:Drivers/CMSIS/Include/core_cm7.h **** typedef union
 314:Drivers/CMSIS/Include/core_cm7.h **** {
 315:Drivers/CMSIS/Include/core_cm7.h ****   struct
 316:Drivers/CMSIS/Include/core_cm7.h ****   {
 317:Drivers/CMSIS/Include/core_cm7.h ****     uint32_t ISR:9;                      /*!< bit:  0.. 8  Exception number */
 318:Drivers/CMSIS/Include/core_cm7.h ****     uint32_t _reserved0:23;              /*!< bit:  9..31  Reserved */
 319:Drivers/CMSIS/Include/core_cm7.h ****   } b;                                   /*!< Structure used for bit  access */
 320:Drivers/CMSIS/Include/core_cm7.h ****   uint32_t w;                            /*!< Type      used for word access */
 321:Drivers/CMSIS/Include/core_cm7.h **** } IPSR_Type;
 322:Drivers/CMSIS/Include/core_cm7.h **** 
 323:Drivers/CMSIS/Include/core_cm7.h **** /* IPSR Register Definitions */
 324:Drivers/CMSIS/Include/core_cm7.h **** #define IPSR_ISR_Pos                        0U                                            /*!< IPSR
 325:Drivers/CMSIS/Include/core_cm7.h **** #define IPSR_ISR_Msk                       (0x1FFUL /*<< IPSR_ISR_Pos*/)                  /*!< IPSR
 326:Drivers/CMSIS/Include/core_cm7.h **** 
 327:Drivers/CMSIS/Include/core_cm7.h **** 
 328:Drivers/CMSIS/Include/core_cm7.h **** /**
 329:Drivers/CMSIS/Include/core_cm7.h ****   \brief  Union type to access the Special-Purpose Program Status Registers (xPSR).
 330:Drivers/CMSIS/Include/core_cm7.h ****  */
 331:Drivers/CMSIS/Include/core_cm7.h **** typedef union
 332:Drivers/CMSIS/Include/core_cm7.h **** {
 333:Drivers/CMSIS/Include/core_cm7.h ****   struct
 334:Drivers/CMSIS/Include/core_cm7.h ****   {
 335:Drivers/CMSIS/Include/core_cm7.h ****     uint32_t ISR:9;                      /*!< bit:  0.. 8  Exception number */
 336:Drivers/CMSIS/Include/core_cm7.h ****     uint32_t _reserved0:1;               /*!< bit:      9  Reserved */
 337:Drivers/CMSIS/Include/core_cm7.h ****     uint32_t ICI_IT_1:6;                 /*!< bit: 10..15  ICI/IT part 1 */
 338:Drivers/CMSIS/Include/core_cm7.h ****     uint32_t GE:4;                       /*!< bit: 16..19  Greater than or Equal flags */
 339:Drivers/CMSIS/Include/core_cm7.h ****     uint32_t _reserved1:4;               /*!< bit: 20..23  Reserved */
 340:Drivers/CMSIS/Include/core_cm7.h ****     uint32_t T:1;                        /*!< bit:     24  Thumb bit */
 341:Drivers/CMSIS/Include/core_cm7.h ****     uint32_t ICI_IT_2:2;                 /*!< bit: 25..26  ICI/IT part 2 */
 342:Drivers/CMSIS/Include/core_cm7.h ****     uint32_t Q:1;                        /*!< bit:     27  Saturation condition flag */
 343:Drivers/CMSIS/Include/core_cm7.h ****     uint32_t V:1;                        /*!< bit:     28  Overflow condition code flag */
 344:Drivers/CMSIS/Include/core_cm7.h ****     uint32_t C:1;                        /*!< bit:     29  Carry condition code flag */
 345:Drivers/CMSIS/Include/core_cm7.h ****     uint32_t Z:1;                        /*!< bit:     30  Zero condition code flag */
 346:Drivers/CMSIS/Include/core_cm7.h ****     uint32_t N:1;                        /*!< bit:     31  Negative condition code flag */
 347:Drivers/CMSIS/Include/core_cm7.h ****   } b;                                   /*!< Structure used for bit  access */
 348:Drivers/CMSIS/Include/core_cm7.h ****   uint32_t w;                            /*!< Type      used for word access */
 349:Drivers/CMSIS/Include/core_cm7.h **** } xPSR_Type;
 350:Drivers/CMSIS/Include/core_cm7.h **** 
 351:Drivers/CMSIS/Include/core_cm7.h **** /* xPSR Register Definitions */
 352:Drivers/CMSIS/Include/core_cm7.h **** #define xPSR_N_Pos                         31U                                            /*!< xPSR
 353:Drivers/CMSIS/Include/core_cm7.h **** #define xPSR_N_Msk                         (1UL << xPSR_N_Pos)                            /*!< xPSR
 354:Drivers/CMSIS/Include/core_cm7.h **** 
 355:Drivers/CMSIS/Include/core_cm7.h **** #define xPSR_Z_Pos                         30U                                            /*!< xPSR
 356:Drivers/CMSIS/Include/core_cm7.h **** #define xPSR_Z_Msk                         (1UL << xPSR_Z_Pos)                            /*!< xPSR
ARM GAS  C:\Users\Haruka\AppData\Local\Temp\ccgT5NLw.s 			page 43


 357:Drivers/CMSIS/Include/core_cm7.h **** 
 358:Drivers/CMSIS/Include/core_cm7.h **** #define xPSR_C_Pos                         29U                                            /*!< xPSR
 359:Drivers/CMSIS/Include/core_cm7.h **** #define xPSR_C_Msk                         (1UL << xPSR_C_Pos)                            /*!< xPSR
 360:Drivers/CMSIS/Include/core_cm7.h **** 
 361:Drivers/CMSIS/Include/core_cm7.h **** #define xPSR_V_Pos                         28U                                            /*!< xPSR
 362:Drivers/CMSIS/Include/core_cm7.h **** #define xPSR_V_Msk                         (1UL << xPSR_V_Pos)                            /*!< xPSR
 363:Drivers/CMSIS/Include/core_cm7.h **** 
 364:Drivers/CMSIS/Include/core_cm7.h **** #define xPSR_Q_Pos                         27U                                            /*!< xPSR
 365:Drivers/CMSIS/Include/core_cm7.h **** #define xPSR_Q_Msk                         (1UL << xPSR_Q_Pos)                            /*!< xPSR
 366:Drivers/CMSIS/Include/core_cm7.h **** 
 367:Drivers/CMSIS/Include/core_cm7.h **** #define xPSR_ICI_IT_2_Pos                  25U                                            /*!< xPSR
 368:Drivers/CMSIS/Include/core_cm7.h **** #define xPSR_ICI_IT_2_Msk                  (3UL << xPSR_ICI_IT_2_Pos)                     /*!< xPSR
 369:Drivers/CMSIS/Include/core_cm7.h **** 
 370:Drivers/CMSIS/Include/core_cm7.h **** #define xPSR_T_Pos                         24U                                            /*!< xPSR
 371:Drivers/CMSIS/Include/core_cm7.h **** #define xPSR_T_Msk                         (1UL << xPSR_T_Pos)                            /*!< xPSR
 372:Drivers/CMSIS/Include/core_cm7.h **** 
 373:Drivers/CMSIS/Include/core_cm7.h **** #define xPSR_GE_Pos                        16U                                            /*!< xPSR
 374:Drivers/CMSIS/Include/core_cm7.h **** #define xPSR_GE_Msk                        (0xFUL << xPSR_GE_Pos)                         /*!< xPSR
 375:Drivers/CMSIS/Include/core_cm7.h **** 
 376:Drivers/CMSIS/Include/core_cm7.h **** #define xPSR_ICI_IT_1_Pos                  10U                                            /*!< xPSR
 377:Drivers/CMSIS/Include/core_cm7.h **** #define xPSR_ICI_IT_1_Msk                  (0x3FUL << xPSR_ICI_IT_1_Pos)                  /*!< xPSR
 378:Drivers/CMSIS/Include/core_cm7.h **** 
 379:Drivers/CMSIS/Include/core_cm7.h **** #define xPSR_ISR_Pos                        0U                                            /*!< xPSR
 380:Drivers/CMSIS/Include/core_cm7.h **** #define xPSR_ISR_Msk                       (0x1FFUL /*<< xPSR_ISR_Pos*/)                  /*!< xPSR
 381:Drivers/CMSIS/Include/core_cm7.h **** 
 382:Drivers/CMSIS/Include/core_cm7.h **** 
 383:Drivers/CMSIS/Include/core_cm7.h **** /**
 384:Drivers/CMSIS/Include/core_cm7.h ****   \brief  Union type to access the Control Registers (CONTROL).
 385:Drivers/CMSIS/Include/core_cm7.h ****  */
 386:Drivers/CMSIS/Include/core_cm7.h **** typedef union
 387:Drivers/CMSIS/Include/core_cm7.h **** {
 388:Drivers/CMSIS/Include/core_cm7.h ****   struct
 389:Drivers/CMSIS/Include/core_cm7.h ****   {
 390:Drivers/CMSIS/Include/core_cm7.h ****     uint32_t nPRIV:1;                    /*!< bit:      0  Execution privilege in Thread mode */
 391:Drivers/CMSIS/Include/core_cm7.h ****     uint32_t SPSEL:1;                    /*!< bit:      1  Stack to be used */
 392:Drivers/CMSIS/Include/core_cm7.h ****     uint32_t FPCA:1;                     /*!< bit:      2  FP extension active flag */
 393:Drivers/CMSIS/Include/core_cm7.h ****     uint32_t _reserved0:29;              /*!< bit:  3..31  Reserved */
 394:Drivers/CMSIS/Include/core_cm7.h ****   } b;                                   /*!< Structure used for bit  access */
 395:Drivers/CMSIS/Include/core_cm7.h ****   uint32_t w;                            /*!< Type      used for word access */
 396:Drivers/CMSIS/Include/core_cm7.h **** } CONTROL_Type;
 397:Drivers/CMSIS/Include/core_cm7.h **** 
 398:Drivers/CMSIS/Include/core_cm7.h **** /* CONTROL Register Definitions */
 399:Drivers/CMSIS/Include/core_cm7.h **** #define CONTROL_FPCA_Pos                    2U                                            /*!< CONT
 400:Drivers/CMSIS/Include/core_cm7.h **** #define CONTROL_FPCA_Msk                   (1UL << CONTROL_FPCA_Pos)                      /*!< CONT
 401:Drivers/CMSIS/Include/core_cm7.h **** 
 402:Drivers/CMSIS/Include/core_cm7.h **** #define CONTROL_SPSEL_Pos                   1U                                            /*!< CONT
 403:Drivers/CMSIS/Include/core_cm7.h **** #define CONTROL_SPSEL_Msk                  (1UL << CONTROL_SPSEL_Pos)                     /*!< CONT
 404:Drivers/CMSIS/Include/core_cm7.h **** 
 405:Drivers/CMSIS/Include/core_cm7.h **** #define CONTROL_nPRIV_Pos                   0U                                            /*!< CONT
 406:Drivers/CMSIS/Include/core_cm7.h **** #define CONTROL_nPRIV_Msk                  (1UL /*<< CONTROL_nPRIV_Pos*/)                 /*!< CONT
 407:Drivers/CMSIS/Include/core_cm7.h **** 
 408:Drivers/CMSIS/Include/core_cm7.h **** /*@} end of group CMSIS_CORE */
 409:Drivers/CMSIS/Include/core_cm7.h **** 
 410:Drivers/CMSIS/Include/core_cm7.h **** 
 411:Drivers/CMSIS/Include/core_cm7.h **** /**
 412:Drivers/CMSIS/Include/core_cm7.h ****   \ingroup    CMSIS_core_register
 413:Drivers/CMSIS/Include/core_cm7.h ****   \defgroup   CMSIS_NVIC  Nested Vectored Interrupt Controller (NVIC)
ARM GAS  C:\Users\Haruka\AppData\Local\Temp\ccgT5NLw.s 			page 44


 414:Drivers/CMSIS/Include/core_cm7.h ****   \brief      Type definitions for the NVIC Registers
 415:Drivers/CMSIS/Include/core_cm7.h ****   @{
 416:Drivers/CMSIS/Include/core_cm7.h ****  */
 417:Drivers/CMSIS/Include/core_cm7.h **** 
 418:Drivers/CMSIS/Include/core_cm7.h **** /**
 419:Drivers/CMSIS/Include/core_cm7.h ****   \brief  Structure type to access the Nested Vectored Interrupt Controller (NVIC).
 420:Drivers/CMSIS/Include/core_cm7.h ****  */
 421:Drivers/CMSIS/Include/core_cm7.h **** typedef struct
 422:Drivers/CMSIS/Include/core_cm7.h **** {
 423:Drivers/CMSIS/Include/core_cm7.h ****   __IOM uint32_t ISER[8U];               /*!< Offset: 0x000 (R/W)  Interrupt Set Enable Register */
 424:Drivers/CMSIS/Include/core_cm7.h ****         uint32_t RESERVED0[24U];
 425:Drivers/CMSIS/Include/core_cm7.h ****   __IOM uint32_t ICER[8U];               /*!< Offset: 0x080 (R/W)  Interrupt Clear Enable Register 
 426:Drivers/CMSIS/Include/core_cm7.h ****         uint32_t RSERVED1[24U];
 427:Drivers/CMSIS/Include/core_cm7.h ****   __IOM uint32_t ISPR[8U];               /*!< Offset: 0x100 (R/W)  Interrupt Set Pending Register *
 428:Drivers/CMSIS/Include/core_cm7.h ****         uint32_t RESERVED2[24U];
 429:Drivers/CMSIS/Include/core_cm7.h ****   __IOM uint32_t ICPR[8U];               /*!< Offset: 0x180 (R/W)  Interrupt Clear Pending Register
 430:Drivers/CMSIS/Include/core_cm7.h ****         uint32_t RESERVED3[24U];
 431:Drivers/CMSIS/Include/core_cm7.h ****   __IOM uint32_t IABR[8U];               /*!< Offset: 0x200 (R/W)  Interrupt Active bit Register */
 432:Drivers/CMSIS/Include/core_cm7.h ****         uint32_t RESERVED4[56U];
 433:Drivers/CMSIS/Include/core_cm7.h ****   __IOM uint8_t  IP[240U];               /*!< Offset: 0x300 (R/W)  Interrupt Priority Register (8Bi
 434:Drivers/CMSIS/Include/core_cm7.h ****         uint32_t RESERVED5[644U];
 435:Drivers/CMSIS/Include/core_cm7.h ****   __OM  uint32_t STIR;                   /*!< Offset: 0xE00 ( /W)  Software Trigger Interrupt Regis
 436:Drivers/CMSIS/Include/core_cm7.h **** }  NVIC_Type;
 437:Drivers/CMSIS/Include/core_cm7.h **** 
 438:Drivers/CMSIS/Include/core_cm7.h **** /* Software Triggered Interrupt Register Definitions */
 439:Drivers/CMSIS/Include/core_cm7.h **** #define NVIC_STIR_INTID_Pos                 0U                                         /*!< STIR: I
 440:Drivers/CMSIS/Include/core_cm7.h **** #define NVIC_STIR_INTID_Msk                (0x1FFUL /*<< NVIC_STIR_INTID_Pos*/)        /*!< STIR: I
 441:Drivers/CMSIS/Include/core_cm7.h **** 
 442:Drivers/CMSIS/Include/core_cm7.h **** /*@} end of group CMSIS_NVIC */
 443:Drivers/CMSIS/Include/core_cm7.h **** 
 444:Drivers/CMSIS/Include/core_cm7.h **** 
 445:Drivers/CMSIS/Include/core_cm7.h **** /**
 446:Drivers/CMSIS/Include/core_cm7.h ****   \ingroup  CMSIS_core_register
 447:Drivers/CMSIS/Include/core_cm7.h ****   \defgroup CMSIS_SCB     System Control Block (SCB)
 448:Drivers/CMSIS/Include/core_cm7.h ****   \brief    Type definitions for the System Control Block Registers
 449:Drivers/CMSIS/Include/core_cm7.h ****   @{
 450:Drivers/CMSIS/Include/core_cm7.h ****  */
 451:Drivers/CMSIS/Include/core_cm7.h **** 
 452:Drivers/CMSIS/Include/core_cm7.h **** /**
 453:Drivers/CMSIS/Include/core_cm7.h ****   \brief  Structure type to access the System Control Block (SCB).
 454:Drivers/CMSIS/Include/core_cm7.h ****  */
 455:Drivers/CMSIS/Include/core_cm7.h **** typedef struct
 456:Drivers/CMSIS/Include/core_cm7.h **** {
 457:Drivers/CMSIS/Include/core_cm7.h ****   __IM  uint32_t CPUID;                  /*!< Offset: 0x000 (R/ )  CPUID Base Register */
 458:Drivers/CMSIS/Include/core_cm7.h ****   __IOM uint32_t ICSR;                   /*!< Offset: 0x004 (R/W)  Interrupt Control and State Regi
 459:Drivers/CMSIS/Include/core_cm7.h ****   __IOM uint32_t VTOR;                   /*!< Offset: 0x008 (R/W)  Vector Table Offset Register */
 460:Drivers/CMSIS/Include/core_cm7.h ****   __IOM uint32_t AIRCR;                  /*!< Offset: 0x00C (R/W)  Application Interrupt and Reset 
 461:Drivers/CMSIS/Include/core_cm7.h ****   __IOM uint32_t SCR;                    /*!< Offset: 0x010 (R/W)  System Control Register */
 462:Drivers/CMSIS/Include/core_cm7.h ****   __IOM uint32_t CCR;                    /*!< Offset: 0x014 (R/W)  Configuration Control Register *
 463:Drivers/CMSIS/Include/core_cm7.h ****   __IOM uint8_t  SHPR[12U];              /*!< Offset: 0x018 (R/W)  System Handlers Priority Registe
 464:Drivers/CMSIS/Include/core_cm7.h ****   __IOM uint32_t SHCSR;                  /*!< Offset: 0x024 (R/W)  System Handler Control and State
 465:Drivers/CMSIS/Include/core_cm7.h ****   __IOM uint32_t CFSR;                   /*!< Offset: 0x028 (R/W)  Configurable Fault Status Regist
 466:Drivers/CMSIS/Include/core_cm7.h ****   __IOM uint32_t HFSR;                   /*!< Offset: 0x02C (R/W)  HardFault Status Register */
 467:Drivers/CMSIS/Include/core_cm7.h ****   __IOM uint32_t DFSR;                   /*!< Offset: 0x030 (R/W)  Debug Fault Status Register */
 468:Drivers/CMSIS/Include/core_cm7.h ****   __IOM uint32_t MMFAR;                  /*!< Offset: 0x034 (R/W)  MemManage Fault Address Register
 469:Drivers/CMSIS/Include/core_cm7.h ****   __IOM uint32_t BFAR;                   /*!< Offset: 0x038 (R/W)  BusFault Address Register */
 470:Drivers/CMSIS/Include/core_cm7.h ****   __IOM uint32_t AFSR;                   /*!< Offset: 0x03C (R/W)  Auxiliary Fault Status Register 
ARM GAS  C:\Users\Haruka\AppData\Local\Temp\ccgT5NLw.s 			page 45


 471:Drivers/CMSIS/Include/core_cm7.h ****   __IM  uint32_t ID_PFR[2U];             /*!< Offset: 0x040 (R/ )  Processor Feature Register */
 472:Drivers/CMSIS/Include/core_cm7.h ****   __IM  uint32_t ID_DFR;                 /*!< Offset: 0x048 (R/ )  Debug Feature Register */
 473:Drivers/CMSIS/Include/core_cm7.h ****   __IM  uint32_t ID_AFR;                 /*!< Offset: 0x04C (R/ )  Auxiliary Feature Register */
 474:Drivers/CMSIS/Include/core_cm7.h ****   __IM  uint32_t ID_MFR[4U];             /*!< Offset: 0x050 (R/ )  Memory Model Feature Register */
 475:Drivers/CMSIS/Include/core_cm7.h ****   __IM  uint32_t ID_ISAR[5U];            /*!< Offset: 0x060 (R/ )  Instruction Set Attributes Regis
 476:Drivers/CMSIS/Include/core_cm7.h ****         uint32_t RESERVED0[1U];
 477:Drivers/CMSIS/Include/core_cm7.h ****   __IM  uint32_t CLIDR;                  /*!< Offset: 0x078 (R/ )  Cache Level ID register */
 478:Drivers/CMSIS/Include/core_cm7.h ****   __IM  uint32_t CTR;                    /*!< Offset: 0x07C (R/ )  Cache Type register */
 479:Drivers/CMSIS/Include/core_cm7.h ****   __IM  uint32_t CCSIDR;                 /*!< Offset: 0x080 (R/ )  Cache Size ID Register */
 480:Drivers/CMSIS/Include/core_cm7.h ****   __IOM uint32_t CSSELR;                 /*!< Offset: 0x084 (R/W)  Cache Size Selection Register */
 481:Drivers/CMSIS/Include/core_cm7.h ****   __IOM uint32_t CPACR;                  /*!< Offset: 0x088 (R/W)  Coprocessor Access Control Regis
 482:Drivers/CMSIS/Include/core_cm7.h ****         uint32_t RESERVED3[93U];
 483:Drivers/CMSIS/Include/core_cm7.h ****   __OM  uint32_t STIR;                   /*!< Offset: 0x200 ( /W)  Software Triggered Interrupt Reg
 484:Drivers/CMSIS/Include/core_cm7.h ****         uint32_t RESERVED4[15U];
 485:Drivers/CMSIS/Include/core_cm7.h ****   __IM  uint32_t MVFR0;                  /*!< Offset: 0x240 (R/ )  Media and VFP Feature Register 0
 486:Drivers/CMSIS/Include/core_cm7.h ****   __IM  uint32_t MVFR1;                  /*!< Offset: 0x244 (R/ )  Media and VFP Feature Register 1
 487:Drivers/CMSIS/Include/core_cm7.h ****   __IM  uint32_t MVFR2;                  /*!< Offset: 0x248 (R/ )  Media and VFP Feature Register 2
 488:Drivers/CMSIS/Include/core_cm7.h ****         uint32_t RESERVED5[1U];
 489:Drivers/CMSIS/Include/core_cm7.h ****   __OM  uint32_t ICIALLU;                /*!< Offset: 0x250 ( /W)  I-Cache Invalidate All to PoU */
 490:Drivers/CMSIS/Include/core_cm7.h ****         uint32_t RESERVED6[1U];
 491:Drivers/CMSIS/Include/core_cm7.h ****   __OM  uint32_t ICIMVAU;                /*!< Offset: 0x258 ( /W)  I-Cache Invalidate by MVA to PoU
 492:Drivers/CMSIS/Include/core_cm7.h ****   __OM  uint32_t DCIMVAC;                /*!< Offset: 0x25C ( /W)  D-Cache Invalidate by MVA to PoC
 493:Drivers/CMSIS/Include/core_cm7.h ****   __OM  uint32_t DCISW;                  /*!< Offset: 0x260 ( /W)  D-Cache Invalidate by Set-way */
 494:Drivers/CMSIS/Include/core_cm7.h ****   __OM  uint32_t DCCMVAU;                /*!< Offset: 0x264 ( /W)  D-Cache Clean by MVA to PoU */
 495:Drivers/CMSIS/Include/core_cm7.h ****   __OM  uint32_t DCCMVAC;                /*!< Offset: 0x268 ( /W)  D-Cache Clean by MVA to PoC */
 496:Drivers/CMSIS/Include/core_cm7.h ****   __OM  uint32_t DCCSW;                  /*!< Offset: 0x26C ( /W)  D-Cache Clean by Set-way */
 497:Drivers/CMSIS/Include/core_cm7.h ****   __OM  uint32_t DCCIMVAC;               /*!< Offset: 0x270 ( /W)  D-Cache Clean and Invalidate by 
 498:Drivers/CMSIS/Include/core_cm7.h ****   __OM  uint32_t DCCISW;                 /*!< Offset: 0x274 ( /W)  D-Cache Clean and Invalidate by 
 499:Drivers/CMSIS/Include/core_cm7.h ****         uint32_t RESERVED7[6U];
 500:Drivers/CMSIS/Include/core_cm7.h ****   __IOM uint32_t ITCMCR;                 /*!< Offset: 0x290 (R/W)  Instruction Tightly-Coupled Memo
 501:Drivers/CMSIS/Include/core_cm7.h ****   __IOM uint32_t DTCMCR;                 /*!< Offset: 0x294 (R/W)  Data Tightly-Coupled Memory Cont
 502:Drivers/CMSIS/Include/core_cm7.h ****   __IOM uint32_t AHBPCR;                 /*!< Offset: 0x298 (R/W)  AHBP Control Register */
 503:Drivers/CMSIS/Include/core_cm7.h ****   __IOM uint32_t CACR;                   /*!< Offset: 0x29C (R/W)  L1 Cache Control Register */
 504:Drivers/CMSIS/Include/core_cm7.h ****   __IOM uint32_t AHBSCR;                 /*!< Offset: 0x2A0 (R/W)  AHB Slave Control Register */
 505:Drivers/CMSIS/Include/core_cm7.h ****         uint32_t RESERVED8[1U];
 506:Drivers/CMSIS/Include/core_cm7.h ****   __IOM uint32_t ABFSR;                  /*!< Offset: 0x2A8 (R/W)  Auxiliary Bus Fault Status Regis
 507:Drivers/CMSIS/Include/core_cm7.h **** } SCB_Type;
 508:Drivers/CMSIS/Include/core_cm7.h **** 
 509:Drivers/CMSIS/Include/core_cm7.h **** /* SCB CPUID Register Definitions */
 510:Drivers/CMSIS/Include/core_cm7.h **** #define SCB_CPUID_IMPLEMENTER_Pos          24U                                            /*!< SCB 
 511:Drivers/CMSIS/Include/core_cm7.h **** #define SCB_CPUID_IMPLEMENTER_Msk          (0xFFUL << SCB_CPUID_IMPLEMENTER_Pos)          /*!< SCB 
 512:Drivers/CMSIS/Include/core_cm7.h **** 
 513:Drivers/CMSIS/Include/core_cm7.h **** #define SCB_CPUID_VARIANT_Pos              20U                                            /*!< SCB 
 514:Drivers/CMSIS/Include/core_cm7.h **** #define SCB_CPUID_VARIANT_Msk              (0xFUL << SCB_CPUID_VARIANT_Pos)               /*!< SCB 
 515:Drivers/CMSIS/Include/core_cm7.h **** 
 516:Drivers/CMSIS/Include/core_cm7.h **** #define SCB_CPUID_ARCHITECTURE_Pos         16U                                            /*!< SCB 
 517:Drivers/CMSIS/Include/core_cm7.h **** #define SCB_CPUID_ARCHITECTURE_Msk         (0xFUL << SCB_CPUID_ARCHITECTURE_Pos)          /*!< SCB 
 518:Drivers/CMSIS/Include/core_cm7.h **** 
 519:Drivers/CMSIS/Include/core_cm7.h **** #define SCB_CPUID_PARTNO_Pos                4U                                            /*!< SCB 
 520:Drivers/CMSIS/Include/core_cm7.h **** #define SCB_CPUID_PARTNO_Msk               (0xFFFUL << SCB_CPUID_PARTNO_Pos)              /*!< SCB 
 521:Drivers/CMSIS/Include/core_cm7.h **** 
 522:Drivers/CMSIS/Include/core_cm7.h **** #define SCB_CPUID_REVISION_Pos              0U                                            /*!< SCB 
 523:Drivers/CMSIS/Include/core_cm7.h **** #define SCB_CPUID_REVISION_Msk             (0xFUL /*<< SCB_CPUID_REVISION_Pos*/)          /*!< SCB 
 524:Drivers/CMSIS/Include/core_cm7.h **** 
 525:Drivers/CMSIS/Include/core_cm7.h **** /* SCB Interrupt Control State Register Definitions */
 526:Drivers/CMSIS/Include/core_cm7.h **** #define SCB_ICSR_NMIPENDSET_Pos            31U                                            /*!< SCB 
 527:Drivers/CMSIS/Include/core_cm7.h **** #define SCB_ICSR_NMIPENDSET_Msk            (1UL << SCB_ICSR_NMIPENDSET_Pos)               /*!< SCB 
ARM GAS  C:\Users\Haruka\AppData\Local\Temp\ccgT5NLw.s 			page 46


 528:Drivers/CMSIS/Include/core_cm7.h **** 
 529:Drivers/CMSIS/Include/core_cm7.h **** #define SCB_ICSR_PENDSVSET_Pos             28U                                            /*!< SCB 
 530:Drivers/CMSIS/Include/core_cm7.h **** #define SCB_ICSR_PENDSVSET_Msk             (1UL << SCB_ICSR_PENDSVSET_Pos)                /*!< SCB 
 531:Drivers/CMSIS/Include/core_cm7.h **** 
 532:Drivers/CMSIS/Include/core_cm7.h **** #define SCB_ICSR_PENDSVCLR_Pos             27U                                            /*!< SCB 
 533:Drivers/CMSIS/Include/core_cm7.h **** #define SCB_ICSR_PENDSVCLR_Msk             (1UL << SCB_ICSR_PENDSVCLR_Pos)                /*!< SCB 
 534:Drivers/CMSIS/Include/core_cm7.h **** 
 535:Drivers/CMSIS/Include/core_cm7.h **** #define SCB_ICSR_PENDSTSET_Pos             26U                                            /*!< SCB 
 536:Drivers/CMSIS/Include/core_cm7.h **** #define SCB_ICSR_PENDSTSET_Msk             (1UL << SCB_ICSR_PENDSTSET_Pos)                /*!< SCB 
 537:Drivers/CMSIS/Include/core_cm7.h **** 
 538:Drivers/CMSIS/Include/core_cm7.h **** #define SCB_ICSR_PENDSTCLR_Pos             25U                                            /*!< SCB 
 539:Drivers/CMSIS/Include/core_cm7.h **** #define SCB_ICSR_PENDSTCLR_Msk             (1UL << SCB_ICSR_PENDSTCLR_Pos)                /*!< SCB 
 540:Drivers/CMSIS/Include/core_cm7.h **** 
 541:Drivers/CMSIS/Include/core_cm7.h **** #define SCB_ICSR_ISRPREEMPT_Pos            23U                                            /*!< SCB 
 542:Drivers/CMSIS/Include/core_cm7.h **** #define SCB_ICSR_ISRPREEMPT_Msk            (1UL << SCB_ICSR_ISRPREEMPT_Pos)               /*!< SCB 
 543:Drivers/CMSIS/Include/core_cm7.h **** 
 544:Drivers/CMSIS/Include/core_cm7.h **** #define SCB_ICSR_ISRPENDING_Pos            22U                                            /*!< SCB 
 545:Drivers/CMSIS/Include/core_cm7.h **** #define SCB_ICSR_ISRPENDING_Msk            (1UL << SCB_ICSR_ISRPENDING_Pos)               /*!< SCB 
 546:Drivers/CMSIS/Include/core_cm7.h **** 
 547:Drivers/CMSIS/Include/core_cm7.h **** #define SCB_ICSR_VECTPENDING_Pos           12U                                            /*!< SCB 
 548:Drivers/CMSIS/Include/core_cm7.h **** #define SCB_ICSR_VECTPENDING_Msk           (0x1FFUL << SCB_ICSR_VECTPENDING_Pos)          /*!< SCB 
 549:Drivers/CMSIS/Include/core_cm7.h **** 
 550:Drivers/CMSIS/Include/core_cm7.h **** #define SCB_ICSR_RETTOBASE_Pos             11U                                            /*!< SCB 
 551:Drivers/CMSIS/Include/core_cm7.h **** #define SCB_ICSR_RETTOBASE_Msk             (1UL << SCB_ICSR_RETTOBASE_Pos)                /*!< SCB 
 552:Drivers/CMSIS/Include/core_cm7.h **** 
 553:Drivers/CMSIS/Include/core_cm7.h **** #define SCB_ICSR_VECTACTIVE_Pos             0U                                            /*!< SCB 
 554:Drivers/CMSIS/Include/core_cm7.h **** #define SCB_ICSR_VECTACTIVE_Msk            (0x1FFUL /*<< SCB_ICSR_VECTACTIVE_Pos*/)       /*!< SCB 
 555:Drivers/CMSIS/Include/core_cm7.h **** 
 556:Drivers/CMSIS/Include/core_cm7.h **** /* SCB Vector Table Offset Register Definitions */
 557:Drivers/CMSIS/Include/core_cm7.h **** #define SCB_VTOR_TBLOFF_Pos                 7U                                            /*!< SCB 
 558:Drivers/CMSIS/Include/core_cm7.h **** #define SCB_VTOR_TBLOFF_Msk                (0x1FFFFFFUL << SCB_VTOR_TBLOFF_Pos)           /*!< SCB 
 559:Drivers/CMSIS/Include/core_cm7.h **** 
 560:Drivers/CMSIS/Include/core_cm7.h **** /* SCB Application Interrupt and Reset Control Register Definitions */
 561:Drivers/CMSIS/Include/core_cm7.h **** #define SCB_AIRCR_VECTKEY_Pos              16U                                            /*!< SCB 
 562:Drivers/CMSIS/Include/core_cm7.h **** #define SCB_AIRCR_VECTKEY_Msk              (0xFFFFUL << SCB_AIRCR_VECTKEY_Pos)            /*!< SCB 
 563:Drivers/CMSIS/Include/core_cm7.h **** 
 564:Drivers/CMSIS/Include/core_cm7.h **** #define SCB_AIRCR_VECTKEYSTAT_Pos          16U                                            /*!< SCB 
 565:Drivers/CMSIS/Include/core_cm7.h **** #define SCB_AIRCR_VECTKEYSTAT_Msk          (0xFFFFUL << SCB_AIRCR_VECTKEYSTAT_Pos)        /*!< SCB 
 566:Drivers/CMSIS/Include/core_cm7.h **** 
 567:Drivers/CMSIS/Include/core_cm7.h **** #define SCB_AIRCR_ENDIANESS_Pos            15U                                            /*!< SCB 
 568:Drivers/CMSIS/Include/core_cm7.h **** #define SCB_AIRCR_ENDIANESS_Msk            (1UL << SCB_AIRCR_ENDIANESS_Pos)               /*!< SCB 
 569:Drivers/CMSIS/Include/core_cm7.h **** 
 570:Drivers/CMSIS/Include/core_cm7.h **** #define SCB_AIRCR_PRIGROUP_Pos              8U                                            /*!< SCB 
 571:Drivers/CMSIS/Include/core_cm7.h **** #define SCB_AIRCR_PRIGROUP_Msk             (7UL << SCB_AIRCR_PRIGROUP_Pos)                /*!< SCB 
 572:Drivers/CMSIS/Include/core_cm7.h **** 
 573:Drivers/CMSIS/Include/core_cm7.h **** #define SCB_AIRCR_SYSRESETREQ_Pos           2U                                            /*!< SCB 
 574:Drivers/CMSIS/Include/core_cm7.h **** #define SCB_AIRCR_SYSRESETREQ_Msk          (1UL << SCB_AIRCR_SYSRESETREQ_Pos)             /*!< SCB 
 575:Drivers/CMSIS/Include/core_cm7.h **** 
 576:Drivers/CMSIS/Include/core_cm7.h **** #define SCB_AIRCR_VECTCLRACTIVE_Pos         1U                                            /*!< SCB 
 577:Drivers/CMSIS/Include/core_cm7.h **** #define SCB_AIRCR_VECTCLRACTIVE_Msk        (1UL << SCB_AIRCR_VECTCLRACTIVE_Pos)           /*!< SCB 
 578:Drivers/CMSIS/Include/core_cm7.h **** 
 579:Drivers/CMSIS/Include/core_cm7.h **** #define SCB_AIRCR_VECTRESET_Pos             0U                                            /*!< SCB 
 580:Drivers/CMSIS/Include/core_cm7.h **** #define SCB_AIRCR_VECTRESET_Msk            (1UL /*<< SCB_AIRCR_VECTRESET_Pos*/)           /*!< SCB 
 581:Drivers/CMSIS/Include/core_cm7.h **** 
 582:Drivers/CMSIS/Include/core_cm7.h **** /* SCB System Control Register Definitions */
 583:Drivers/CMSIS/Include/core_cm7.h **** #define SCB_SCR_SEVONPEND_Pos               4U                                            /*!< SCB 
 584:Drivers/CMSIS/Include/core_cm7.h **** #define SCB_SCR_SEVONPEND_Msk              (1UL << SCB_SCR_SEVONPEND_Pos)                 /*!< SCB 
ARM GAS  C:\Users\Haruka\AppData\Local\Temp\ccgT5NLw.s 			page 47


 585:Drivers/CMSIS/Include/core_cm7.h **** 
 586:Drivers/CMSIS/Include/core_cm7.h **** #define SCB_SCR_SLEEPDEEP_Pos               2U                                            /*!< SCB 
 587:Drivers/CMSIS/Include/core_cm7.h **** #define SCB_SCR_SLEEPDEEP_Msk              (1UL << SCB_SCR_SLEEPDEEP_Pos)                 /*!< SCB 
 588:Drivers/CMSIS/Include/core_cm7.h **** 
 589:Drivers/CMSIS/Include/core_cm7.h **** #define SCB_SCR_SLEEPONEXIT_Pos             1U                                            /*!< SCB 
 590:Drivers/CMSIS/Include/core_cm7.h **** #define SCB_SCR_SLEEPONEXIT_Msk            (1UL << SCB_SCR_SLEEPONEXIT_Pos)               /*!< SCB 
 591:Drivers/CMSIS/Include/core_cm7.h **** 
 592:Drivers/CMSIS/Include/core_cm7.h **** /* SCB Configuration Control Register Definitions */
 593:Drivers/CMSIS/Include/core_cm7.h **** #define SCB_CCR_BP_Pos                      18U                                           /*!< SCB 
 594:Drivers/CMSIS/Include/core_cm7.h **** #define SCB_CCR_BP_Msk                     (1UL << SCB_CCR_BP_Pos)                        /*!< SCB 
 595:Drivers/CMSIS/Include/core_cm7.h **** 
 596:Drivers/CMSIS/Include/core_cm7.h **** #define SCB_CCR_IC_Pos                      17U                                           /*!< SCB 
 597:Drivers/CMSIS/Include/core_cm7.h **** #define SCB_CCR_IC_Msk                     (1UL << SCB_CCR_IC_Pos)                        /*!< SCB 
 598:Drivers/CMSIS/Include/core_cm7.h **** 
 599:Drivers/CMSIS/Include/core_cm7.h **** #define SCB_CCR_DC_Pos                      16U                                           /*!< SCB 
 600:Drivers/CMSIS/Include/core_cm7.h **** #define SCB_CCR_DC_Msk                     (1UL << SCB_CCR_DC_Pos)                        /*!< SCB 
 601:Drivers/CMSIS/Include/core_cm7.h **** 
 602:Drivers/CMSIS/Include/core_cm7.h **** #define SCB_CCR_STKALIGN_Pos                9U                                            /*!< SCB 
 603:Drivers/CMSIS/Include/core_cm7.h **** #define SCB_CCR_STKALIGN_Msk               (1UL << SCB_CCR_STKALIGN_Pos)                  /*!< SCB 
 604:Drivers/CMSIS/Include/core_cm7.h **** 
 605:Drivers/CMSIS/Include/core_cm7.h **** #define SCB_CCR_BFHFNMIGN_Pos               8U                                            /*!< SCB 
 606:Drivers/CMSIS/Include/core_cm7.h **** #define SCB_CCR_BFHFNMIGN_Msk              (1UL << SCB_CCR_BFHFNMIGN_Pos)                 /*!< SCB 
 607:Drivers/CMSIS/Include/core_cm7.h **** 
 608:Drivers/CMSIS/Include/core_cm7.h **** #define SCB_CCR_DIV_0_TRP_Pos               4U                                            /*!< SCB 
 609:Drivers/CMSIS/Include/core_cm7.h **** #define SCB_CCR_DIV_0_TRP_Msk              (1UL << SCB_CCR_DIV_0_TRP_Pos)                 /*!< SCB 
 610:Drivers/CMSIS/Include/core_cm7.h **** 
 611:Drivers/CMSIS/Include/core_cm7.h **** #define SCB_CCR_UNALIGN_TRP_Pos             3U                                            /*!< SCB 
 612:Drivers/CMSIS/Include/core_cm7.h **** #define SCB_CCR_UNALIGN_TRP_Msk            (1UL << SCB_CCR_UNALIGN_TRP_Pos)               /*!< SCB 
 613:Drivers/CMSIS/Include/core_cm7.h **** 
 614:Drivers/CMSIS/Include/core_cm7.h **** #define SCB_CCR_USERSETMPEND_Pos            1U                                            /*!< SCB 
 615:Drivers/CMSIS/Include/core_cm7.h **** #define SCB_CCR_USERSETMPEND_Msk           (1UL << SCB_CCR_USERSETMPEND_Pos)              /*!< SCB 
 616:Drivers/CMSIS/Include/core_cm7.h **** 
 617:Drivers/CMSIS/Include/core_cm7.h **** #define SCB_CCR_NONBASETHRDENA_Pos          0U                                            /*!< SCB 
 618:Drivers/CMSIS/Include/core_cm7.h **** #define SCB_CCR_NONBASETHRDENA_Msk         (1UL /*<< SCB_CCR_NONBASETHRDENA_Pos*/)        /*!< SCB 
 619:Drivers/CMSIS/Include/core_cm7.h **** 
 620:Drivers/CMSIS/Include/core_cm7.h **** /* SCB System Handler Control and State Register Definitions */
 621:Drivers/CMSIS/Include/core_cm7.h **** #define SCB_SHCSR_USGFAULTENA_Pos          18U                                            /*!< SCB 
 622:Drivers/CMSIS/Include/core_cm7.h **** #define SCB_SHCSR_USGFAULTENA_Msk          (1UL << SCB_SHCSR_USGFAULTENA_Pos)             /*!< SCB 
 623:Drivers/CMSIS/Include/core_cm7.h **** 
 624:Drivers/CMSIS/Include/core_cm7.h **** #define SCB_SHCSR_BUSFAULTENA_Pos          17U                                            /*!< SCB 
 625:Drivers/CMSIS/Include/core_cm7.h **** #define SCB_SHCSR_BUSFAULTENA_Msk          (1UL << SCB_SHCSR_BUSFAULTENA_Pos)             /*!< SCB 
 626:Drivers/CMSIS/Include/core_cm7.h **** 
 627:Drivers/CMSIS/Include/core_cm7.h **** #define SCB_SHCSR_MEMFAULTENA_Pos          16U                                            /*!< SCB 
 628:Drivers/CMSIS/Include/core_cm7.h **** #define SCB_SHCSR_MEMFAULTENA_Msk          (1UL << SCB_SHCSR_MEMFAULTENA_Pos)             /*!< SCB 
 629:Drivers/CMSIS/Include/core_cm7.h **** 
 630:Drivers/CMSIS/Include/core_cm7.h **** #define SCB_SHCSR_SVCALLPENDED_Pos         15U                                            /*!< SCB 
 631:Drivers/CMSIS/Include/core_cm7.h **** #define SCB_SHCSR_SVCALLPENDED_Msk         (1UL << SCB_SHCSR_SVCALLPENDED_Pos)            /*!< SCB 
 632:Drivers/CMSIS/Include/core_cm7.h **** 
 633:Drivers/CMSIS/Include/core_cm7.h **** #define SCB_SHCSR_BUSFAULTPENDED_Pos       14U                                            /*!< SCB 
 634:Drivers/CMSIS/Include/core_cm7.h **** #define SCB_SHCSR_BUSFAULTPENDED_Msk       (1UL << SCB_SHCSR_BUSFAULTPENDED_Pos)          /*!< SCB 
 635:Drivers/CMSIS/Include/core_cm7.h **** 
 636:Drivers/CMSIS/Include/core_cm7.h **** #define SCB_SHCSR_MEMFAULTPENDED_Pos       13U                                            /*!< SCB 
 637:Drivers/CMSIS/Include/core_cm7.h **** #define SCB_SHCSR_MEMFAULTPENDED_Msk       (1UL << SCB_SHCSR_MEMFAULTPENDED_Pos)          /*!< SCB 
 638:Drivers/CMSIS/Include/core_cm7.h **** 
 639:Drivers/CMSIS/Include/core_cm7.h **** #define SCB_SHCSR_USGFAULTPENDED_Pos       12U                                            /*!< SCB 
 640:Drivers/CMSIS/Include/core_cm7.h **** #define SCB_SHCSR_USGFAULTPENDED_Msk       (1UL << SCB_SHCSR_USGFAULTPENDED_Pos)          /*!< SCB 
 641:Drivers/CMSIS/Include/core_cm7.h **** 
ARM GAS  C:\Users\Haruka\AppData\Local\Temp\ccgT5NLw.s 			page 48


 642:Drivers/CMSIS/Include/core_cm7.h **** #define SCB_SHCSR_SYSTICKACT_Pos           11U                                            /*!< SCB 
 643:Drivers/CMSIS/Include/core_cm7.h **** #define SCB_SHCSR_SYSTICKACT_Msk           (1UL << SCB_SHCSR_SYSTICKACT_Pos)              /*!< SCB 
 644:Drivers/CMSIS/Include/core_cm7.h **** 
 645:Drivers/CMSIS/Include/core_cm7.h **** #define SCB_SHCSR_PENDSVACT_Pos            10U                                            /*!< SCB 
 646:Drivers/CMSIS/Include/core_cm7.h **** #define SCB_SHCSR_PENDSVACT_Msk            (1UL << SCB_SHCSR_PENDSVACT_Pos)               /*!< SCB 
 647:Drivers/CMSIS/Include/core_cm7.h **** 
 648:Drivers/CMSIS/Include/core_cm7.h **** #define SCB_SHCSR_MONITORACT_Pos            8U                                            /*!< SCB 
 649:Drivers/CMSIS/Include/core_cm7.h **** #define SCB_SHCSR_MONITORACT_Msk           (1UL << SCB_SHCSR_MONITORACT_Pos)              /*!< SCB 
 650:Drivers/CMSIS/Include/core_cm7.h **** 
 651:Drivers/CMSIS/Include/core_cm7.h **** #define SCB_SHCSR_SVCALLACT_Pos             7U                                            /*!< SCB 
 652:Drivers/CMSIS/Include/core_cm7.h **** #define SCB_SHCSR_SVCALLACT_Msk            (1UL << SCB_SHCSR_SVCALLACT_Pos)               /*!< SCB 
 653:Drivers/CMSIS/Include/core_cm7.h **** 
 654:Drivers/CMSIS/Include/core_cm7.h **** #define SCB_SHCSR_USGFAULTACT_Pos           3U                                            /*!< SCB 
 655:Drivers/CMSIS/Include/core_cm7.h **** #define SCB_SHCSR_USGFAULTACT_Msk          (1UL << SCB_SHCSR_USGFAULTACT_Pos)             /*!< SCB 
 656:Drivers/CMSIS/Include/core_cm7.h **** 
 657:Drivers/CMSIS/Include/core_cm7.h **** #define SCB_SHCSR_BUSFAULTACT_Pos           1U                                            /*!< SCB 
 658:Drivers/CMSIS/Include/core_cm7.h **** #define SCB_SHCSR_BUSFAULTACT_Msk          (1UL << SCB_SHCSR_BUSFAULTACT_Pos)             /*!< SCB 
 659:Drivers/CMSIS/Include/core_cm7.h **** 
 660:Drivers/CMSIS/Include/core_cm7.h **** #define SCB_SHCSR_MEMFAULTACT_Pos           0U                                            /*!< SCB 
 661:Drivers/CMSIS/Include/core_cm7.h **** #define SCB_SHCSR_MEMFAULTACT_Msk          (1UL /*<< SCB_SHCSR_MEMFAULTACT_Pos*/)         /*!< SCB 
 662:Drivers/CMSIS/Include/core_cm7.h **** 
 663:Drivers/CMSIS/Include/core_cm7.h **** /* SCB Configurable Fault Status Register Definitions */
 664:Drivers/CMSIS/Include/core_cm7.h **** #define SCB_CFSR_USGFAULTSR_Pos            16U                                            /*!< SCB 
 665:Drivers/CMSIS/Include/core_cm7.h **** #define SCB_CFSR_USGFAULTSR_Msk            (0xFFFFUL << SCB_CFSR_USGFAULTSR_Pos)          /*!< SCB 
 666:Drivers/CMSIS/Include/core_cm7.h **** 
 667:Drivers/CMSIS/Include/core_cm7.h **** #define SCB_CFSR_BUSFAULTSR_Pos             8U                                            /*!< SCB 
 668:Drivers/CMSIS/Include/core_cm7.h **** #define SCB_CFSR_BUSFAULTSR_Msk            (0xFFUL << SCB_CFSR_BUSFAULTSR_Pos)            /*!< SCB 
 669:Drivers/CMSIS/Include/core_cm7.h **** 
 670:Drivers/CMSIS/Include/core_cm7.h **** #define SCB_CFSR_MEMFAULTSR_Pos             0U                                            /*!< SCB 
 671:Drivers/CMSIS/Include/core_cm7.h **** #define SCB_CFSR_MEMFAULTSR_Msk            (0xFFUL /*<< SCB_CFSR_MEMFAULTSR_Pos*/)        /*!< SCB 
 672:Drivers/CMSIS/Include/core_cm7.h **** 
 673:Drivers/CMSIS/Include/core_cm7.h **** /* MemManage Fault Status Register (part of SCB Configurable Fault Status Register) */
 674:Drivers/CMSIS/Include/core_cm7.h **** #define SCB_CFSR_MMARVALID_Pos             (SCB_SHCSR_MEMFAULTACT_Pos + 7U)               /*!< SCB 
 675:Drivers/CMSIS/Include/core_cm7.h **** #define SCB_CFSR_MMARVALID_Msk             (1UL << SCB_CFSR_MMARVALID_Pos)                /*!< SCB 
 676:Drivers/CMSIS/Include/core_cm7.h **** 
 677:Drivers/CMSIS/Include/core_cm7.h **** #define SCB_CFSR_MLSPERR_Pos               (SCB_SHCSR_MEMFAULTACT_Pos + 5U)               /*!< SCB 
 678:Drivers/CMSIS/Include/core_cm7.h **** #define SCB_CFSR_MLSPERR_Msk               (1UL << SCB_CFSR_MLSPERR_Pos)                  /*!< SCB 
 679:Drivers/CMSIS/Include/core_cm7.h **** 
 680:Drivers/CMSIS/Include/core_cm7.h **** #define SCB_CFSR_MSTKERR_Pos               (SCB_SHCSR_MEMFAULTACT_Pos + 4U)               /*!< SCB 
 681:Drivers/CMSIS/Include/core_cm7.h **** #define SCB_CFSR_MSTKERR_Msk               (1UL << SCB_CFSR_MSTKERR_Pos)                  /*!< SCB 
 682:Drivers/CMSIS/Include/core_cm7.h **** 
 683:Drivers/CMSIS/Include/core_cm7.h **** #define SCB_CFSR_MUNSTKERR_Pos             (SCB_SHCSR_MEMFAULTACT_Pos + 3U)               /*!< SCB 
 684:Drivers/CMSIS/Include/core_cm7.h **** #define SCB_CFSR_MUNSTKERR_Msk             (1UL << SCB_CFSR_MUNSTKERR_Pos)                /*!< SCB 
 685:Drivers/CMSIS/Include/core_cm7.h **** 
 686:Drivers/CMSIS/Include/core_cm7.h **** #define SCB_CFSR_DACCVIOL_Pos              (SCB_SHCSR_MEMFAULTACT_Pos + 1U)               /*!< SCB 
 687:Drivers/CMSIS/Include/core_cm7.h **** #define SCB_CFSR_DACCVIOL_Msk              (1UL << SCB_CFSR_DACCVIOL_Pos)                 /*!< SCB 
 688:Drivers/CMSIS/Include/core_cm7.h **** 
 689:Drivers/CMSIS/Include/core_cm7.h **** #define SCB_CFSR_IACCVIOL_Pos              (SCB_SHCSR_MEMFAULTACT_Pos + 0U)               /*!< SCB 
 690:Drivers/CMSIS/Include/core_cm7.h **** #define SCB_CFSR_IACCVIOL_Msk              (1UL /*<< SCB_CFSR_IACCVIOL_Pos*/)             /*!< SCB 
 691:Drivers/CMSIS/Include/core_cm7.h **** 
 692:Drivers/CMSIS/Include/core_cm7.h **** /* BusFault Status Register (part of SCB Configurable Fault Status Register) */
 693:Drivers/CMSIS/Include/core_cm7.h **** #define SCB_CFSR_BFARVALID_Pos            (SCB_CFSR_BUSFAULTSR_Pos + 7U)                  /*!< SCB 
 694:Drivers/CMSIS/Include/core_cm7.h **** #define SCB_CFSR_BFARVALID_Msk            (1UL << SCB_CFSR_BFARVALID_Pos)                 /*!< SCB 
 695:Drivers/CMSIS/Include/core_cm7.h **** 
 696:Drivers/CMSIS/Include/core_cm7.h **** #define SCB_CFSR_LSPERR_Pos               (SCB_CFSR_BUSFAULTSR_Pos + 5U)                  /*!< SCB 
 697:Drivers/CMSIS/Include/core_cm7.h **** #define SCB_CFSR_LSPERR_Msk               (1UL << SCB_CFSR_LSPERR_Pos)                    /*!< SCB 
 698:Drivers/CMSIS/Include/core_cm7.h **** 
ARM GAS  C:\Users\Haruka\AppData\Local\Temp\ccgT5NLw.s 			page 49


 699:Drivers/CMSIS/Include/core_cm7.h **** #define SCB_CFSR_STKERR_Pos               (SCB_CFSR_BUSFAULTSR_Pos + 4U)                  /*!< SCB 
 700:Drivers/CMSIS/Include/core_cm7.h **** #define SCB_CFSR_STKERR_Msk               (1UL << SCB_CFSR_STKERR_Pos)                    /*!< SCB 
 701:Drivers/CMSIS/Include/core_cm7.h **** 
 702:Drivers/CMSIS/Include/core_cm7.h **** #define SCB_CFSR_UNSTKERR_Pos             (SCB_CFSR_BUSFAULTSR_Pos + 3U)                  /*!< SCB 
 703:Drivers/CMSIS/Include/core_cm7.h **** #define SCB_CFSR_UNSTKERR_Msk             (1UL << SCB_CFSR_UNSTKERR_Pos)                  /*!< SCB 
 704:Drivers/CMSIS/Include/core_cm7.h **** 
 705:Drivers/CMSIS/Include/core_cm7.h **** #define SCB_CFSR_IMPRECISERR_Pos          (SCB_CFSR_BUSFAULTSR_Pos + 2U)                  /*!< SCB 
 706:Drivers/CMSIS/Include/core_cm7.h **** #define SCB_CFSR_IMPRECISERR_Msk          (1UL << SCB_CFSR_IMPRECISERR_Pos)               /*!< SCB 
 707:Drivers/CMSIS/Include/core_cm7.h **** 
 708:Drivers/CMSIS/Include/core_cm7.h **** #define SCB_CFSR_PRECISERR_Pos            (SCB_CFSR_BUSFAULTSR_Pos + 1U)                  /*!< SCB 
 709:Drivers/CMSIS/Include/core_cm7.h **** #define SCB_CFSR_PRECISERR_Msk            (1UL << SCB_CFSR_PRECISERR_Pos)                 /*!< SCB 
 710:Drivers/CMSIS/Include/core_cm7.h **** 
 711:Drivers/CMSIS/Include/core_cm7.h **** #define SCB_CFSR_IBUSERR_Pos              (SCB_CFSR_BUSFAULTSR_Pos + 0U)                  /*!< SCB 
 712:Drivers/CMSIS/Include/core_cm7.h **** #define SCB_CFSR_IBUSERR_Msk              (1UL << SCB_CFSR_IBUSERR_Pos)                   /*!< SCB 
 713:Drivers/CMSIS/Include/core_cm7.h **** 
 714:Drivers/CMSIS/Include/core_cm7.h **** /* UsageFault Status Register (part of SCB Configurable Fault Status Register) */
 715:Drivers/CMSIS/Include/core_cm7.h **** #define SCB_CFSR_DIVBYZERO_Pos            (SCB_CFSR_USGFAULTSR_Pos + 9U)                  /*!< SCB 
 716:Drivers/CMSIS/Include/core_cm7.h **** #define SCB_CFSR_DIVBYZERO_Msk            (1UL << SCB_CFSR_DIVBYZERO_Pos)                 /*!< SCB 
 717:Drivers/CMSIS/Include/core_cm7.h **** 
 718:Drivers/CMSIS/Include/core_cm7.h **** #define SCB_CFSR_UNALIGNED_Pos            (SCB_CFSR_USGFAULTSR_Pos + 8U)                  /*!< SCB 
 719:Drivers/CMSIS/Include/core_cm7.h **** #define SCB_CFSR_UNALIGNED_Msk            (1UL << SCB_CFSR_UNALIGNED_Pos)                 /*!< SCB 
 720:Drivers/CMSIS/Include/core_cm7.h **** 
 721:Drivers/CMSIS/Include/core_cm7.h **** #define SCB_CFSR_NOCP_Pos                 (SCB_CFSR_USGFAULTSR_Pos + 3U)                  /*!< SCB 
 722:Drivers/CMSIS/Include/core_cm7.h **** #define SCB_CFSR_NOCP_Msk                 (1UL << SCB_CFSR_NOCP_Pos)                      /*!< SCB 
 723:Drivers/CMSIS/Include/core_cm7.h **** 
 724:Drivers/CMSIS/Include/core_cm7.h **** #define SCB_CFSR_INVPC_Pos                (SCB_CFSR_USGFAULTSR_Pos + 2U)                  /*!< SCB 
 725:Drivers/CMSIS/Include/core_cm7.h **** #define SCB_CFSR_INVPC_Msk                (1UL << SCB_CFSR_INVPC_Pos)                     /*!< SCB 
 726:Drivers/CMSIS/Include/core_cm7.h **** 
 727:Drivers/CMSIS/Include/core_cm7.h **** #define SCB_CFSR_INVSTATE_Pos             (SCB_CFSR_USGFAULTSR_Pos + 1U)                  /*!< SCB 
 728:Drivers/CMSIS/Include/core_cm7.h **** #define SCB_CFSR_INVSTATE_Msk             (1UL << SCB_CFSR_INVSTATE_Pos)                  /*!< SCB 
 729:Drivers/CMSIS/Include/core_cm7.h **** 
 730:Drivers/CMSIS/Include/core_cm7.h **** #define SCB_CFSR_UNDEFINSTR_Pos           (SCB_CFSR_USGFAULTSR_Pos + 0U)                  /*!< SCB 
 731:Drivers/CMSIS/Include/core_cm7.h **** #define SCB_CFSR_UNDEFINSTR_Msk           (1UL << SCB_CFSR_UNDEFINSTR_Pos)                /*!< SCB 
 732:Drivers/CMSIS/Include/core_cm7.h **** 
 733:Drivers/CMSIS/Include/core_cm7.h **** /* SCB Hard Fault Status Register Definitions */
 734:Drivers/CMSIS/Include/core_cm7.h **** #define SCB_HFSR_DEBUGEVT_Pos              31U                                            /*!< SCB 
 735:Drivers/CMSIS/Include/core_cm7.h **** #define SCB_HFSR_DEBUGEVT_Msk              (1UL << SCB_HFSR_DEBUGEVT_Pos)                 /*!< SCB 
 736:Drivers/CMSIS/Include/core_cm7.h **** 
 737:Drivers/CMSIS/Include/core_cm7.h **** #define SCB_HFSR_FORCED_Pos                30U                                            /*!< SCB 
 738:Drivers/CMSIS/Include/core_cm7.h **** #define SCB_HFSR_FORCED_Msk                (1UL << SCB_HFSR_FORCED_Pos)                   /*!< SCB 
 739:Drivers/CMSIS/Include/core_cm7.h **** 
 740:Drivers/CMSIS/Include/core_cm7.h **** #define SCB_HFSR_VECTTBL_Pos                1U                                            /*!< SCB 
 741:Drivers/CMSIS/Include/core_cm7.h **** #define SCB_HFSR_VECTTBL_Msk               (1UL << SCB_HFSR_VECTTBL_Pos)                  /*!< SCB 
 742:Drivers/CMSIS/Include/core_cm7.h **** 
 743:Drivers/CMSIS/Include/core_cm7.h **** /* SCB Debug Fault Status Register Definitions */
 744:Drivers/CMSIS/Include/core_cm7.h **** #define SCB_DFSR_EXTERNAL_Pos               4U                                            /*!< SCB 
 745:Drivers/CMSIS/Include/core_cm7.h **** #define SCB_DFSR_EXTERNAL_Msk              (1UL << SCB_DFSR_EXTERNAL_Pos)                 /*!< SCB 
 746:Drivers/CMSIS/Include/core_cm7.h **** 
 747:Drivers/CMSIS/Include/core_cm7.h **** #define SCB_DFSR_VCATCH_Pos                 3U                                            /*!< SCB 
 748:Drivers/CMSIS/Include/core_cm7.h **** #define SCB_DFSR_VCATCH_Msk                (1UL << SCB_DFSR_VCATCH_Pos)                   /*!< SCB 
 749:Drivers/CMSIS/Include/core_cm7.h **** 
 750:Drivers/CMSIS/Include/core_cm7.h **** #define SCB_DFSR_DWTTRAP_Pos                2U                                            /*!< SCB 
 751:Drivers/CMSIS/Include/core_cm7.h **** #define SCB_DFSR_DWTTRAP_Msk               (1UL << SCB_DFSR_DWTTRAP_Pos)                  /*!< SCB 
 752:Drivers/CMSIS/Include/core_cm7.h **** 
 753:Drivers/CMSIS/Include/core_cm7.h **** #define SCB_DFSR_BKPT_Pos                   1U                                            /*!< SCB 
 754:Drivers/CMSIS/Include/core_cm7.h **** #define SCB_DFSR_BKPT_Msk                  (1UL << SCB_DFSR_BKPT_Pos)                     /*!< SCB 
 755:Drivers/CMSIS/Include/core_cm7.h **** 
ARM GAS  C:\Users\Haruka\AppData\Local\Temp\ccgT5NLw.s 			page 50


 756:Drivers/CMSIS/Include/core_cm7.h **** #define SCB_DFSR_HALTED_Pos                 0U                                            /*!< SCB 
 757:Drivers/CMSIS/Include/core_cm7.h **** #define SCB_DFSR_HALTED_Msk                (1UL /*<< SCB_DFSR_HALTED_Pos*/)               /*!< SCB 
 758:Drivers/CMSIS/Include/core_cm7.h **** 
 759:Drivers/CMSIS/Include/core_cm7.h **** /* SCB Cache Level ID Register Definitions */
 760:Drivers/CMSIS/Include/core_cm7.h **** #define SCB_CLIDR_LOUU_Pos                 27U                                            /*!< SCB 
 761:Drivers/CMSIS/Include/core_cm7.h **** #define SCB_CLIDR_LOUU_Msk                 (7UL << SCB_CLIDR_LOUU_Pos)                    /*!< SCB 
 762:Drivers/CMSIS/Include/core_cm7.h **** 
 763:Drivers/CMSIS/Include/core_cm7.h **** #define SCB_CLIDR_LOC_Pos                  24U                                            /*!< SCB 
 764:Drivers/CMSIS/Include/core_cm7.h **** #define SCB_CLIDR_LOC_Msk                  (7UL << SCB_CLIDR_LOC_Pos)                     /*!< SCB 
 765:Drivers/CMSIS/Include/core_cm7.h **** 
 766:Drivers/CMSIS/Include/core_cm7.h **** /* SCB Cache Type Register Definitions */
 767:Drivers/CMSIS/Include/core_cm7.h **** #define SCB_CTR_FORMAT_Pos                 29U                                            /*!< SCB 
 768:Drivers/CMSIS/Include/core_cm7.h **** #define SCB_CTR_FORMAT_Msk                 (7UL << SCB_CTR_FORMAT_Pos)                    /*!< SCB 
 769:Drivers/CMSIS/Include/core_cm7.h **** 
 770:Drivers/CMSIS/Include/core_cm7.h **** #define SCB_CTR_CWG_Pos                    24U                                            /*!< SCB 
 771:Drivers/CMSIS/Include/core_cm7.h **** #define SCB_CTR_CWG_Msk                    (0xFUL << SCB_CTR_CWG_Pos)                     /*!< SCB 
 772:Drivers/CMSIS/Include/core_cm7.h **** 
 773:Drivers/CMSIS/Include/core_cm7.h **** #define SCB_CTR_ERG_Pos                    20U                                            /*!< SCB 
 774:Drivers/CMSIS/Include/core_cm7.h **** #define SCB_CTR_ERG_Msk                    (0xFUL << SCB_CTR_ERG_Pos)                     /*!< SCB 
 775:Drivers/CMSIS/Include/core_cm7.h **** 
 776:Drivers/CMSIS/Include/core_cm7.h **** #define SCB_CTR_DMINLINE_Pos               16U                                            /*!< SCB 
 777:Drivers/CMSIS/Include/core_cm7.h **** #define SCB_CTR_DMINLINE_Msk               (0xFUL << SCB_CTR_DMINLINE_Pos)                /*!< SCB 
 778:Drivers/CMSIS/Include/core_cm7.h **** 
 779:Drivers/CMSIS/Include/core_cm7.h **** #define SCB_CTR_IMINLINE_Pos                0U                                            /*!< SCB 
 780:Drivers/CMSIS/Include/core_cm7.h **** #define SCB_CTR_IMINLINE_Msk               (0xFUL /*<< SCB_CTR_IMINLINE_Pos*/)            /*!< SCB 
 781:Drivers/CMSIS/Include/core_cm7.h **** 
 782:Drivers/CMSIS/Include/core_cm7.h **** /* SCB Cache Size ID Register Definitions */
 783:Drivers/CMSIS/Include/core_cm7.h **** #define SCB_CCSIDR_WT_Pos                  31U                                            /*!< SCB 
 784:Drivers/CMSIS/Include/core_cm7.h **** #define SCB_CCSIDR_WT_Msk                  (1UL << SCB_CCSIDR_WT_Pos)                     /*!< SCB 
 785:Drivers/CMSIS/Include/core_cm7.h **** 
 786:Drivers/CMSIS/Include/core_cm7.h **** #define SCB_CCSIDR_WB_Pos                  30U                                            /*!< SCB 
 787:Drivers/CMSIS/Include/core_cm7.h **** #define SCB_CCSIDR_WB_Msk                  (1UL << SCB_CCSIDR_WB_Pos)                     /*!< SCB 
 788:Drivers/CMSIS/Include/core_cm7.h **** 
 789:Drivers/CMSIS/Include/core_cm7.h **** #define SCB_CCSIDR_RA_Pos                  29U                                            /*!< SCB 
 790:Drivers/CMSIS/Include/core_cm7.h **** #define SCB_CCSIDR_RA_Msk                  (1UL << SCB_CCSIDR_RA_Pos)                     /*!< SCB 
 791:Drivers/CMSIS/Include/core_cm7.h **** 
 792:Drivers/CMSIS/Include/core_cm7.h **** #define SCB_CCSIDR_WA_Pos                  28U                                            /*!< SCB 
 793:Drivers/CMSIS/Include/core_cm7.h **** #define SCB_CCSIDR_WA_Msk                  (1UL << SCB_CCSIDR_WA_Pos)                     /*!< SCB 
 794:Drivers/CMSIS/Include/core_cm7.h **** 
 795:Drivers/CMSIS/Include/core_cm7.h **** #define SCB_CCSIDR_NUMSETS_Pos             13U                                            /*!< SCB 
 796:Drivers/CMSIS/Include/core_cm7.h **** #define SCB_CCSIDR_NUMSETS_Msk             (0x7FFFUL << SCB_CCSIDR_NUMSETS_Pos)           /*!< SCB 
 797:Drivers/CMSIS/Include/core_cm7.h **** 
 798:Drivers/CMSIS/Include/core_cm7.h **** #define SCB_CCSIDR_ASSOCIATIVITY_Pos        3U                                            /*!< SCB 
 799:Drivers/CMSIS/Include/core_cm7.h **** #define SCB_CCSIDR_ASSOCIATIVITY_Msk       (0x3FFUL << SCB_CCSIDR_ASSOCIATIVITY_Pos)      /*!< SCB 
 800:Drivers/CMSIS/Include/core_cm7.h **** 
 801:Drivers/CMSIS/Include/core_cm7.h **** #define SCB_CCSIDR_LINESIZE_Pos             0U                                            /*!< SCB 
 802:Drivers/CMSIS/Include/core_cm7.h **** #define SCB_CCSIDR_LINESIZE_Msk            (7UL /*<< SCB_CCSIDR_LINESIZE_Pos*/)           /*!< SCB 
 803:Drivers/CMSIS/Include/core_cm7.h **** 
 804:Drivers/CMSIS/Include/core_cm7.h **** /* SCB Cache Size Selection Register Definitions */
 805:Drivers/CMSIS/Include/core_cm7.h **** #define SCB_CSSELR_LEVEL_Pos                1U                                            /*!< SCB 
 806:Drivers/CMSIS/Include/core_cm7.h **** #define SCB_CSSELR_LEVEL_Msk               (7UL << SCB_CSSELR_LEVEL_Pos)                  /*!< SCB 
 807:Drivers/CMSIS/Include/core_cm7.h **** 
 808:Drivers/CMSIS/Include/core_cm7.h **** #define SCB_CSSELR_IND_Pos                  0U                                            /*!< SCB 
 809:Drivers/CMSIS/Include/core_cm7.h **** #define SCB_CSSELR_IND_Msk                 (1UL /*<< SCB_CSSELR_IND_Pos*/)                /*!< SCB 
 810:Drivers/CMSIS/Include/core_cm7.h **** 
 811:Drivers/CMSIS/Include/core_cm7.h **** /* SCB Software Triggered Interrupt Register Definitions */
 812:Drivers/CMSIS/Include/core_cm7.h **** #define SCB_STIR_INTID_Pos                  0U                                            /*!< SCB 
ARM GAS  C:\Users\Haruka\AppData\Local\Temp\ccgT5NLw.s 			page 51


 813:Drivers/CMSIS/Include/core_cm7.h **** #define SCB_STIR_INTID_Msk                 (0x1FFUL /*<< SCB_STIR_INTID_Pos*/)            /*!< SCB 
 814:Drivers/CMSIS/Include/core_cm7.h **** 
 815:Drivers/CMSIS/Include/core_cm7.h **** /* SCB D-Cache Invalidate by Set-way Register Definitions */
 816:Drivers/CMSIS/Include/core_cm7.h **** #define SCB_DCISW_WAY_Pos                  30U                                            /*!< SCB 
 817:Drivers/CMSIS/Include/core_cm7.h **** #define SCB_DCISW_WAY_Msk                  (3UL << SCB_DCISW_WAY_Pos)                     /*!< SCB 
 818:Drivers/CMSIS/Include/core_cm7.h **** 
 819:Drivers/CMSIS/Include/core_cm7.h **** #define SCB_DCISW_SET_Pos                   5U                                            /*!< SCB 
 820:Drivers/CMSIS/Include/core_cm7.h **** #define SCB_DCISW_SET_Msk                  (0x1FFUL << SCB_DCISW_SET_Pos)                 /*!< SCB 
 821:Drivers/CMSIS/Include/core_cm7.h **** 
 822:Drivers/CMSIS/Include/core_cm7.h **** /* SCB D-Cache Clean by Set-way Register Definitions */
 823:Drivers/CMSIS/Include/core_cm7.h **** #define SCB_DCCSW_WAY_Pos                  30U                                            /*!< SCB 
 824:Drivers/CMSIS/Include/core_cm7.h **** #define SCB_DCCSW_WAY_Msk                  (3UL << SCB_DCCSW_WAY_Pos)                     /*!< SCB 
 825:Drivers/CMSIS/Include/core_cm7.h **** 
 826:Drivers/CMSIS/Include/core_cm7.h **** #define SCB_DCCSW_SET_Pos                   5U                                            /*!< SCB 
 827:Drivers/CMSIS/Include/core_cm7.h **** #define SCB_DCCSW_SET_Msk                  (0x1FFUL << SCB_DCCSW_SET_Pos)                 /*!< SCB 
 828:Drivers/CMSIS/Include/core_cm7.h **** 
 829:Drivers/CMSIS/Include/core_cm7.h **** /* SCB D-Cache Clean and Invalidate by Set-way Register Definitions */
 830:Drivers/CMSIS/Include/core_cm7.h **** #define SCB_DCCISW_WAY_Pos                 30U                                            /*!< SCB 
 831:Drivers/CMSIS/Include/core_cm7.h **** #define SCB_DCCISW_WAY_Msk                 (3UL << SCB_DCCISW_WAY_Pos)                    /*!< SCB 
 832:Drivers/CMSIS/Include/core_cm7.h **** 
 833:Drivers/CMSIS/Include/core_cm7.h **** #define SCB_DCCISW_SET_Pos                  5U                                            /*!< SCB 
 834:Drivers/CMSIS/Include/core_cm7.h **** #define SCB_DCCISW_SET_Msk                 (0x1FFUL << SCB_DCCISW_SET_Pos)                /*!< SCB 
 835:Drivers/CMSIS/Include/core_cm7.h **** 
 836:Drivers/CMSIS/Include/core_cm7.h **** /* Instruction Tightly-Coupled Memory Control Register Definitions */
 837:Drivers/CMSIS/Include/core_cm7.h **** #define SCB_ITCMCR_SZ_Pos                   3U                                            /*!< SCB 
 838:Drivers/CMSIS/Include/core_cm7.h **** #define SCB_ITCMCR_SZ_Msk                  (0xFUL << SCB_ITCMCR_SZ_Pos)                   /*!< SCB 
 839:Drivers/CMSIS/Include/core_cm7.h **** 
 840:Drivers/CMSIS/Include/core_cm7.h **** #define SCB_ITCMCR_RETEN_Pos                2U                                            /*!< SCB 
 841:Drivers/CMSIS/Include/core_cm7.h **** #define SCB_ITCMCR_RETEN_Msk               (1UL << SCB_ITCMCR_RETEN_Pos)                  /*!< SCB 
 842:Drivers/CMSIS/Include/core_cm7.h **** 
 843:Drivers/CMSIS/Include/core_cm7.h **** #define SCB_ITCMCR_RMW_Pos                  1U                                            /*!< SCB 
 844:Drivers/CMSIS/Include/core_cm7.h **** #define SCB_ITCMCR_RMW_Msk                 (1UL << SCB_ITCMCR_RMW_Pos)                    /*!< SCB 
 845:Drivers/CMSIS/Include/core_cm7.h **** 
 846:Drivers/CMSIS/Include/core_cm7.h **** #define SCB_ITCMCR_EN_Pos                   0U                                            /*!< SCB 
 847:Drivers/CMSIS/Include/core_cm7.h **** #define SCB_ITCMCR_EN_Msk                  (1UL /*<< SCB_ITCMCR_EN_Pos*/)                 /*!< SCB 
 848:Drivers/CMSIS/Include/core_cm7.h **** 
 849:Drivers/CMSIS/Include/core_cm7.h **** /* Data Tightly-Coupled Memory Control Register Definitions */
 850:Drivers/CMSIS/Include/core_cm7.h **** #define SCB_DTCMCR_SZ_Pos                   3U                                            /*!< SCB 
 851:Drivers/CMSIS/Include/core_cm7.h **** #define SCB_DTCMCR_SZ_Msk                  (0xFUL << SCB_DTCMCR_SZ_Pos)                   /*!< SCB 
 852:Drivers/CMSIS/Include/core_cm7.h **** 
 853:Drivers/CMSIS/Include/core_cm7.h **** #define SCB_DTCMCR_RETEN_Pos                2U                                            /*!< SCB 
 854:Drivers/CMSIS/Include/core_cm7.h **** #define SCB_DTCMCR_RETEN_Msk               (1UL << SCB_DTCMCR_RETEN_Pos)                   /*!< SCB
 855:Drivers/CMSIS/Include/core_cm7.h **** 
 856:Drivers/CMSIS/Include/core_cm7.h **** #define SCB_DTCMCR_RMW_Pos                  1U                                            /*!< SCB 
 857:Drivers/CMSIS/Include/core_cm7.h **** #define SCB_DTCMCR_RMW_Msk                 (1UL << SCB_DTCMCR_RMW_Pos)                    /*!< SCB 
 858:Drivers/CMSIS/Include/core_cm7.h **** 
 859:Drivers/CMSIS/Include/core_cm7.h **** #define SCB_DTCMCR_EN_Pos                   0U                                            /*!< SCB 
 860:Drivers/CMSIS/Include/core_cm7.h **** #define SCB_DTCMCR_EN_Msk                  (1UL /*<< SCB_DTCMCR_EN_Pos*/)                 /*!< SCB 
 861:Drivers/CMSIS/Include/core_cm7.h **** 
 862:Drivers/CMSIS/Include/core_cm7.h **** /* AHBP Control Register Definitions */
 863:Drivers/CMSIS/Include/core_cm7.h **** #define SCB_AHBPCR_SZ_Pos                   1U                                            /*!< SCB 
 864:Drivers/CMSIS/Include/core_cm7.h **** #define SCB_AHBPCR_SZ_Msk                  (7UL << SCB_AHBPCR_SZ_Pos)                     /*!< SCB 
 865:Drivers/CMSIS/Include/core_cm7.h **** 
 866:Drivers/CMSIS/Include/core_cm7.h **** #define SCB_AHBPCR_EN_Pos                   0U                                            /*!< SCB 
 867:Drivers/CMSIS/Include/core_cm7.h **** #define SCB_AHBPCR_EN_Msk                  (1UL /*<< SCB_AHBPCR_EN_Pos*/)                 /*!< SCB 
 868:Drivers/CMSIS/Include/core_cm7.h **** 
 869:Drivers/CMSIS/Include/core_cm7.h **** /* L1 Cache Control Register Definitions */
ARM GAS  C:\Users\Haruka\AppData\Local\Temp\ccgT5NLw.s 			page 52


 870:Drivers/CMSIS/Include/core_cm7.h **** #define SCB_CACR_FORCEWT_Pos                2U                                            /*!< SCB 
 871:Drivers/CMSIS/Include/core_cm7.h **** #define SCB_CACR_FORCEWT_Msk               (1UL << SCB_CACR_FORCEWT_Pos)                  /*!< SCB 
 872:Drivers/CMSIS/Include/core_cm7.h **** 
 873:Drivers/CMSIS/Include/core_cm7.h **** #define SCB_CACR_ECCEN_Pos                  1U                                            /*!< SCB 
 874:Drivers/CMSIS/Include/core_cm7.h **** #define SCB_CACR_ECCEN_Msk                 (1UL << SCB_CACR_ECCEN_Pos)                    /*!< SCB 
 875:Drivers/CMSIS/Include/core_cm7.h **** 
 876:Drivers/CMSIS/Include/core_cm7.h **** #define SCB_CACR_SIWT_Pos                   0U                                            /*!< SCB 
 877:Drivers/CMSIS/Include/core_cm7.h **** #define SCB_CACR_SIWT_Msk                  (1UL /*<< SCB_CACR_SIWT_Pos*/)                 /*!< SCB 
 878:Drivers/CMSIS/Include/core_cm7.h **** 
 879:Drivers/CMSIS/Include/core_cm7.h **** /* AHBS Control Register Definitions */
 880:Drivers/CMSIS/Include/core_cm7.h **** #define SCB_AHBSCR_INITCOUNT_Pos           11U                                            /*!< SCB 
 881:Drivers/CMSIS/Include/core_cm7.h **** #define SCB_AHBSCR_INITCOUNT_Msk           (0x1FUL << SCB_AHBPCR_INITCOUNT_Pos)           /*!< SCB 
 882:Drivers/CMSIS/Include/core_cm7.h **** 
 883:Drivers/CMSIS/Include/core_cm7.h **** #define SCB_AHBSCR_TPRI_Pos                 2U                                            /*!< SCB 
 884:Drivers/CMSIS/Include/core_cm7.h **** #define SCB_AHBSCR_TPRI_Msk                (0x1FFUL << SCB_AHBPCR_TPRI_Pos)               /*!< SCB 
 885:Drivers/CMSIS/Include/core_cm7.h **** 
 886:Drivers/CMSIS/Include/core_cm7.h **** #define SCB_AHBSCR_CTL_Pos                  0U                                            /*!< SCB 
 887:Drivers/CMSIS/Include/core_cm7.h **** #define SCB_AHBSCR_CTL_Msk                 (3UL /*<< SCB_AHBPCR_CTL_Pos*/)                /*!< SCB 
 888:Drivers/CMSIS/Include/core_cm7.h **** 
 889:Drivers/CMSIS/Include/core_cm7.h **** /* Auxiliary Bus Fault Status Register Definitions */
 890:Drivers/CMSIS/Include/core_cm7.h **** #define SCB_ABFSR_AXIMTYPE_Pos              8U                                            /*!< SCB 
 891:Drivers/CMSIS/Include/core_cm7.h **** #define SCB_ABFSR_AXIMTYPE_Msk             (3UL << SCB_ABFSR_AXIMTYPE_Pos)                /*!< SCB 
 892:Drivers/CMSIS/Include/core_cm7.h **** 
 893:Drivers/CMSIS/Include/core_cm7.h **** #define SCB_ABFSR_EPPB_Pos                  4U                                            /*!< SCB 
 894:Drivers/CMSIS/Include/core_cm7.h **** #define SCB_ABFSR_EPPB_Msk                 (1UL << SCB_ABFSR_EPPB_Pos)                    /*!< SCB 
 895:Drivers/CMSIS/Include/core_cm7.h **** 
 896:Drivers/CMSIS/Include/core_cm7.h **** #define SCB_ABFSR_AXIM_Pos                  3U                                            /*!< SCB 
 897:Drivers/CMSIS/Include/core_cm7.h **** #define SCB_ABFSR_AXIM_Msk                 (1UL << SCB_ABFSR_AXIM_Pos)                    /*!< SCB 
 898:Drivers/CMSIS/Include/core_cm7.h **** 
 899:Drivers/CMSIS/Include/core_cm7.h **** #define SCB_ABFSR_AHBP_Pos                  2U                                            /*!< SCB 
 900:Drivers/CMSIS/Include/core_cm7.h **** #define SCB_ABFSR_AHBP_Msk                 (1UL << SCB_ABFSR_AHBP_Pos)                    /*!< SCB 
 901:Drivers/CMSIS/Include/core_cm7.h **** 
 902:Drivers/CMSIS/Include/core_cm7.h **** #define SCB_ABFSR_DTCM_Pos                  1U                                            /*!< SCB 
 903:Drivers/CMSIS/Include/core_cm7.h **** #define SCB_ABFSR_DTCM_Msk                 (1UL << SCB_ABFSR_DTCM_Pos)                    /*!< SCB 
 904:Drivers/CMSIS/Include/core_cm7.h **** 
 905:Drivers/CMSIS/Include/core_cm7.h **** #define SCB_ABFSR_ITCM_Pos                  0U                                            /*!< SCB 
 906:Drivers/CMSIS/Include/core_cm7.h **** #define SCB_ABFSR_ITCM_Msk                 (1UL /*<< SCB_ABFSR_ITCM_Pos*/)                /*!< SCB 
 907:Drivers/CMSIS/Include/core_cm7.h **** 
 908:Drivers/CMSIS/Include/core_cm7.h **** /*@} end of group CMSIS_SCB */
 909:Drivers/CMSIS/Include/core_cm7.h **** 
 910:Drivers/CMSIS/Include/core_cm7.h **** 
 911:Drivers/CMSIS/Include/core_cm7.h **** /**
 912:Drivers/CMSIS/Include/core_cm7.h ****   \ingroup  CMSIS_core_register
 913:Drivers/CMSIS/Include/core_cm7.h ****   \defgroup CMSIS_SCnSCB System Controls not in SCB (SCnSCB)
 914:Drivers/CMSIS/Include/core_cm7.h ****   \brief    Type definitions for the System Control and ID Register not in the SCB
 915:Drivers/CMSIS/Include/core_cm7.h ****   @{
 916:Drivers/CMSIS/Include/core_cm7.h ****  */
 917:Drivers/CMSIS/Include/core_cm7.h **** 
 918:Drivers/CMSIS/Include/core_cm7.h **** /**
 919:Drivers/CMSIS/Include/core_cm7.h ****   \brief  Structure type to access the System Control and ID Register not in the SCB.
 920:Drivers/CMSIS/Include/core_cm7.h ****  */
 921:Drivers/CMSIS/Include/core_cm7.h **** typedef struct
 922:Drivers/CMSIS/Include/core_cm7.h **** {
 923:Drivers/CMSIS/Include/core_cm7.h ****         uint32_t RESERVED0[1U];
 924:Drivers/CMSIS/Include/core_cm7.h ****   __IM  uint32_t ICTR;                   /*!< Offset: 0x004 (R/ )  Interrupt Controller Type Regist
 925:Drivers/CMSIS/Include/core_cm7.h ****   __IOM uint32_t ACTLR;                  /*!< Offset: 0x008 (R/W)  Auxiliary Control Register */
 926:Drivers/CMSIS/Include/core_cm7.h **** } SCnSCB_Type;
ARM GAS  C:\Users\Haruka\AppData\Local\Temp\ccgT5NLw.s 			page 53


 927:Drivers/CMSIS/Include/core_cm7.h **** 
 928:Drivers/CMSIS/Include/core_cm7.h **** /* Interrupt Controller Type Register Definitions */
 929:Drivers/CMSIS/Include/core_cm7.h **** #define SCnSCB_ICTR_INTLINESNUM_Pos         0U                                         /*!< ICTR: I
 930:Drivers/CMSIS/Include/core_cm7.h **** #define SCnSCB_ICTR_INTLINESNUM_Msk        (0xFUL /*<< SCnSCB_ICTR_INTLINESNUM_Pos*/)  /*!< ICTR: I
 931:Drivers/CMSIS/Include/core_cm7.h **** 
 932:Drivers/CMSIS/Include/core_cm7.h **** /* Auxiliary Control Register Definitions */
 933:Drivers/CMSIS/Include/core_cm7.h **** #define SCnSCB_ACTLR_DISITMATBFLUSH_Pos    12U                                         /*!< ACTLR: 
 934:Drivers/CMSIS/Include/core_cm7.h **** #define SCnSCB_ACTLR_DISITMATBFLUSH_Msk    (1UL << SCnSCB_ACTLR_DISITMATBFLUSH_Pos)    /*!< ACTLR: 
 935:Drivers/CMSIS/Include/core_cm7.h **** 
 936:Drivers/CMSIS/Include/core_cm7.h **** #define SCnSCB_ACTLR_DISRAMODE_Pos         11U                                         /*!< ACTLR: 
 937:Drivers/CMSIS/Include/core_cm7.h **** #define SCnSCB_ACTLR_DISRAMODE_Msk         (1UL << SCnSCB_ACTLR_DISRAMODE_Pos)         /*!< ACTLR: 
 938:Drivers/CMSIS/Include/core_cm7.h **** 
 939:Drivers/CMSIS/Include/core_cm7.h **** #define SCnSCB_ACTLR_FPEXCODIS_Pos         10U                                         /*!< ACTLR: 
 940:Drivers/CMSIS/Include/core_cm7.h **** #define SCnSCB_ACTLR_FPEXCODIS_Msk         (1UL << SCnSCB_ACTLR_FPEXCODIS_Pos)         /*!< ACTLR: 
 941:Drivers/CMSIS/Include/core_cm7.h **** 
 942:Drivers/CMSIS/Include/core_cm7.h **** #define SCnSCB_ACTLR_DISFOLD_Pos            2U                                         /*!< ACTLR: 
 943:Drivers/CMSIS/Include/core_cm7.h **** #define SCnSCB_ACTLR_DISFOLD_Msk           (1UL << SCnSCB_ACTLR_DISFOLD_Pos)           /*!< ACTLR: 
 944:Drivers/CMSIS/Include/core_cm7.h **** 
 945:Drivers/CMSIS/Include/core_cm7.h **** #define SCnSCB_ACTLR_DISMCYCINT_Pos         0U                                         /*!< ACTLR: 
 946:Drivers/CMSIS/Include/core_cm7.h **** #define SCnSCB_ACTLR_DISMCYCINT_Msk        (1UL /*<< SCnSCB_ACTLR_DISMCYCINT_Pos*/)    /*!< ACTLR: 
 947:Drivers/CMSIS/Include/core_cm7.h **** 
 948:Drivers/CMSIS/Include/core_cm7.h **** /*@} end of group CMSIS_SCnotSCB */
 949:Drivers/CMSIS/Include/core_cm7.h **** 
 950:Drivers/CMSIS/Include/core_cm7.h **** 
 951:Drivers/CMSIS/Include/core_cm7.h **** /**
 952:Drivers/CMSIS/Include/core_cm7.h ****   \ingroup  CMSIS_core_register
 953:Drivers/CMSIS/Include/core_cm7.h ****   \defgroup CMSIS_SysTick     System Tick Timer (SysTick)
 954:Drivers/CMSIS/Include/core_cm7.h ****   \brief    Type definitions for the System Timer Registers.
 955:Drivers/CMSIS/Include/core_cm7.h ****   @{
 956:Drivers/CMSIS/Include/core_cm7.h ****  */
 957:Drivers/CMSIS/Include/core_cm7.h **** 
 958:Drivers/CMSIS/Include/core_cm7.h **** /**
 959:Drivers/CMSIS/Include/core_cm7.h ****   \brief  Structure type to access the System Timer (SysTick).
 960:Drivers/CMSIS/Include/core_cm7.h ****  */
 961:Drivers/CMSIS/Include/core_cm7.h **** typedef struct
 962:Drivers/CMSIS/Include/core_cm7.h **** {
 963:Drivers/CMSIS/Include/core_cm7.h ****   __IOM uint32_t CTRL;                   /*!< Offset: 0x000 (R/W)  SysTick Control and Status Regis
 964:Drivers/CMSIS/Include/core_cm7.h ****   __IOM uint32_t LOAD;                   /*!< Offset: 0x004 (R/W)  SysTick Reload Value Register */
 965:Drivers/CMSIS/Include/core_cm7.h ****   __IOM uint32_t VAL;                    /*!< Offset: 0x008 (R/W)  SysTick Current Value Register *
 966:Drivers/CMSIS/Include/core_cm7.h ****   __IM  uint32_t CALIB;                  /*!< Offset: 0x00C (R/ )  SysTick Calibration Register */
 967:Drivers/CMSIS/Include/core_cm7.h **** } SysTick_Type;
 968:Drivers/CMSIS/Include/core_cm7.h **** 
 969:Drivers/CMSIS/Include/core_cm7.h **** /* SysTick Control / Status Register Definitions */
 970:Drivers/CMSIS/Include/core_cm7.h **** #define SysTick_CTRL_COUNTFLAG_Pos         16U                                            /*!< SysT
 971:Drivers/CMSIS/Include/core_cm7.h **** #define SysTick_CTRL_COUNTFLAG_Msk         (1UL << SysTick_CTRL_COUNTFLAG_Pos)            /*!< SysT
 972:Drivers/CMSIS/Include/core_cm7.h **** 
 973:Drivers/CMSIS/Include/core_cm7.h **** #define SysTick_CTRL_CLKSOURCE_Pos          2U                                            /*!< SysT
 974:Drivers/CMSIS/Include/core_cm7.h **** #define SysTick_CTRL_CLKSOURCE_Msk         (1UL << SysTick_CTRL_CLKSOURCE_Pos)            /*!< SysT
 975:Drivers/CMSIS/Include/core_cm7.h **** 
 976:Drivers/CMSIS/Include/core_cm7.h **** #define SysTick_CTRL_TICKINT_Pos            1U                                            /*!< SysT
 977:Drivers/CMSIS/Include/core_cm7.h **** #define SysTick_CTRL_TICKINT_Msk           (1UL << SysTick_CTRL_TICKINT_Pos)              /*!< SysT
 978:Drivers/CMSIS/Include/core_cm7.h **** 
 979:Drivers/CMSIS/Include/core_cm7.h **** #define SysTick_CTRL_ENABLE_Pos             0U                                            /*!< SysT
 980:Drivers/CMSIS/Include/core_cm7.h **** #define SysTick_CTRL_ENABLE_Msk            (1UL /*<< SysTick_CTRL_ENABLE_Pos*/)           /*!< SysT
 981:Drivers/CMSIS/Include/core_cm7.h **** 
 982:Drivers/CMSIS/Include/core_cm7.h **** /* SysTick Reload Register Definitions */
 983:Drivers/CMSIS/Include/core_cm7.h **** #define SysTick_LOAD_RELOAD_Pos             0U                                            /*!< SysT
ARM GAS  C:\Users\Haruka\AppData\Local\Temp\ccgT5NLw.s 			page 54


 984:Drivers/CMSIS/Include/core_cm7.h **** #define SysTick_LOAD_RELOAD_Msk            (0xFFFFFFUL /*<< SysTick_LOAD_RELOAD_Pos*/)    /*!< SysT
 985:Drivers/CMSIS/Include/core_cm7.h **** 
 986:Drivers/CMSIS/Include/core_cm7.h **** /* SysTick Current Register Definitions */
 987:Drivers/CMSIS/Include/core_cm7.h **** #define SysTick_VAL_CURRENT_Pos             0U                                            /*!< SysT
 988:Drivers/CMSIS/Include/core_cm7.h **** #define SysTick_VAL_CURRENT_Msk            (0xFFFFFFUL /*<< SysTick_VAL_CURRENT_Pos*/)    /*!< SysT
 989:Drivers/CMSIS/Include/core_cm7.h **** 
 990:Drivers/CMSIS/Include/core_cm7.h **** /* SysTick Calibration Register Definitions */
 991:Drivers/CMSIS/Include/core_cm7.h **** #define SysTick_CALIB_NOREF_Pos            31U                                            /*!< SysT
 992:Drivers/CMSIS/Include/core_cm7.h **** #define SysTick_CALIB_NOREF_Msk            (1UL << SysTick_CALIB_NOREF_Pos)               /*!< SysT
 993:Drivers/CMSIS/Include/core_cm7.h **** 
 994:Drivers/CMSIS/Include/core_cm7.h **** #define SysTick_CALIB_SKEW_Pos             30U                                            /*!< SysT
 995:Drivers/CMSIS/Include/core_cm7.h **** #define SysTick_CALIB_SKEW_Msk             (1UL << SysTick_CALIB_SKEW_Pos)                /*!< SysT
 996:Drivers/CMSIS/Include/core_cm7.h **** 
 997:Drivers/CMSIS/Include/core_cm7.h **** #define SysTick_CALIB_TENMS_Pos             0U                                            /*!< SysT
 998:Drivers/CMSIS/Include/core_cm7.h **** #define SysTick_CALIB_TENMS_Msk            (0xFFFFFFUL /*<< SysTick_CALIB_TENMS_Pos*/)    /*!< SysT
 999:Drivers/CMSIS/Include/core_cm7.h **** 
1000:Drivers/CMSIS/Include/core_cm7.h **** /*@} end of group CMSIS_SysTick */
1001:Drivers/CMSIS/Include/core_cm7.h **** 
1002:Drivers/CMSIS/Include/core_cm7.h **** 
1003:Drivers/CMSIS/Include/core_cm7.h **** /**
1004:Drivers/CMSIS/Include/core_cm7.h ****   \ingroup  CMSIS_core_register
1005:Drivers/CMSIS/Include/core_cm7.h ****   \defgroup CMSIS_ITM     Instrumentation Trace Macrocell (ITM)
1006:Drivers/CMSIS/Include/core_cm7.h ****   \brief    Type definitions for the Instrumentation Trace Macrocell (ITM)
1007:Drivers/CMSIS/Include/core_cm7.h ****   @{
1008:Drivers/CMSIS/Include/core_cm7.h ****  */
1009:Drivers/CMSIS/Include/core_cm7.h **** 
1010:Drivers/CMSIS/Include/core_cm7.h **** /**
1011:Drivers/CMSIS/Include/core_cm7.h ****   \brief  Structure type to access the Instrumentation Trace Macrocell Register (ITM).
1012:Drivers/CMSIS/Include/core_cm7.h ****  */
1013:Drivers/CMSIS/Include/core_cm7.h **** typedef struct
1014:Drivers/CMSIS/Include/core_cm7.h **** {
1015:Drivers/CMSIS/Include/core_cm7.h ****   __OM  union
1016:Drivers/CMSIS/Include/core_cm7.h ****   {
1017:Drivers/CMSIS/Include/core_cm7.h ****     __OM  uint8_t    u8;                 /*!< Offset: 0x000 ( /W)  ITM Stimulus Port 8-bit */
1018:Drivers/CMSIS/Include/core_cm7.h ****     __OM  uint16_t   u16;                /*!< Offset: 0x000 ( /W)  ITM Stimulus Port 16-bit */
1019:Drivers/CMSIS/Include/core_cm7.h ****     __OM  uint32_t   u32;                /*!< Offset: 0x000 ( /W)  ITM Stimulus Port 32-bit */
1020:Drivers/CMSIS/Include/core_cm7.h ****   }  PORT [32U];                         /*!< Offset: 0x000 ( /W)  ITM Stimulus Port Registers */
1021:Drivers/CMSIS/Include/core_cm7.h ****         uint32_t RESERVED0[864U];
1022:Drivers/CMSIS/Include/core_cm7.h ****   __IOM uint32_t TER;                    /*!< Offset: 0xE00 (R/W)  ITM Trace Enable Register */
1023:Drivers/CMSIS/Include/core_cm7.h ****         uint32_t RESERVED1[15U];
1024:Drivers/CMSIS/Include/core_cm7.h ****   __IOM uint32_t TPR;                    /*!< Offset: 0xE40 (R/W)  ITM Trace Privilege Register */
1025:Drivers/CMSIS/Include/core_cm7.h ****         uint32_t RESERVED2[15U];
1026:Drivers/CMSIS/Include/core_cm7.h ****   __IOM uint32_t TCR;                    /*!< Offset: 0xE80 (R/W)  ITM Trace Control Register */
1027:Drivers/CMSIS/Include/core_cm7.h ****         uint32_t RESERVED3[29U];
1028:Drivers/CMSIS/Include/core_cm7.h ****   __OM  uint32_t IWR;                    /*!< Offset: 0xEF8 ( /W)  ITM Integration Write Register *
1029:Drivers/CMSIS/Include/core_cm7.h ****   __IM  uint32_t IRR;                    /*!< Offset: 0xEFC (R/ )  ITM Integration Read Register */
1030:Drivers/CMSIS/Include/core_cm7.h ****   __IOM uint32_t IMCR;                   /*!< Offset: 0xF00 (R/W)  ITM Integration Mode Control Reg
1031:Drivers/CMSIS/Include/core_cm7.h ****         uint32_t RESERVED4[43U];
1032:Drivers/CMSIS/Include/core_cm7.h ****   __OM  uint32_t LAR;                    /*!< Offset: 0xFB0 ( /W)  ITM Lock Access Register */
1033:Drivers/CMSIS/Include/core_cm7.h ****   __IM  uint32_t LSR;                    /*!< Offset: 0xFB4 (R/ )  ITM Lock Status Register */
1034:Drivers/CMSIS/Include/core_cm7.h ****         uint32_t RESERVED5[6U];
1035:Drivers/CMSIS/Include/core_cm7.h ****   __IM  uint32_t PID4;                   /*!< Offset: 0xFD0 (R/ )  ITM Peripheral Identification Re
1036:Drivers/CMSIS/Include/core_cm7.h ****   __IM  uint32_t PID5;                   /*!< Offset: 0xFD4 (R/ )  ITM Peripheral Identification Re
1037:Drivers/CMSIS/Include/core_cm7.h ****   __IM  uint32_t PID6;                   /*!< Offset: 0xFD8 (R/ )  ITM Peripheral Identification Re
1038:Drivers/CMSIS/Include/core_cm7.h ****   __IM  uint32_t PID7;                   /*!< Offset: 0xFDC (R/ )  ITM Peripheral Identification Re
1039:Drivers/CMSIS/Include/core_cm7.h ****   __IM  uint32_t PID0;                   /*!< Offset: 0xFE0 (R/ )  ITM Peripheral Identification Re
1040:Drivers/CMSIS/Include/core_cm7.h ****   __IM  uint32_t PID1;                   /*!< Offset: 0xFE4 (R/ )  ITM Peripheral Identification Re
ARM GAS  C:\Users\Haruka\AppData\Local\Temp\ccgT5NLw.s 			page 55


1041:Drivers/CMSIS/Include/core_cm7.h ****   __IM  uint32_t PID2;                   /*!< Offset: 0xFE8 (R/ )  ITM Peripheral Identification Re
1042:Drivers/CMSIS/Include/core_cm7.h ****   __IM  uint32_t PID3;                   /*!< Offset: 0xFEC (R/ )  ITM Peripheral Identification Re
1043:Drivers/CMSIS/Include/core_cm7.h ****   __IM  uint32_t CID0;                   /*!< Offset: 0xFF0 (R/ )  ITM Component  Identification Re
1044:Drivers/CMSIS/Include/core_cm7.h ****   __IM  uint32_t CID1;                   /*!< Offset: 0xFF4 (R/ )  ITM Component  Identification Re
1045:Drivers/CMSIS/Include/core_cm7.h ****   __IM  uint32_t CID2;                   /*!< Offset: 0xFF8 (R/ )  ITM Component  Identification Re
1046:Drivers/CMSIS/Include/core_cm7.h ****   __IM  uint32_t CID3;                   /*!< Offset: 0xFFC (R/ )  ITM Component  Identification Re
1047:Drivers/CMSIS/Include/core_cm7.h **** } ITM_Type;
1048:Drivers/CMSIS/Include/core_cm7.h **** 
1049:Drivers/CMSIS/Include/core_cm7.h **** /* ITM Trace Privilege Register Definitions */
1050:Drivers/CMSIS/Include/core_cm7.h **** #define ITM_TPR_PRIVMASK_Pos                0U                                            /*!< ITM 
1051:Drivers/CMSIS/Include/core_cm7.h **** #define ITM_TPR_PRIVMASK_Msk               (0xFFFFFFFFUL /*<< ITM_TPR_PRIVMASK_Pos*/)     /*!< ITM 
1052:Drivers/CMSIS/Include/core_cm7.h **** 
1053:Drivers/CMSIS/Include/core_cm7.h **** /* ITM Trace Control Register Definitions */
1054:Drivers/CMSIS/Include/core_cm7.h **** #define ITM_TCR_BUSY_Pos                   23U                                            /*!< ITM 
1055:Drivers/CMSIS/Include/core_cm7.h **** #define ITM_TCR_BUSY_Msk                   (1UL << ITM_TCR_BUSY_Pos)                      /*!< ITM 
1056:Drivers/CMSIS/Include/core_cm7.h **** 
1057:Drivers/CMSIS/Include/core_cm7.h **** #define ITM_TCR_TraceBusID_Pos             16U                                            /*!< ITM 
1058:Drivers/CMSIS/Include/core_cm7.h **** #define ITM_TCR_TraceBusID_Msk             (0x7FUL << ITM_TCR_TraceBusID_Pos)             /*!< ITM 
1059:Drivers/CMSIS/Include/core_cm7.h **** 
1060:Drivers/CMSIS/Include/core_cm7.h **** #define ITM_TCR_GTSFREQ_Pos                10U                                            /*!< ITM 
1061:Drivers/CMSIS/Include/core_cm7.h **** #define ITM_TCR_GTSFREQ_Msk                (3UL << ITM_TCR_GTSFREQ_Pos)                   /*!< ITM 
1062:Drivers/CMSIS/Include/core_cm7.h **** 
1063:Drivers/CMSIS/Include/core_cm7.h **** #define ITM_TCR_TSPrescale_Pos              8U                                            /*!< ITM 
1064:Drivers/CMSIS/Include/core_cm7.h **** #define ITM_TCR_TSPrescale_Msk             (3UL << ITM_TCR_TSPrescale_Pos)                /*!< ITM 
1065:Drivers/CMSIS/Include/core_cm7.h **** 
1066:Drivers/CMSIS/Include/core_cm7.h **** #define ITM_TCR_SWOENA_Pos                  4U                                            /*!< ITM 
1067:Drivers/CMSIS/Include/core_cm7.h **** #define ITM_TCR_SWOENA_Msk                 (1UL << ITM_TCR_SWOENA_Pos)                    /*!< ITM 
1068:Drivers/CMSIS/Include/core_cm7.h **** 
1069:Drivers/CMSIS/Include/core_cm7.h **** #define ITM_TCR_DWTENA_Pos                  3U                                            /*!< ITM 
1070:Drivers/CMSIS/Include/core_cm7.h **** #define ITM_TCR_DWTENA_Msk                 (1UL << ITM_TCR_DWTENA_Pos)                    /*!< ITM 
1071:Drivers/CMSIS/Include/core_cm7.h **** 
1072:Drivers/CMSIS/Include/core_cm7.h **** #define ITM_TCR_SYNCENA_Pos                 2U                                            /*!< ITM 
1073:Drivers/CMSIS/Include/core_cm7.h **** #define ITM_TCR_SYNCENA_Msk                (1UL << ITM_TCR_SYNCENA_Pos)                   /*!< ITM 
1074:Drivers/CMSIS/Include/core_cm7.h **** 
1075:Drivers/CMSIS/Include/core_cm7.h **** #define ITM_TCR_TSENA_Pos                   1U                                            /*!< ITM 
1076:Drivers/CMSIS/Include/core_cm7.h **** #define ITM_TCR_TSENA_Msk                  (1UL << ITM_TCR_TSENA_Pos)                     /*!< ITM 
1077:Drivers/CMSIS/Include/core_cm7.h **** 
1078:Drivers/CMSIS/Include/core_cm7.h **** #define ITM_TCR_ITMENA_Pos                  0U                                            /*!< ITM 
1079:Drivers/CMSIS/Include/core_cm7.h **** #define ITM_TCR_ITMENA_Msk                 (1UL /*<< ITM_TCR_ITMENA_Pos*/)                /*!< ITM 
1080:Drivers/CMSIS/Include/core_cm7.h **** 
1081:Drivers/CMSIS/Include/core_cm7.h **** /* ITM Integration Write Register Definitions */
1082:Drivers/CMSIS/Include/core_cm7.h **** #define ITM_IWR_ATVALIDM_Pos                0U                                            /*!< ITM 
1083:Drivers/CMSIS/Include/core_cm7.h **** #define ITM_IWR_ATVALIDM_Msk               (1UL /*<< ITM_IWR_ATVALIDM_Pos*/)              /*!< ITM 
1084:Drivers/CMSIS/Include/core_cm7.h **** 
1085:Drivers/CMSIS/Include/core_cm7.h **** /* ITM Integration Read Register Definitions */
1086:Drivers/CMSIS/Include/core_cm7.h **** #define ITM_IRR_ATREADYM_Pos                0U                                            /*!< ITM 
1087:Drivers/CMSIS/Include/core_cm7.h **** #define ITM_IRR_ATREADYM_Msk               (1UL /*<< ITM_IRR_ATREADYM_Pos*/)              /*!< ITM 
1088:Drivers/CMSIS/Include/core_cm7.h **** 
1089:Drivers/CMSIS/Include/core_cm7.h **** /* ITM Integration Mode Control Register Definitions */
1090:Drivers/CMSIS/Include/core_cm7.h **** #define ITM_IMCR_INTEGRATION_Pos            0U                                            /*!< ITM 
1091:Drivers/CMSIS/Include/core_cm7.h **** #define ITM_IMCR_INTEGRATION_Msk           (1UL /*<< ITM_IMCR_INTEGRATION_Pos*/)          /*!< ITM 
1092:Drivers/CMSIS/Include/core_cm7.h **** 
1093:Drivers/CMSIS/Include/core_cm7.h **** /* ITM Lock Status Register Definitions */
1094:Drivers/CMSIS/Include/core_cm7.h **** #define ITM_LSR_ByteAcc_Pos                 2U                                            /*!< ITM 
1095:Drivers/CMSIS/Include/core_cm7.h **** #define ITM_LSR_ByteAcc_Msk                (1UL << ITM_LSR_ByteAcc_Pos)                   /*!< ITM 
1096:Drivers/CMSIS/Include/core_cm7.h **** 
1097:Drivers/CMSIS/Include/core_cm7.h **** #define ITM_LSR_Access_Pos                  1U                                            /*!< ITM 
ARM GAS  C:\Users\Haruka\AppData\Local\Temp\ccgT5NLw.s 			page 56


1098:Drivers/CMSIS/Include/core_cm7.h **** #define ITM_LSR_Access_Msk                 (1UL << ITM_LSR_Access_Pos)                    /*!< ITM 
1099:Drivers/CMSIS/Include/core_cm7.h **** 
1100:Drivers/CMSIS/Include/core_cm7.h **** #define ITM_LSR_Present_Pos                 0U                                            /*!< ITM 
1101:Drivers/CMSIS/Include/core_cm7.h **** #define ITM_LSR_Present_Msk                (1UL /*<< ITM_LSR_Present_Pos*/)               /*!< ITM 
1102:Drivers/CMSIS/Include/core_cm7.h **** 
1103:Drivers/CMSIS/Include/core_cm7.h **** /*@}*/ /* end of group CMSIS_ITM */
1104:Drivers/CMSIS/Include/core_cm7.h **** 
1105:Drivers/CMSIS/Include/core_cm7.h **** 
1106:Drivers/CMSIS/Include/core_cm7.h **** /**
1107:Drivers/CMSIS/Include/core_cm7.h ****   \ingroup  CMSIS_core_register
1108:Drivers/CMSIS/Include/core_cm7.h ****   \defgroup CMSIS_DWT     Data Watchpoint and Trace (DWT)
1109:Drivers/CMSIS/Include/core_cm7.h ****   \brief    Type definitions for the Data Watchpoint and Trace (DWT)
1110:Drivers/CMSIS/Include/core_cm7.h ****   @{
1111:Drivers/CMSIS/Include/core_cm7.h ****  */
1112:Drivers/CMSIS/Include/core_cm7.h **** 
1113:Drivers/CMSIS/Include/core_cm7.h **** /**
1114:Drivers/CMSIS/Include/core_cm7.h ****   \brief  Structure type to access the Data Watchpoint and Trace Register (DWT).
1115:Drivers/CMSIS/Include/core_cm7.h ****  */
1116:Drivers/CMSIS/Include/core_cm7.h **** typedef struct
1117:Drivers/CMSIS/Include/core_cm7.h **** {
1118:Drivers/CMSIS/Include/core_cm7.h ****   __IOM uint32_t CTRL;                   /*!< Offset: 0x000 (R/W)  Control Register */
1119:Drivers/CMSIS/Include/core_cm7.h ****   __IOM uint32_t CYCCNT;                 /*!< Offset: 0x004 (R/W)  Cycle Count Register */
1120:Drivers/CMSIS/Include/core_cm7.h ****   __IOM uint32_t CPICNT;                 /*!< Offset: 0x008 (R/W)  CPI Count Register */
1121:Drivers/CMSIS/Include/core_cm7.h ****   __IOM uint32_t EXCCNT;                 /*!< Offset: 0x00C (R/W)  Exception Overhead Count Registe
1122:Drivers/CMSIS/Include/core_cm7.h ****   __IOM uint32_t SLEEPCNT;               /*!< Offset: 0x010 (R/W)  Sleep Count Register */
1123:Drivers/CMSIS/Include/core_cm7.h ****   __IOM uint32_t LSUCNT;                 /*!< Offset: 0x014 (R/W)  LSU Count Register */
1124:Drivers/CMSIS/Include/core_cm7.h ****   __IOM uint32_t FOLDCNT;                /*!< Offset: 0x018 (R/W)  Folded-instruction Count Registe
1125:Drivers/CMSIS/Include/core_cm7.h ****   __IM  uint32_t PCSR;                   /*!< Offset: 0x01C (R/ )  Program Counter Sample Register 
1126:Drivers/CMSIS/Include/core_cm7.h ****   __IOM uint32_t COMP0;                  /*!< Offset: 0x020 (R/W)  Comparator Register 0 */
1127:Drivers/CMSIS/Include/core_cm7.h ****   __IOM uint32_t MASK0;                  /*!< Offset: 0x024 (R/W)  Mask Register 0 */
1128:Drivers/CMSIS/Include/core_cm7.h ****   __IOM uint32_t FUNCTION0;              /*!< Offset: 0x028 (R/W)  Function Register 0 */
1129:Drivers/CMSIS/Include/core_cm7.h ****         uint32_t RESERVED0[1U];
1130:Drivers/CMSIS/Include/core_cm7.h ****   __IOM uint32_t COMP1;                  /*!< Offset: 0x030 (R/W)  Comparator Register 1 */
1131:Drivers/CMSIS/Include/core_cm7.h ****   __IOM uint32_t MASK1;                  /*!< Offset: 0x034 (R/W)  Mask Register 1 */
1132:Drivers/CMSIS/Include/core_cm7.h ****   __IOM uint32_t FUNCTION1;              /*!< Offset: 0x038 (R/W)  Function Register 1 */
1133:Drivers/CMSIS/Include/core_cm7.h ****         uint32_t RESERVED1[1U];
1134:Drivers/CMSIS/Include/core_cm7.h ****   __IOM uint32_t COMP2;                  /*!< Offset: 0x040 (R/W)  Comparator Register 2 */
1135:Drivers/CMSIS/Include/core_cm7.h ****   __IOM uint32_t MASK2;                  /*!< Offset: 0x044 (R/W)  Mask Register 2 */
1136:Drivers/CMSIS/Include/core_cm7.h ****   __IOM uint32_t FUNCTION2;              /*!< Offset: 0x048 (R/W)  Function Register 2 */
1137:Drivers/CMSIS/Include/core_cm7.h ****         uint32_t RESERVED2[1U];
1138:Drivers/CMSIS/Include/core_cm7.h ****   __IOM uint32_t COMP3;                  /*!< Offset: 0x050 (R/W)  Comparator Register 3 */
1139:Drivers/CMSIS/Include/core_cm7.h ****   __IOM uint32_t MASK3;                  /*!< Offset: 0x054 (R/W)  Mask Register 3 */
1140:Drivers/CMSIS/Include/core_cm7.h ****   __IOM uint32_t FUNCTION3;              /*!< Offset: 0x058 (R/W)  Function Register 3 */
1141:Drivers/CMSIS/Include/core_cm7.h ****         uint32_t RESERVED3[981U];
1142:Drivers/CMSIS/Include/core_cm7.h ****   __OM  uint32_t LAR;                    /*!< Offset: 0xFB0 (  W)  Lock Access Register */
1143:Drivers/CMSIS/Include/core_cm7.h ****   __IM  uint32_t LSR;                    /*!< Offset: 0xFB4 (R  )  Lock Status Register */
1144:Drivers/CMSIS/Include/core_cm7.h **** } DWT_Type;
1145:Drivers/CMSIS/Include/core_cm7.h **** 
1146:Drivers/CMSIS/Include/core_cm7.h **** /* DWT Control Register Definitions */
1147:Drivers/CMSIS/Include/core_cm7.h **** #define DWT_CTRL_NUMCOMP_Pos               28U                                         /*!< DWT CTR
1148:Drivers/CMSIS/Include/core_cm7.h **** #define DWT_CTRL_NUMCOMP_Msk               (0xFUL << DWT_CTRL_NUMCOMP_Pos)             /*!< DWT CTR
1149:Drivers/CMSIS/Include/core_cm7.h **** 
1150:Drivers/CMSIS/Include/core_cm7.h **** #define DWT_CTRL_NOTRCPKT_Pos              27U                                         /*!< DWT CTR
1151:Drivers/CMSIS/Include/core_cm7.h **** #define DWT_CTRL_NOTRCPKT_Msk              (0x1UL << DWT_CTRL_NOTRCPKT_Pos)            /*!< DWT CTR
1152:Drivers/CMSIS/Include/core_cm7.h **** 
1153:Drivers/CMSIS/Include/core_cm7.h **** #define DWT_CTRL_NOEXTTRIG_Pos             26U                                         /*!< DWT CTR
1154:Drivers/CMSIS/Include/core_cm7.h **** #define DWT_CTRL_NOEXTTRIG_Msk             (0x1UL << DWT_CTRL_NOEXTTRIG_Pos)           /*!< DWT CTR
ARM GAS  C:\Users\Haruka\AppData\Local\Temp\ccgT5NLw.s 			page 57


1155:Drivers/CMSIS/Include/core_cm7.h **** 
1156:Drivers/CMSIS/Include/core_cm7.h **** #define DWT_CTRL_NOCYCCNT_Pos              25U                                         /*!< DWT CTR
1157:Drivers/CMSIS/Include/core_cm7.h **** #define DWT_CTRL_NOCYCCNT_Msk              (0x1UL << DWT_CTRL_NOCYCCNT_Pos)            /*!< DWT CTR
1158:Drivers/CMSIS/Include/core_cm7.h **** 
1159:Drivers/CMSIS/Include/core_cm7.h **** #define DWT_CTRL_NOPRFCNT_Pos              24U                                         /*!< DWT CTR
1160:Drivers/CMSIS/Include/core_cm7.h **** #define DWT_CTRL_NOPRFCNT_Msk              (0x1UL << DWT_CTRL_NOPRFCNT_Pos)            /*!< DWT CTR
1161:Drivers/CMSIS/Include/core_cm7.h **** 
1162:Drivers/CMSIS/Include/core_cm7.h **** #define DWT_CTRL_CYCEVTENA_Pos             22U                                         /*!< DWT CTR
1163:Drivers/CMSIS/Include/core_cm7.h **** #define DWT_CTRL_CYCEVTENA_Msk             (0x1UL << DWT_CTRL_CYCEVTENA_Pos)           /*!< DWT CTR
1164:Drivers/CMSIS/Include/core_cm7.h **** 
1165:Drivers/CMSIS/Include/core_cm7.h **** #define DWT_CTRL_FOLDEVTENA_Pos            21U                                         /*!< DWT CTR
1166:Drivers/CMSIS/Include/core_cm7.h **** #define DWT_CTRL_FOLDEVTENA_Msk            (0x1UL << DWT_CTRL_FOLDEVTENA_Pos)          /*!< DWT CTR
1167:Drivers/CMSIS/Include/core_cm7.h **** 
1168:Drivers/CMSIS/Include/core_cm7.h **** #define DWT_CTRL_LSUEVTENA_Pos             20U                                         /*!< DWT CTR
1169:Drivers/CMSIS/Include/core_cm7.h **** #define DWT_CTRL_LSUEVTENA_Msk             (0x1UL << DWT_CTRL_LSUEVTENA_Pos)           /*!< DWT CTR
1170:Drivers/CMSIS/Include/core_cm7.h **** 
1171:Drivers/CMSIS/Include/core_cm7.h **** #define DWT_CTRL_SLEEPEVTENA_Pos           19U                                         /*!< DWT CTR
1172:Drivers/CMSIS/Include/core_cm7.h **** #define DWT_CTRL_SLEEPEVTENA_Msk           (0x1UL << DWT_CTRL_SLEEPEVTENA_Pos)         /*!< DWT CTR
1173:Drivers/CMSIS/Include/core_cm7.h **** 
1174:Drivers/CMSIS/Include/core_cm7.h **** #define DWT_CTRL_EXCEVTENA_Pos             18U                                         /*!< DWT CTR
1175:Drivers/CMSIS/Include/core_cm7.h **** #define DWT_CTRL_EXCEVTENA_Msk             (0x1UL << DWT_CTRL_EXCEVTENA_Pos)           /*!< DWT CTR
1176:Drivers/CMSIS/Include/core_cm7.h **** 
1177:Drivers/CMSIS/Include/core_cm7.h **** #define DWT_CTRL_CPIEVTENA_Pos             17U                                         /*!< DWT CTR
1178:Drivers/CMSIS/Include/core_cm7.h **** #define DWT_CTRL_CPIEVTENA_Msk             (0x1UL << DWT_CTRL_CPIEVTENA_Pos)           /*!< DWT CTR
1179:Drivers/CMSIS/Include/core_cm7.h **** 
1180:Drivers/CMSIS/Include/core_cm7.h **** #define DWT_CTRL_EXCTRCENA_Pos             16U                                         /*!< DWT CTR
1181:Drivers/CMSIS/Include/core_cm7.h **** #define DWT_CTRL_EXCTRCENA_Msk             (0x1UL << DWT_CTRL_EXCTRCENA_Pos)           /*!< DWT CTR
1182:Drivers/CMSIS/Include/core_cm7.h **** 
1183:Drivers/CMSIS/Include/core_cm7.h **** #define DWT_CTRL_PCSAMPLENA_Pos            12U                                         /*!< DWT CTR
1184:Drivers/CMSIS/Include/core_cm7.h **** #define DWT_CTRL_PCSAMPLENA_Msk            (0x1UL << DWT_CTRL_PCSAMPLENA_Pos)          /*!< DWT CTR
1185:Drivers/CMSIS/Include/core_cm7.h **** 
1186:Drivers/CMSIS/Include/core_cm7.h **** #define DWT_CTRL_SYNCTAP_Pos               10U                                         /*!< DWT CTR
1187:Drivers/CMSIS/Include/core_cm7.h **** #define DWT_CTRL_SYNCTAP_Msk               (0x3UL << DWT_CTRL_SYNCTAP_Pos)             /*!< DWT CTR
1188:Drivers/CMSIS/Include/core_cm7.h **** 
1189:Drivers/CMSIS/Include/core_cm7.h **** #define DWT_CTRL_CYCTAP_Pos                 9U                                         /*!< DWT CTR
1190:Drivers/CMSIS/Include/core_cm7.h **** #define DWT_CTRL_CYCTAP_Msk                (0x1UL << DWT_CTRL_CYCTAP_Pos)              /*!< DWT CTR
1191:Drivers/CMSIS/Include/core_cm7.h **** 
1192:Drivers/CMSIS/Include/core_cm7.h **** #define DWT_CTRL_POSTINIT_Pos               5U                                         /*!< DWT CTR
1193:Drivers/CMSIS/Include/core_cm7.h **** #define DWT_CTRL_POSTINIT_Msk              (0xFUL << DWT_CTRL_POSTINIT_Pos)            /*!< DWT CTR
1194:Drivers/CMSIS/Include/core_cm7.h **** 
1195:Drivers/CMSIS/Include/core_cm7.h **** #define DWT_CTRL_POSTPRESET_Pos             1U                                         /*!< DWT CTR
1196:Drivers/CMSIS/Include/core_cm7.h **** #define DWT_CTRL_POSTPRESET_Msk            (0xFUL << DWT_CTRL_POSTPRESET_Pos)          /*!< DWT CTR
1197:Drivers/CMSIS/Include/core_cm7.h **** 
1198:Drivers/CMSIS/Include/core_cm7.h **** #define DWT_CTRL_CYCCNTENA_Pos              0U                                         /*!< DWT CTR
1199:Drivers/CMSIS/Include/core_cm7.h **** #define DWT_CTRL_CYCCNTENA_Msk             (0x1UL /*<< DWT_CTRL_CYCCNTENA_Pos*/)       /*!< DWT CTR
1200:Drivers/CMSIS/Include/core_cm7.h **** 
1201:Drivers/CMSIS/Include/core_cm7.h **** /* DWT CPI Count Register Definitions */
1202:Drivers/CMSIS/Include/core_cm7.h **** #define DWT_CPICNT_CPICNT_Pos               0U                                         /*!< DWT CPI
1203:Drivers/CMSIS/Include/core_cm7.h **** #define DWT_CPICNT_CPICNT_Msk              (0xFFUL /*<< DWT_CPICNT_CPICNT_Pos*/)       /*!< DWT CPI
1204:Drivers/CMSIS/Include/core_cm7.h **** 
1205:Drivers/CMSIS/Include/core_cm7.h **** /* DWT Exception Overhead Count Register Definitions */
1206:Drivers/CMSIS/Include/core_cm7.h **** #define DWT_EXCCNT_EXCCNT_Pos               0U                                         /*!< DWT EXC
1207:Drivers/CMSIS/Include/core_cm7.h **** #define DWT_EXCCNT_EXCCNT_Msk              (0xFFUL /*<< DWT_EXCCNT_EXCCNT_Pos*/)       /*!< DWT EXC
1208:Drivers/CMSIS/Include/core_cm7.h **** 
1209:Drivers/CMSIS/Include/core_cm7.h **** /* DWT Sleep Count Register Definitions */
1210:Drivers/CMSIS/Include/core_cm7.h **** #define DWT_SLEEPCNT_SLEEPCNT_Pos           0U                                         /*!< DWT SLE
1211:Drivers/CMSIS/Include/core_cm7.h **** #define DWT_SLEEPCNT_SLEEPCNT_Msk          (0xFFUL /*<< DWT_SLEEPCNT_SLEEPCNT_Pos*/)   /*!< DWT SLE
ARM GAS  C:\Users\Haruka\AppData\Local\Temp\ccgT5NLw.s 			page 58


1212:Drivers/CMSIS/Include/core_cm7.h **** 
1213:Drivers/CMSIS/Include/core_cm7.h **** /* DWT LSU Count Register Definitions */
1214:Drivers/CMSIS/Include/core_cm7.h **** #define DWT_LSUCNT_LSUCNT_Pos               0U                                         /*!< DWT LSU
1215:Drivers/CMSIS/Include/core_cm7.h **** #define DWT_LSUCNT_LSUCNT_Msk              (0xFFUL /*<< DWT_LSUCNT_LSUCNT_Pos*/)       /*!< DWT LSU
1216:Drivers/CMSIS/Include/core_cm7.h **** 
1217:Drivers/CMSIS/Include/core_cm7.h **** /* DWT Folded-instruction Count Register Definitions */
1218:Drivers/CMSIS/Include/core_cm7.h **** #define DWT_FOLDCNT_FOLDCNT_Pos             0U                                         /*!< DWT FOL
1219:Drivers/CMSIS/Include/core_cm7.h **** #define DWT_FOLDCNT_FOLDCNT_Msk            (0xFFUL /*<< DWT_FOLDCNT_FOLDCNT_Pos*/)     /*!< DWT FOL
1220:Drivers/CMSIS/Include/core_cm7.h **** 
1221:Drivers/CMSIS/Include/core_cm7.h **** /* DWT Comparator Mask Register Definitions */
1222:Drivers/CMSIS/Include/core_cm7.h **** #define DWT_MASK_MASK_Pos                   0U                                         /*!< DWT MAS
1223:Drivers/CMSIS/Include/core_cm7.h **** #define DWT_MASK_MASK_Msk                  (0x1FUL /*<< DWT_MASK_MASK_Pos*/)           /*!< DWT MAS
1224:Drivers/CMSIS/Include/core_cm7.h **** 
1225:Drivers/CMSIS/Include/core_cm7.h **** /* DWT Comparator Function Register Definitions */
1226:Drivers/CMSIS/Include/core_cm7.h **** #define DWT_FUNCTION_MATCHED_Pos           24U                                         /*!< DWT FUN
1227:Drivers/CMSIS/Include/core_cm7.h **** #define DWT_FUNCTION_MATCHED_Msk           (0x1UL << DWT_FUNCTION_MATCHED_Pos)         /*!< DWT FUN
1228:Drivers/CMSIS/Include/core_cm7.h **** 
1229:Drivers/CMSIS/Include/core_cm7.h **** #define DWT_FUNCTION_DATAVADDR1_Pos        16U                                         /*!< DWT FUN
1230:Drivers/CMSIS/Include/core_cm7.h **** #define DWT_FUNCTION_DATAVADDR1_Msk        (0xFUL << DWT_FUNCTION_DATAVADDR1_Pos)      /*!< DWT FUN
1231:Drivers/CMSIS/Include/core_cm7.h **** 
1232:Drivers/CMSIS/Include/core_cm7.h **** #define DWT_FUNCTION_DATAVADDR0_Pos        12U                                         /*!< DWT FUN
1233:Drivers/CMSIS/Include/core_cm7.h **** #define DWT_FUNCTION_DATAVADDR0_Msk        (0xFUL << DWT_FUNCTION_DATAVADDR0_Pos)      /*!< DWT FUN
1234:Drivers/CMSIS/Include/core_cm7.h **** 
1235:Drivers/CMSIS/Include/core_cm7.h **** #define DWT_FUNCTION_DATAVSIZE_Pos         10U                                         /*!< DWT FUN
1236:Drivers/CMSIS/Include/core_cm7.h **** #define DWT_FUNCTION_DATAVSIZE_Msk         (0x3UL << DWT_FUNCTION_DATAVSIZE_Pos)       /*!< DWT FUN
1237:Drivers/CMSIS/Include/core_cm7.h **** 
1238:Drivers/CMSIS/Include/core_cm7.h **** #define DWT_FUNCTION_LNK1ENA_Pos            9U                                         /*!< DWT FUN
1239:Drivers/CMSIS/Include/core_cm7.h **** #define DWT_FUNCTION_LNK1ENA_Msk           (0x1UL << DWT_FUNCTION_LNK1ENA_Pos)         /*!< DWT FUN
1240:Drivers/CMSIS/Include/core_cm7.h **** 
1241:Drivers/CMSIS/Include/core_cm7.h **** #define DWT_FUNCTION_DATAVMATCH_Pos         8U                                         /*!< DWT FUN
1242:Drivers/CMSIS/Include/core_cm7.h **** #define DWT_FUNCTION_DATAVMATCH_Msk        (0x1UL << DWT_FUNCTION_DATAVMATCH_Pos)      /*!< DWT FUN
1243:Drivers/CMSIS/Include/core_cm7.h **** 
1244:Drivers/CMSIS/Include/core_cm7.h **** #define DWT_FUNCTION_CYCMATCH_Pos           7U                                         /*!< DWT FUN
1245:Drivers/CMSIS/Include/core_cm7.h **** #define DWT_FUNCTION_CYCMATCH_Msk          (0x1UL << DWT_FUNCTION_CYCMATCH_Pos)        /*!< DWT FUN
1246:Drivers/CMSIS/Include/core_cm7.h **** 
1247:Drivers/CMSIS/Include/core_cm7.h **** #define DWT_FUNCTION_EMITRANGE_Pos          5U                                         /*!< DWT FUN
1248:Drivers/CMSIS/Include/core_cm7.h **** #define DWT_FUNCTION_EMITRANGE_Msk         (0x1UL << DWT_FUNCTION_EMITRANGE_Pos)       /*!< DWT FUN
1249:Drivers/CMSIS/Include/core_cm7.h **** 
1250:Drivers/CMSIS/Include/core_cm7.h **** #define DWT_FUNCTION_FUNCTION_Pos           0U                                         /*!< DWT FUN
1251:Drivers/CMSIS/Include/core_cm7.h **** #define DWT_FUNCTION_FUNCTION_Msk          (0xFUL /*<< DWT_FUNCTION_FUNCTION_Pos*/)    /*!< DWT FUN
1252:Drivers/CMSIS/Include/core_cm7.h **** 
1253:Drivers/CMSIS/Include/core_cm7.h **** /*@}*/ /* end of group CMSIS_DWT */
1254:Drivers/CMSIS/Include/core_cm7.h **** 
1255:Drivers/CMSIS/Include/core_cm7.h **** 
1256:Drivers/CMSIS/Include/core_cm7.h **** /**
1257:Drivers/CMSIS/Include/core_cm7.h ****   \ingroup  CMSIS_core_register
1258:Drivers/CMSIS/Include/core_cm7.h ****   \defgroup CMSIS_TPI     Trace Port Interface (TPI)
1259:Drivers/CMSIS/Include/core_cm7.h ****   \brief    Type definitions for the Trace Port Interface (TPI)
1260:Drivers/CMSIS/Include/core_cm7.h ****   @{
1261:Drivers/CMSIS/Include/core_cm7.h ****  */
1262:Drivers/CMSIS/Include/core_cm7.h **** 
1263:Drivers/CMSIS/Include/core_cm7.h **** /**
1264:Drivers/CMSIS/Include/core_cm7.h ****   \brief  Structure type to access the Trace Port Interface Register (TPI).
1265:Drivers/CMSIS/Include/core_cm7.h ****  */
1266:Drivers/CMSIS/Include/core_cm7.h **** typedef struct
1267:Drivers/CMSIS/Include/core_cm7.h **** {
1268:Drivers/CMSIS/Include/core_cm7.h ****   __IM  uint32_t SSPSR;                  /*!< Offset: 0x000 (R/ )  Supported Parallel Port Size Reg
ARM GAS  C:\Users\Haruka\AppData\Local\Temp\ccgT5NLw.s 			page 59


1269:Drivers/CMSIS/Include/core_cm7.h ****   __IOM uint32_t CSPSR;                  /*!< Offset: 0x004 (R/W)  Current Parallel Port Size Regis
1270:Drivers/CMSIS/Include/core_cm7.h ****         uint32_t RESERVED0[2U];
1271:Drivers/CMSIS/Include/core_cm7.h ****   __IOM uint32_t ACPR;                   /*!< Offset: 0x010 (R/W)  Asynchronous Clock Prescaler Reg
1272:Drivers/CMSIS/Include/core_cm7.h ****         uint32_t RESERVED1[55U];
1273:Drivers/CMSIS/Include/core_cm7.h ****   __IOM uint32_t SPPR;                   /*!< Offset: 0x0F0 (R/W)  Selected Pin Protocol Register *
1274:Drivers/CMSIS/Include/core_cm7.h ****         uint32_t RESERVED2[131U];
1275:Drivers/CMSIS/Include/core_cm7.h ****   __IM  uint32_t FFSR;                   /*!< Offset: 0x300 (R/ )  Formatter and Flush Status Regis
1276:Drivers/CMSIS/Include/core_cm7.h ****   __IOM uint32_t FFCR;                   /*!< Offset: 0x304 (R/W)  Formatter and Flush Control Regi
1277:Drivers/CMSIS/Include/core_cm7.h ****   __IM  uint32_t FSCR;                   /*!< Offset: 0x308 (R/ )  Formatter Synchronization Counte
1278:Drivers/CMSIS/Include/core_cm7.h ****         uint32_t RESERVED3[759U];
1279:Drivers/CMSIS/Include/core_cm7.h ****   __IM  uint32_t TRIGGER;                /*!< Offset: 0xEE8 (R/ )  TRIGGER Register */
1280:Drivers/CMSIS/Include/core_cm7.h ****   __IM  uint32_t FIFO0;                  /*!< Offset: 0xEEC (R/ )  Integration ETM Data */
1281:Drivers/CMSIS/Include/core_cm7.h ****   __IM  uint32_t ITATBCTR2;              /*!< Offset: 0xEF0 (R/ )  ITATBCTR2 */
1282:Drivers/CMSIS/Include/core_cm7.h ****         uint32_t RESERVED4[1U];
1283:Drivers/CMSIS/Include/core_cm7.h ****   __IM  uint32_t ITATBCTR0;              /*!< Offset: 0xEF8 (R/ )  ITATBCTR0 */
1284:Drivers/CMSIS/Include/core_cm7.h ****   __IM  uint32_t FIFO1;                  /*!< Offset: 0xEFC (R/ )  Integration ITM Data */
1285:Drivers/CMSIS/Include/core_cm7.h ****   __IOM uint32_t ITCTRL;                 /*!< Offset: 0xF00 (R/W)  Integration Mode Control */
1286:Drivers/CMSIS/Include/core_cm7.h ****         uint32_t RESERVED5[39U];
1287:Drivers/CMSIS/Include/core_cm7.h ****   __IOM uint32_t CLAIMSET;               /*!< Offset: 0xFA0 (R/W)  Claim tag set */
1288:Drivers/CMSIS/Include/core_cm7.h ****   __IOM uint32_t CLAIMCLR;               /*!< Offset: 0xFA4 (R/W)  Claim tag clear */
1289:Drivers/CMSIS/Include/core_cm7.h ****         uint32_t RESERVED7[8U];
1290:Drivers/CMSIS/Include/core_cm7.h ****   __IM  uint32_t DEVID;                  /*!< Offset: 0xFC8 (R/ )  TPIU_DEVID */
1291:Drivers/CMSIS/Include/core_cm7.h ****   __IM  uint32_t DEVTYPE;                /*!< Offset: 0xFCC (R/ )  TPIU_DEVTYPE */
1292:Drivers/CMSIS/Include/core_cm7.h **** } TPI_Type;
1293:Drivers/CMSIS/Include/core_cm7.h **** 
1294:Drivers/CMSIS/Include/core_cm7.h **** /* TPI Asynchronous Clock Prescaler Register Definitions */
1295:Drivers/CMSIS/Include/core_cm7.h **** #define TPI_ACPR_PRESCALER_Pos              0U                                         /*!< TPI ACP
1296:Drivers/CMSIS/Include/core_cm7.h **** #define TPI_ACPR_PRESCALER_Msk             (0x1FFFUL /*<< TPI_ACPR_PRESCALER_Pos*/)    /*!< TPI ACP
1297:Drivers/CMSIS/Include/core_cm7.h **** 
1298:Drivers/CMSIS/Include/core_cm7.h **** /* TPI Selected Pin Protocol Register Definitions */
1299:Drivers/CMSIS/Include/core_cm7.h **** #define TPI_SPPR_TXMODE_Pos                 0U                                         /*!< TPI SPP
1300:Drivers/CMSIS/Include/core_cm7.h **** #define TPI_SPPR_TXMODE_Msk                (0x3UL /*<< TPI_SPPR_TXMODE_Pos*/)          /*!< TPI SPP
1301:Drivers/CMSIS/Include/core_cm7.h **** 
1302:Drivers/CMSIS/Include/core_cm7.h **** /* TPI Formatter and Flush Status Register Definitions */
1303:Drivers/CMSIS/Include/core_cm7.h **** #define TPI_FFSR_FtNonStop_Pos              3U                                         /*!< TPI FFS
1304:Drivers/CMSIS/Include/core_cm7.h **** #define TPI_FFSR_FtNonStop_Msk             (0x1UL << TPI_FFSR_FtNonStop_Pos)           /*!< TPI FFS
1305:Drivers/CMSIS/Include/core_cm7.h **** 
1306:Drivers/CMSIS/Include/core_cm7.h **** #define TPI_FFSR_TCPresent_Pos              2U                                         /*!< TPI FFS
1307:Drivers/CMSIS/Include/core_cm7.h **** #define TPI_FFSR_TCPresent_Msk             (0x1UL << TPI_FFSR_TCPresent_Pos)           /*!< TPI FFS
1308:Drivers/CMSIS/Include/core_cm7.h **** 
1309:Drivers/CMSIS/Include/core_cm7.h **** #define TPI_FFSR_FtStopped_Pos              1U                                         /*!< TPI FFS
1310:Drivers/CMSIS/Include/core_cm7.h **** #define TPI_FFSR_FtStopped_Msk             (0x1UL << TPI_FFSR_FtStopped_Pos)           /*!< TPI FFS
1311:Drivers/CMSIS/Include/core_cm7.h **** 
1312:Drivers/CMSIS/Include/core_cm7.h **** #define TPI_FFSR_FlInProg_Pos               0U                                         /*!< TPI FFS
1313:Drivers/CMSIS/Include/core_cm7.h **** #define TPI_FFSR_FlInProg_Msk              (0x1UL /*<< TPI_FFSR_FlInProg_Pos*/)        /*!< TPI FFS
1314:Drivers/CMSIS/Include/core_cm7.h **** 
1315:Drivers/CMSIS/Include/core_cm7.h **** /* TPI Formatter and Flush Control Register Definitions */
1316:Drivers/CMSIS/Include/core_cm7.h **** #define TPI_FFCR_TrigIn_Pos                 8U                                         /*!< TPI FFC
1317:Drivers/CMSIS/Include/core_cm7.h **** #define TPI_FFCR_TrigIn_Msk                (0x1UL << TPI_FFCR_TrigIn_Pos)              /*!< TPI FFC
1318:Drivers/CMSIS/Include/core_cm7.h **** 
1319:Drivers/CMSIS/Include/core_cm7.h **** #define TPI_FFCR_EnFCont_Pos                1U                                         /*!< TPI FFC
1320:Drivers/CMSIS/Include/core_cm7.h **** #define TPI_FFCR_EnFCont_Msk               (0x1UL << TPI_FFCR_EnFCont_Pos)             /*!< TPI FFC
1321:Drivers/CMSIS/Include/core_cm7.h **** 
1322:Drivers/CMSIS/Include/core_cm7.h **** /* TPI TRIGGER Register Definitions */
1323:Drivers/CMSIS/Include/core_cm7.h **** #define TPI_TRIGGER_TRIGGER_Pos             0U                                         /*!< TPI TRI
1324:Drivers/CMSIS/Include/core_cm7.h **** #define TPI_TRIGGER_TRIGGER_Msk            (0x1UL /*<< TPI_TRIGGER_TRIGGER_Pos*/)      /*!< TPI TRI
1325:Drivers/CMSIS/Include/core_cm7.h **** 
ARM GAS  C:\Users\Haruka\AppData\Local\Temp\ccgT5NLw.s 			page 60


1326:Drivers/CMSIS/Include/core_cm7.h **** /* TPI Integration ETM Data Register Definitions (FIFO0) */
1327:Drivers/CMSIS/Include/core_cm7.h **** #define TPI_FIFO0_ITM_ATVALID_Pos          29U                                         /*!< TPI FIF
1328:Drivers/CMSIS/Include/core_cm7.h **** #define TPI_FIFO0_ITM_ATVALID_Msk          (0x3UL << TPI_FIFO0_ITM_ATVALID_Pos)        /*!< TPI FIF
1329:Drivers/CMSIS/Include/core_cm7.h **** 
1330:Drivers/CMSIS/Include/core_cm7.h **** #define TPI_FIFO0_ITM_bytecount_Pos        27U                                         /*!< TPI FIF
1331:Drivers/CMSIS/Include/core_cm7.h **** #define TPI_FIFO0_ITM_bytecount_Msk        (0x3UL << TPI_FIFO0_ITM_bytecount_Pos)      /*!< TPI FIF
1332:Drivers/CMSIS/Include/core_cm7.h **** 
1333:Drivers/CMSIS/Include/core_cm7.h **** #define TPI_FIFO0_ETM_ATVALID_Pos          26U                                         /*!< TPI FIF
1334:Drivers/CMSIS/Include/core_cm7.h **** #define TPI_FIFO0_ETM_ATVALID_Msk          (0x3UL << TPI_FIFO0_ETM_ATVALID_Pos)        /*!< TPI FIF
1335:Drivers/CMSIS/Include/core_cm7.h **** 
1336:Drivers/CMSIS/Include/core_cm7.h **** #define TPI_FIFO0_ETM_bytecount_Pos        24U                                         /*!< TPI FIF
1337:Drivers/CMSIS/Include/core_cm7.h **** #define TPI_FIFO0_ETM_bytecount_Msk        (0x3UL << TPI_FIFO0_ETM_bytecount_Pos)      /*!< TPI FIF
1338:Drivers/CMSIS/Include/core_cm7.h **** 
1339:Drivers/CMSIS/Include/core_cm7.h **** #define TPI_FIFO0_ETM2_Pos                 16U                                         /*!< TPI FIF
1340:Drivers/CMSIS/Include/core_cm7.h **** #define TPI_FIFO0_ETM2_Msk                 (0xFFUL << TPI_FIFO0_ETM2_Pos)              /*!< TPI FIF
1341:Drivers/CMSIS/Include/core_cm7.h **** 
1342:Drivers/CMSIS/Include/core_cm7.h **** #define TPI_FIFO0_ETM1_Pos                  8U                                         /*!< TPI FIF
1343:Drivers/CMSIS/Include/core_cm7.h **** #define TPI_FIFO0_ETM1_Msk                 (0xFFUL << TPI_FIFO0_ETM1_Pos)              /*!< TPI FIF
1344:Drivers/CMSIS/Include/core_cm7.h **** 
1345:Drivers/CMSIS/Include/core_cm7.h **** #define TPI_FIFO0_ETM0_Pos                  0U                                         /*!< TPI FIF
1346:Drivers/CMSIS/Include/core_cm7.h **** #define TPI_FIFO0_ETM0_Msk                 (0xFFUL /*<< TPI_FIFO0_ETM0_Pos*/)          /*!< TPI FIF
1347:Drivers/CMSIS/Include/core_cm7.h **** 
1348:Drivers/CMSIS/Include/core_cm7.h **** /* TPI ITATBCTR2 Register Definitions */
1349:Drivers/CMSIS/Include/core_cm7.h **** #define TPI_ITATBCTR2_ATREADY2_Pos          0U                                         /*!< TPI ITA
1350:Drivers/CMSIS/Include/core_cm7.h **** #define TPI_ITATBCTR2_ATREADY2_Msk         (0x1UL /*<< TPI_ITATBCTR2_ATREADY2_Pos*/)   /*!< TPI ITA
1351:Drivers/CMSIS/Include/core_cm7.h **** 
1352:Drivers/CMSIS/Include/core_cm7.h **** #define TPI_ITATBCTR2_ATREADY1_Pos          0U                                         /*!< TPI ITA
1353:Drivers/CMSIS/Include/core_cm7.h **** #define TPI_ITATBCTR2_ATREADY1_Msk         (0x1UL /*<< TPI_ITATBCTR2_ATREADY1_Pos*/)   /*!< TPI ITA
1354:Drivers/CMSIS/Include/core_cm7.h **** 
1355:Drivers/CMSIS/Include/core_cm7.h **** /* TPI Integration ITM Data Register Definitions (FIFO1) */
1356:Drivers/CMSIS/Include/core_cm7.h **** #define TPI_FIFO1_ITM_ATVALID_Pos          29U                                         /*!< TPI FIF
1357:Drivers/CMSIS/Include/core_cm7.h **** #define TPI_FIFO1_ITM_ATVALID_Msk          (0x3UL << TPI_FIFO1_ITM_ATVALID_Pos)        /*!< TPI FIF
1358:Drivers/CMSIS/Include/core_cm7.h **** 
1359:Drivers/CMSIS/Include/core_cm7.h **** #define TPI_FIFO1_ITM_bytecount_Pos        27U                                         /*!< TPI FIF
1360:Drivers/CMSIS/Include/core_cm7.h **** #define TPI_FIFO1_ITM_bytecount_Msk        (0x3UL << TPI_FIFO1_ITM_bytecount_Pos)      /*!< TPI FIF
1361:Drivers/CMSIS/Include/core_cm7.h **** 
1362:Drivers/CMSIS/Include/core_cm7.h **** #define TPI_FIFO1_ETM_ATVALID_Pos          26U                                         /*!< TPI FIF
1363:Drivers/CMSIS/Include/core_cm7.h **** #define TPI_FIFO1_ETM_ATVALID_Msk          (0x3UL << TPI_FIFO1_ETM_ATVALID_Pos)        /*!< TPI FIF
1364:Drivers/CMSIS/Include/core_cm7.h **** 
1365:Drivers/CMSIS/Include/core_cm7.h **** #define TPI_FIFO1_ETM_bytecount_Pos        24U                                         /*!< TPI FIF
1366:Drivers/CMSIS/Include/core_cm7.h **** #define TPI_FIFO1_ETM_bytecount_Msk        (0x3UL << TPI_FIFO1_ETM_bytecount_Pos)      /*!< TPI FIF
1367:Drivers/CMSIS/Include/core_cm7.h **** 
1368:Drivers/CMSIS/Include/core_cm7.h **** #define TPI_FIFO1_ITM2_Pos                 16U                                         /*!< TPI FIF
1369:Drivers/CMSIS/Include/core_cm7.h **** #define TPI_FIFO1_ITM2_Msk                 (0xFFUL << TPI_FIFO1_ITM2_Pos)              /*!< TPI FIF
1370:Drivers/CMSIS/Include/core_cm7.h **** 
1371:Drivers/CMSIS/Include/core_cm7.h **** #define TPI_FIFO1_ITM1_Pos                  8U                                         /*!< TPI FIF
1372:Drivers/CMSIS/Include/core_cm7.h **** #define TPI_FIFO1_ITM1_Msk                 (0xFFUL << TPI_FIFO1_ITM1_Pos)              /*!< TPI FIF
1373:Drivers/CMSIS/Include/core_cm7.h **** 
1374:Drivers/CMSIS/Include/core_cm7.h **** #define TPI_FIFO1_ITM0_Pos                  0U                                         /*!< TPI FIF
1375:Drivers/CMSIS/Include/core_cm7.h **** #define TPI_FIFO1_ITM0_Msk                 (0xFFUL /*<< TPI_FIFO1_ITM0_Pos*/)          /*!< TPI FIF
1376:Drivers/CMSIS/Include/core_cm7.h **** 
1377:Drivers/CMSIS/Include/core_cm7.h **** /* TPI ITATBCTR0 Register Definitions */
1378:Drivers/CMSIS/Include/core_cm7.h **** #define TPI_ITATBCTR0_ATREADY2_Pos          0U                                         /*!< TPI ITA
1379:Drivers/CMSIS/Include/core_cm7.h **** #define TPI_ITATBCTR0_ATREADY2_Msk         (0x1UL /*<< TPI_ITATBCTR0_ATREADY2_Pos*/)   /*!< TPI ITA
1380:Drivers/CMSIS/Include/core_cm7.h **** 
1381:Drivers/CMSIS/Include/core_cm7.h **** #define TPI_ITATBCTR0_ATREADY1_Pos          0U                                         /*!< TPI ITA
1382:Drivers/CMSIS/Include/core_cm7.h **** #define TPI_ITATBCTR0_ATREADY1_Msk         (0x1UL /*<< TPI_ITATBCTR0_ATREADY1_Pos*/)   /*!< TPI ITA
ARM GAS  C:\Users\Haruka\AppData\Local\Temp\ccgT5NLw.s 			page 61


1383:Drivers/CMSIS/Include/core_cm7.h **** 
1384:Drivers/CMSIS/Include/core_cm7.h **** /* TPI Integration Mode Control Register Definitions */
1385:Drivers/CMSIS/Include/core_cm7.h **** #define TPI_ITCTRL_Mode_Pos                 0U                                         /*!< TPI ITC
1386:Drivers/CMSIS/Include/core_cm7.h **** #define TPI_ITCTRL_Mode_Msk                (0x3UL /*<< TPI_ITCTRL_Mode_Pos*/)          /*!< TPI ITC
1387:Drivers/CMSIS/Include/core_cm7.h **** 
1388:Drivers/CMSIS/Include/core_cm7.h **** /* TPI DEVID Register Definitions */
1389:Drivers/CMSIS/Include/core_cm7.h **** #define TPI_DEVID_NRZVALID_Pos             11U                                         /*!< TPI DEV
1390:Drivers/CMSIS/Include/core_cm7.h **** #define TPI_DEVID_NRZVALID_Msk             (0x1UL << TPI_DEVID_NRZVALID_Pos)           /*!< TPI DEV
1391:Drivers/CMSIS/Include/core_cm7.h **** 
1392:Drivers/CMSIS/Include/core_cm7.h **** #define TPI_DEVID_MANCVALID_Pos            10U                                         /*!< TPI DEV
1393:Drivers/CMSIS/Include/core_cm7.h **** #define TPI_DEVID_MANCVALID_Msk            (0x1UL << TPI_DEVID_MANCVALID_Pos)          /*!< TPI DEV
1394:Drivers/CMSIS/Include/core_cm7.h **** 
1395:Drivers/CMSIS/Include/core_cm7.h **** #define TPI_DEVID_PTINVALID_Pos             9U                                         /*!< TPI DEV
1396:Drivers/CMSIS/Include/core_cm7.h **** #define TPI_DEVID_PTINVALID_Msk            (0x1UL << TPI_DEVID_PTINVALID_Pos)          /*!< TPI DEV
1397:Drivers/CMSIS/Include/core_cm7.h **** 
1398:Drivers/CMSIS/Include/core_cm7.h **** #define TPI_DEVID_MinBufSz_Pos              6U                                         /*!< TPI DEV
1399:Drivers/CMSIS/Include/core_cm7.h **** #define TPI_DEVID_MinBufSz_Msk             (0x7UL << TPI_DEVID_MinBufSz_Pos)           /*!< TPI DEV
1400:Drivers/CMSIS/Include/core_cm7.h **** 
1401:Drivers/CMSIS/Include/core_cm7.h **** #define TPI_DEVID_AsynClkIn_Pos             5U                                         /*!< TPI DEV
1402:Drivers/CMSIS/Include/core_cm7.h **** #define TPI_DEVID_AsynClkIn_Msk            (0x1UL << TPI_DEVID_AsynClkIn_Pos)          /*!< TPI DEV
1403:Drivers/CMSIS/Include/core_cm7.h **** 
1404:Drivers/CMSIS/Include/core_cm7.h **** #define TPI_DEVID_NrTraceInput_Pos          0U                                         /*!< TPI DEV
1405:Drivers/CMSIS/Include/core_cm7.h **** #define TPI_DEVID_NrTraceInput_Msk         (0x1FUL /*<< TPI_DEVID_NrTraceInput_Pos*/)  /*!< TPI DEV
1406:Drivers/CMSIS/Include/core_cm7.h **** 
1407:Drivers/CMSIS/Include/core_cm7.h **** /* TPI DEVTYPE Register Definitions */
1408:Drivers/CMSIS/Include/core_cm7.h **** #define TPI_DEVTYPE_SubType_Pos             4U                                         /*!< TPI DEV
1409:Drivers/CMSIS/Include/core_cm7.h **** #define TPI_DEVTYPE_SubType_Msk            (0xFUL /*<< TPI_DEVTYPE_SubType_Pos*/)      /*!< TPI DEV
1410:Drivers/CMSIS/Include/core_cm7.h **** 
1411:Drivers/CMSIS/Include/core_cm7.h **** #define TPI_DEVTYPE_MajorType_Pos           0U                                         /*!< TPI DEV
1412:Drivers/CMSIS/Include/core_cm7.h **** #define TPI_DEVTYPE_MajorType_Msk          (0xFUL << TPI_DEVTYPE_MajorType_Pos)        /*!< TPI DEV
1413:Drivers/CMSIS/Include/core_cm7.h **** 
1414:Drivers/CMSIS/Include/core_cm7.h **** /*@}*/ /* end of group CMSIS_TPI */
1415:Drivers/CMSIS/Include/core_cm7.h **** 
1416:Drivers/CMSIS/Include/core_cm7.h **** 
1417:Drivers/CMSIS/Include/core_cm7.h **** #if defined (__MPU_PRESENT) && (__MPU_PRESENT == 1U)
1418:Drivers/CMSIS/Include/core_cm7.h **** /**
1419:Drivers/CMSIS/Include/core_cm7.h ****   \ingroup  CMSIS_core_register
1420:Drivers/CMSIS/Include/core_cm7.h ****   \defgroup CMSIS_MPU     Memory Protection Unit (MPU)
1421:Drivers/CMSIS/Include/core_cm7.h ****   \brief    Type definitions for the Memory Protection Unit (MPU)
1422:Drivers/CMSIS/Include/core_cm7.h ****   @{
1423:Drivers/CMSIS/Include/core_cm7.h ****  */
1424:Drivers/CMSIS/Include/core_cm7.h **** 
1425:Drivers/CMSIS/Include/core_cm7.h **** /**
1426:Drivers/CMSIS/Include/core_cm7.h ****   \brief  Structure type to access the Memory Protection Unit (MPU).
1427:Drivers/CMSIS/Include/core_cm7.h ****  */
1428:Drivers/CMSIS/Include/core_cm7.h **** typedef struct
1429:Drivers/CMSIS/Include/core_cm7.h **** {
1430:Drivers/CMSIS/Include/core_cm7.h ****   __IM  uint32_t TYPE;                   /*!< Offset: 0x000 (R/ )  MPU Type Register */
1431:Drivers/CMSIS/Include/core_cm7.h ****   __IOM uint32_t CTRL;                   /*!< Offset: 0x004 (R/W)  MPU Control Register */
1432:Drivers/CMSIS/Include/core_cm7.h ****   __IOM uint32_t RNR;                    /*!< Offset: 0x008 (R/W)  MPU Region RNRber Register */
1433:Drivers/CMSIS/Include/core_cm7.h ****   __IOM uint32_t RBAR;                   /*!< Offset: 0x00C (R/W)  MPU Region Base Address Register
1434:Drivers/CMSIS/Include/core_cm7.h ****   __IOM uint32_t RASR;                   /*!< Offset: 0x010 (R/W)  MPU Region Attribute and Size Re
1435:Drivers/CMSIS/Include/core_cm7.h ****   __IOM uint32_t RBAR_A1;                /*!< Offset: 0x014 (R/W)  MPU Alias 1 Region Base Address 
1436:Drivers/CMSIS/Include/core_cm7.h ****   __IOM uint32_t RASR_A1;                /*!< Offset: 0x018 (R/W)  MPU Alias 1 Region Attribute and
1437:Drivers/CMSIS/Include/core_cm7.h ****   __IOM uint32_t RBAR_A2;                /*!< Offset: 0x01C (R/W)  MPU Alias 2 Region Base Address 
1438:Drivers/CMSIS/Include/core_cm7.h ****   __IOM uint32_t RASR_A2;                /*!< Offset: 0x020 (R/W)  MPU Alias 2 Region Attribute and
1439:Drivers/CMSIS/Include/core_cm7.h ****   __IOM uint32_t RBAR_A3;                /*!< Offset: 0x024 (R/W)  MPU Alias 3 Region Base Address 
ARM GAS  C:\Users\Haruka\AppData\Local\Temp\ccgT5NLw.s 			page 62


1440:Drivers/CMSIS/Include/core_cm7.h ****   __IOM uint32_t RASR_A3;                /*!< Offset: 0x028 (R/W)  MPU Alias 3 Region Attribute and
1441:Drivers/CMSIS/Include/core_cm7.h **** } MPU_Type;
1442:Drivers/CMSIS/Include/core_cm7.h **** 
1443:Drivers/CMSIS/Include/core_cm7.h **** #define MPU_TYPE_RALIASES                  4U
1444:Drivers/CMSIS/Include/core_cm7.h **** 
1445:Drivers/CMSIS/Include/core_cm7.h **** /* MPU Type Register Definitions */
1446:Drivers/CMSIS/Include/core_cm7.h **** #define MPU_TYPE_IREGION_Pos               16U                                            /*!< MPU 
1447:Drivers/CMSIS/Include/core_cm7.h **** #define MPU_TYPE_IREGION_Msk               (0xFFUL << MPU_TYPE_IREGION_Pos)               /*!< MPU 
1448:Drivers/CMSIS/Include/core_cm7.h **** 
1449:Drivers/CMSIS/Include/core_cm7.h **** #define MPU_TYPE_DREGION_Pos                8U                                            /*!< MPU 
1450:Drivers/CMSIS/Include/core_cm7.h **** #define MPU_TYPE_DREGION_Msk               (0xFFUL << MPU_TYPE_DREGION_Pos)               /*!< MPU 
1451:Drivers/CMSIS/Include/core_cm7.h **** 
1452:Drivers/CMSIS/Include/core_cm7.h **** #define MPU_TYPE_SEPARATE_Pos               0U                                            /*!< MPU 
1453:Drivers/CMSIS/Include/core_cm7.h **** #define MPU_TYPE_SEPARATE_Msk              (1UL /*<< MPU_TYPE_SEPARATE_Pos*/)             /*!< MPU 
1454:Drivers/CMSIS/Include/core_cm7.h **** 
1455:Drivers/CMSIS/Include/core_cm7.h **** /* MPU Control Register Definitions */
1456:Drivers/CMSIS/Include/core_cm7.h **** #define MPU_CTRL_PRIVDEFENA_Pos             2U                                            /*!< MPU 
1457:Drivers/CMSIS/Include/core_cm7.h **** #define MPU_CTRL_PRIVDEFENA_Msk            (1UL << MPU_CTRL_PRIVDEFENA_Pos)               /*!< MPU 
1458:Drivers/CMSIS/Include/core_cm7.h **** 
1459:Drivers/CMSIS/Include/core_cm7.h **** #define MPU_CTRL_HFNMIENA_Pos               1U                                            /*!< MPU 
1460:Drivers/CMSIS/Include/core_cm7.h **** #define MPU_CTRL_HFNMIENA_Msk              (1UL << MPU_CTRL_HFNMIENA_Pos)                 /*!< MPU 
1461:Drivers/CMSIS/Include/core_cm7.h **** 
1462:Drivers/CMSIS/Include/core_cm7.h **** #define MPU_CTRL_ENABLE_Pos                 0U                                            /*!< MPU 
1463:Drivers/CMSIS/Include/core_cm7.h **** #define MPU_CTRL_ENABLE_Msk                (1UL /*<< MPU_CTRL_ENABLE_Pos*/)               /*!< MPU 
1464:Drivers/CMSIS/Include/core_cm7.h **** 
1465:Drivers/CMSIS/Include/core_cm7.h **** /* MPU Region Number Register Definitions */
1466:Drivers/CMSIS/Include/core_cm7.h **** #define MPU_RNR_REGION_Pos                  0U                                            /*!< MPU 
1467:Drivers/CMSIS/Include/core_cm7.h **** #define MPU_RNR_REGION_Msk                 (0xFFUL /*<< MPU_RNR_REGION_Pos*/)             /*!< MPU 
1468:Drivers/CMSIS/Include/core_cm7.h **** 
1469:Drivers/CMSIS/Include/core_cm7.h **** /* MPU Region Base Address Register Definitions */
1470:Drivers/CMSIS/Include/core_cm7.h **** #define MPU_RBAR_ADDR_Pos                   5U                                            /*!< MPU 
1471:Drivers/CMSIS/Include/core_cm7.h **** #define MPU_RBAR_ADDR_Msk                  (0x7FFFFFFUL << MPU_RBAR_ADDR_Pos)             /*!< MPU 
1472:Drivers/CMSIS/Include/core_cm7.h **** 
1473:Drivers/CMSIS/Include/core_cm7.h **** #define MPU_RBAR_VALID_Pos                  4U                                            /*!< MPU 
1474:Drivers/CMSIS/Include/core_cm7.h **** #define MPU_RBAR_VALID_Msk                 (1UL << MPU_RBAR_VALID_Pos)                    /*!< MPU 
1475:Drivers/CMSIS/Include/core_cm7.h **** 
1476:Drivers/CMSIS/Include/core_cm7.h **** #define MPU_RBAR_REGION_Pos                 0U                                            /*!< MPU 
1477:Drivers/CMSIS/Include/core_cm7.h **** #define MPU_RBAR_REGION_Msk                (0xFUL /*<< MPU_RBAR_REGION_Pos*/)             /*!< MPU 
1478:Drivers/CMSIS/Include/core_cm7.h **** 
1479:Drivers/CMSIS/Include/core_cm7.h **** /* MPU Region Attribute and Size Register Definitions */
1480:Drivers/CMSIS/Include/core_cm7.h **** #define MPU_RASR_ATTRS_Pos                 16U                                            /*!< MPU 
1481:Drivers/CMSIS/Include/core_cm7.h **** #define MPU_RASR_ATTRS_Msk                 (0xFFFFUL << MPU_RASR_ATTRS_Pos)               /*!< MPU 
1482:Drivers/CMSIS/Include/core_cm7.h **** 
1483:Drivers/CMSIS/Include/core_cm7.h **** #define MPU_RASR_XN_Pos                    28U                                            /*!< MPU 
1484:Drivers/CMSIS/Include/core_cm7.h **** #define MPU_RASR_XN_Msk                    (1UL << MPU_RASR_XN_Pos)                       /*!< MPU 
1485:Drivers/CMSIS/Include/core_cm7.h **** 
1486:Drivers/CMSIS/Include/core_cm7.h **** #define MPU_RASR_AP_Pos                    24U                                            /*!< MPU 
1487:Drivers/CMSIS/Include/core_cm7.h **** #define MPU_RASR_AP_Msk                    (0x7UL << MPU_RASR_AP_Pos)                     /*!< MPU 
1488:Drivers/CMSIS/Include/core_cm7.h **** 
1489:Drivers/CMSIS/Include/core_cm7.h **** #define MPU_RASR_TEX_Pos                   19U                                            /*!< MPU 
1490:Drivers/CMSIS/Include/core_cm7.h **** #define MPU_RASR_TEX_Msk                   (0x7UL << MPU_RASR_TEX_Pos)                    /*!< MPU 
