ARM GAS  C:\Users\Haruka\AppData\Local\Temp\ccaaX2lN.s 			page 1


   1              		.cpu cortex-m7
   2              		.eabi_attribute 28, 1
   3              		.eabi_attribute 20, 1
   4              		.eabi_attribute 21, 1
   5              		.eabi_attribute 23, 3
   6              		.eabi_attribute 24, 1
   7              		.eabi_attribute 25, 1
   8              		.eabi_attribute 26, 1
   9              		.eabi_attribute 30, 1
  10              		.eabi_attribute 34, 1
  11              		.eabi_attribute 18, 4
  12              		.file	"spi.c"
  13              		.text
  14              	.Ltext0:
  15              		.cfi_sections	.debug_frame
  16              		.section	.text.MX_SPI5_Init,"ax",%progbits
  17              		.align	1
  18              		.global	MX_SPI5_Init
  19              		.arch armv7e-m
  20              		.syntax unified
  21              		.thumb
  22              		.thumb_func
  23              		.fpu fpv5-d16
  25              	MX_SPI5_Init:
  26              	.LFB141:
  27              		.file 1 "Src/spi.c"
   1:Src/spi.c     **** /**
   2:Src/spi.c     ****   ******************************************************************************
   3:Src/spi.c     ****   * File Name          : SPI.c
   4:Src/spi.c     ****   * Description        : This file provides code for the configuration
   5:Src/spi.c     ****   *                      of the SPI instances.
   6:Src/spi.c     ****   ******************************************************************************
   7:Src/spi.c     ****   * @attention
   8:Src/spi.c     ****   *
   9:Src/spi.c     ****   * <h2><center>&copy; Copyright (c) 2020 STMicroelectronics.
  10:Src/spi.c     ****   * All rights reserved.</center></h2>
  11:Src/spi.c     ****   *
  12:Src/spi.c     ****   * This software component is licensed by ST under BSD 3-Clause license,
  13:Src/spi.c     ****   * the "License"; You may not use this file except in compliance with the
  14:Src/spi.c     ****   * License. You may obtain a copy of the License at:
  15:Src/spi.c     ****   *                        opensource.org/licenses/BSD-3-Clause
  16:Src/spi.c     ****   *
  17:Src/spi.c     ****   ******************************************************************************
  18:Src/spi.c     ****   */
  19:Src/spi.c     **** 
  20:Src/spi.c     **** /* Includes ------------------------------------------------------------------*/
  21:Src/spi.c     **** #include "spi.h"
  22:Src/spi.c     **** 
  23:Src/spi.c     **** /* USER CODE BEGIN 0 */
  24:Src/spi.c     **** 
  25:Src/spi.c     **** /* USER CODE END 0 */
  26:Src/spi.c     **** 
  27:Src/spi.c     **** SPI_HandleTypeDef hspi5;
  28:Src/spi.c     **** 
  29:Src/spi.c     **** /* SPI5 init function */
  30:Src/spi.c     **** void MX_SPI5_Init(void)
  31:Src/spi.c     **** {
ARM GAS  C:\Users\Haruka\AppData\Local\Temp\ccaaX2lN.s 			page 2


  28              		.loc 1 31 1 view -0
  29              		.cfi_startproc
  30              		@ args = 0, pretend = 0, frame = 0
  31              		@ frame_needed = 0, uses_anonymous_args = 0
  32 0000 08B5     		push	{r3, lr}
  33              	.LCFI0:
  34              		.cfi_def_cfa_offset 8
  35              		.cfi_offset 3, -8
  36              		.cfi_offset 14, -4
  32:Src/spi.c     **** 
  33:Src/spi.c     ****   hspi5.Instance = SPI5;
  37              		.loc 1 33 3 view .LVU1
  38              		.loc 1 33 18 is_stmt 0 view .LVU2
  39 0002 0F48     		ldr	r0, .L5
  40 0004 0F4B     		ldr	r3, .L5+4
  41 0006 0360     		str	r3, [r0]
  34:Src/spi.c     ****   hspi5.Init.Mode = SPI_MODE_MASTER;
  42              		.loc 1 34 3 is_stmt 1 view .LVU3
  43              		.loc 1 34 19 is_stmt 0 view .LVU4
  44 0008 4FF48273 		mov	r3, #260
  45 000c 4360     		str	r3, [r0, #4]
  35:Src/spi.c     ****   hspi5.Init.Direction = SPI_DIRECTION_2LINES;
  46              		.loc 1 35 3 is_stmt 1 view .LVU5
  47              		.loc 1 35 24 is_stmt 0 view .LVU6
  48 000e 0023     		movs	r3, #0
  49 0010 8360     		str	r3, [r0, #8]
  36:Src/spi.c     ****   hspi5.Init.DataSize = SPI_DATASIZE_8BIT;
  50              		.loc 1 36 3 is_stmt 1 view .LVU7
  51              		.loc 1 36 23 is_stmt 0 view .LVU8
  52 0012 4FF4E062 		mov	r2, #1792
  53 0016 C260     		str	r2, [r0, #12]
  37:Src/spi.c     ****   hspi5.Init.CLKPolarity = SPI_POLARITY_LOW;
  54              		.loc 1 37 3 is_stmt 1 view .LVU9
  55              		.loc 1 37 26 is_stmt 0 view .LVU10
  56 0018 0361     		str	r3, [r0, #16]
  38:Src/spi.c     ****   hspi5.Init.CLKPhase = SPI_PHASE_1EDGE;
  57              		.loc 1 38 3 is_stmt 1 view .LVU11
  58              		.loc 1 38 23 is_stmt 0 view .LVU12
  59 001a 4361     		str	r3, [r0, #20]
  39:Src/spi.c     ****   hspi5.Init.NSS = SPI_NSS_SOFT;
  60              		.loc 1 39 3 is_stmt 1 view .LVU13
  61              		.loc 1 39 18 is_stmt 0 view .LVU14
  62 001c 4FF40072 		mov	r2, #512
  63 0020 8261     		str	r2, [r0, #24]
  40:Src/spi.c     ****   hspi5.Init.BaudRatePrescaler = SPI_BAUDRATEPRESCALER_2;
  64              		.loc 1 40 3 is_stmt 1 view .LVU15
  65              		.loc 1 40 32 is_stmt 0 view .LVU16
  66 0022 C361     		str	r3, [r0, #28]
  41:Src/spi.c     ****   hspi5.Init.FirstBit = SPI_FIRSTBIT_MSB;
  67              		.loc 1 41 3 is_stmt 1 view .LVU17
  68              		.loc 1 41 23 is_stmt 0 view .LVU18
  69 0024 0362     		str	r3, [r0, #32]
  42:Src/spi.c     ****   hspi5.Init.TIMode = SPI_TIMODE_DISABLE;
  70              		.loc 1 42 3 is_stmt 1 view .LVU19
  71              		.loc 1 42 21 is_stmt 0 view .LVU20
  72 0026 4362     		str	r3, [r0, #36]
  43:Src/spi.c     ****   hspi5.Init.CRCCalculation = SPI_CRCCALCULATION_DISABLE;
ARM GAS  C:\Users\Haruka\AppData\Local\Temp\ccaaX2lN.s 			page 3


  73              		.loc 1 43 3 is_stmt 1 view .LVU21
  74              		.loc 1 43 29 is_stmt 0 view .LVU22
  75 0028 8362     		str	r3, [r0, #40]
  44:Src/spi.c     ****   hspi5.Init.CRCPolynomial = 7;
  76              		.loc 1 44 3 is_stmt 1 view .LVU23
  77              		.loc 1 44 28 is_stmt 0 view .LVU24
  78 002a 0722     		movs	r2, #7
  79 002c C262     		str	r2, [r0, #44]
  45:Src/spi.c     ****   hspi5.Init.CRCLength = SPI_CRC_LENGTH_DATASIZE;
  80              		.loc 1 45 3 is_stmt 1 view .LVU25
  81              		.loc 1 45 24 is_stmt 0 view .LVU26
  82 002e 0363     		str	r3, [r0, #48]
  46:Src/spi.c     ****   hspi5.Init.NSSPMode = SPI_NSS_PULSE_DISABLE;
  83              		.loc 1 46 3 is_stmt 1 view .LVU27
  84              		.loc 1 46 23 is_stmt 0 view .LVU28
  85 0030 4363     		str	r3, [r0, #52]
  47:Src/spi.c     ****   if (HAL_SPI_Init(&hspi5) != HAL_OK)
  86              		.loc 1 47 3 is_stmt 1 view .LVU29
  87              		.loc 1 47 7 is_stmt 0 view .LVU30
  88 0032 FFF7FEFF 		bl	HAL_SPI_Init
  89              	.LVL0:
  90              		.loc 1 47 6 view .LVU31
  91 0036 00B9     		cbnz	r0, .L4
  92              	.L1:
  48:Src/spi.c     ****   {
  49:Src/spi.c     ****     Error_Handler();
  50:Src/spi.c     ****   }
  51:Src/spi.c     **** 
  52:Src/spi.c     **** }
  93              		.loc 1 52 1 view .LVU32
  94 0038 08BD     		pop	{r3, pc}
  95              	.L4:
  49:Src/spi.c     ****   }
  96              		.loc 1 49 5 is_stmt 1 view .LVU33
  97 003a FFF7FEFF 		bl	Error_Handler
  98              	.LVL1:
  99              		.loc 1 52 1 is_stmt 0 view .LVU34
 100 003e FBE7     		b	.L1
 101              	.L6:
 102              		.align	2
 103              	.L5:
 104 0040 00000000 		.word	hspi5
 105 0044 00500140 		.word	1073827840
 106              		.cfi_endproc
 107              	.LFE141:
 109              		.section	.text.HAL_SPI_MspInit,"ax",%progbits
 110              		.align	1
 111              		.global	HAL_SPI_MspInit
 112              		.syntax unified
 113              		.thumb
 114              		.thumb_func
 115              		.fpu fpv5-d16
 117              	HAL_SPI_MspInit:
 118              	.LVL2:
 119              	.LFB142:
  53:Src/spi.c     **** 
  54:Src/spi.c     **** void HAL_SPI_MspInit(SPI_HandleTypeDef* spiHandle)
ARM GAS  C:\Users\Haruka\AppData\Local\Temp\ccaaX2lN.s 			page 4


  55:Src/spi.c     **** {
 120              		.loc 1 55 1 is_stmt 1 view -0
 121              		.cfi_startproc
 122              		@ args = 0, pretend = 0, frame = 32
 123              		@ frame_needed = 0, uses_anonymous_args = 0
 124              		.loc 1 55 1 is_stmt 0 view .LVU36
 125 0000 00B5     		push	{lr}
 126              	.LCFI1:
 127              		.cfi_def_cfa_offset 4
 128              		.cfi_offset 14, -4
 129 0002 89B0     		sub	sp, sp, #36
 130              	.LCFI2:
 131              		.cfi_def_cfa_offset 40
  56:Src/spi.c     **** 
  57:Src/spi.c     ****   GPIO_InitTypeDef GPIO_InitStruct = {0};
 132              		.loc 1 57 3 is_stmt 1 view .LVU37
 133              		.loc 1 57 20 is_stmt 0 view .LVU38
 134 0004 0023     		movs	r3, #0
 135 0006 0393     		str	r3, [sp, #12]
 136 0008 0493     		str	r3, [sp, #16]
 137 000a 0593     		str	r3, [sp, #20]
 138 000c 0693     		str	r3, [sp, #24]
 139 000e 0793     		str	r3, [sp, #28]
  58:Src/spi.c     ****   if(spiHandle->Instance==SPI5)
 140              		.loc 1 58 3 is_stmt 1 view .LVU39
 141              		.loc 1 58 15 is_stmt 0 view .LVU40
 142 0010 0268     		ldr	r2, [r0]
 143              		.loc 1 58 5 view .LVU41
 144 0012 154B     		ldr	r3, .L11
 145 0014 9A42     		cmp	r2, r3
 146 0016 02D0     		beq	.L10
 147              	.LVL3:
 148              	.L7:
  59:Src/spi.c     ****   {
  60:Src/spi.c     ****   /* USER CODE BEGIN SPI5_MspInit 0 */
  61:Src/spi.c     **** 
  62:Src/spi.c     ****   /* USER CODE END SPI5_MspInit 0 */
  63:Src/spi.c     ****     /* SPI5 clock enable */
  64:Src/spi.c     ****     __HAL_RCC_SPI5_CLK_ENABLE();
  65:Src/spi.c     ****   
  66:Src/spi.c     ****     __HAL_RCC_GPIOF_CLK_ENABLE();
  67:Src/spi.c     ****     /**SPI5 GPIO Configuration    
  68:Src/spi.c     ****     PF7     ------> SPI5_SCK
  69:Src/spi.c     ****     PF8     ------> SPI5_MISO
  70:Src/spi.c     ****     PF9     ------> SPI5_MOSI 
  71:Src/spi.c     ****     */
  72:Src/spi.c     ****     GPIO_InitStruct.Pin = GPIO_PIN_7|GPIO_PIN_8|GPIO_PIN_9;
  73:Src/spi.c     ****     GPIO_InitStruct.Mode = GPIO_MODE_AF_PP;
  74:Src/spi.c     ****     GPIO_InitStruct.Pull = GPIO_NOPULL;
  75:Src/spi.c     ****     GPIO_InitStruct.Speed = GPIO_SPEED_FREQ_VERY_HIGH;
  76:Src/spi.c     ****     GPIO_InitStruct.Alternate = GPIO_AF5_SPI5;
  77:Src/spi.c     ****     HAL_GPIO_Init(GPIOF, &GPIO_InitStruct);
  78:Src/spi.c     **** 
  79:Src/spi.c     ****   /* USER CODE BEGIN SPI5_MspInit 1 */
  80:Src/spi.c     **** 
  81:Src/spi.c     ****   /* USER CODE END SPI5_MspInit 1 */
  82:Src/spi.c     ****   }
ARM GAS  C:\Users\Haruka\AppData\Local\Temp\ccaaX2lN.s 			page 5


  83:Src/spi.c     **** }
 149              		.loc 1 83 1 view .LVU42
 150 0018 09B0     		add	sp, sp, #36
 151              	.LCFI3:
 152              		.cfi_remember_state
 153              		.cfi_def_cfa_offset 4
 154              		@ sp needed
 155 001a 5DF804FB 		ldr	pc, [sp], #4
 156              	.LVL4:
 157              	.L10:
 158              	.LCFI4:
 159              		.cfi_restore_state
  64:Src/spi.c     ****   
 160              		.loc 1 64 5 is_stmt 1 view .LVU43
 161              	.LBB2:
  64:Src/spi.c     ****   
 162              		.loc 1 64 5 view .LVU44
  64:Src/spi.c     ****   
 163              		.loc 1 64 5 view .LVU45
 164 001e 03F56843 		add	r3, r3, #59392
 165 0022 5A6C     		ldr	r2, [r3, #68]
 166 0024 42F48012 		orr	r2, r2, #1048576
 167 0028 5A64     		str	r2, [r3, #68]
  64:Src/spi.c     ****   
 168              		.loc 1 64 5 view .LVU46
 169 002a 5A6C     		ldr	r2, [r3, #68]
 170 002c 02F48012 		and	r2, r2, #1048576
 171 0030 0192     		str	r2, [sp, #4]
  64:Src/spi.c     ****   
 172              		.loc 1 64 5 view .LVU47
 173 0032 019A     		ldr	r2, [sp, #4]
 174              	.LBE2:
  64:Src/spi.c     ****   
 175              		.loc 1 64 5 view .LVU48
  66:Src/spi.c     ****     /**SPI5 GPIO Configuration    
 176              		.loc 1 66 5 view .LVU49
 177              	.LBB3:
  66:Src/spi.c     ****     /**SPI5 GPIO Configuration    
 178              		.loc 1 66 5 view .LVU50
  66:Src/spi.c     ****     /**SPI5 GPIO Configuration    
 179              		.loc 1 66 5 view .LVU51
 180 0034 1A6B     		ldr	r2, [r3, #48]
 181 0036 42F02002 		orr	r2, r2, #32
 182 003a 1A63     		str	r2, [r3, #48]
  66:Src/spi.c     ****     /**SPI5 GPIO Configuration    
 183              		.loc 1 66 5 view .LVU52
 184 003c 1B6B     		ldr	r3, [r3, #48]
 185 003e 03F02003 		and	r3, r3, #32
 186 0042 0293     		str	r3, [sp, #8]
  66:Src/spi.c     ****     /**SPI5 GPIO Configuration    
 187              		.loc 1 66 5 view .LVU53
 188 0044 029B     		ldr	r3, [sp, #8]
 189              	.LBE3:
  66:Src/spi.c     ****     /**SPI5 GPIO Configuration    
 190              		.loc 1 66 5 view .LVU54
  72:Src/spi.c     ****     GPIO_InitStruct.Mode = GPIO_MODE_AF_PP;
 191              		.loc 1 72 5 view .LVU55
ARM GAS  C:\Users\Haruka\AppData\Local\Temp\ccaaX2lN.s 			page 6


  72:Src/spi.c     ****     GPIO_InitStruct.Mode = GPIO_MODE_AF_PP;
 192              		.loc 1 72 25 is_stmt 0 view .LVU56
 193 0046 4FF46073 		mov	r3, #896
 194 004a 0393     		str	r3, [sp, #12]
  73:Src/spi.c     ****     GPIO_InitStruct.Pull = GPIO_NOPULL;
 195              		.loc 1 73 5 is_stmt 1 view .LVU57
  73:Src/spi.c     ****     GPIO_InitStruct.Pull = GPIO_NOPULL;
 196              		.loc 1 73 26 is_stmt 0 view .LVU58
 197 004c 0223     		movs	r3, #2
 198 004e 0493     		str	r3, [sp, #16]
  74:Src/spi.c     ****     GPIO_InitStruct.Speed = GPIO_SPEED_FREQ_VERY_HIGH;
 199              		.loc 1 74 5 is_stmt 1 view .LVU59
  74:Src/spi.c     ****     GPIO_InitStruct.Speed = GPIO_SPEED_FREQ_VERY_HIGH;
 200              		.loc 1 74 26 is_stmt 0 view .LVU60
 201 0050 0023     		movs	r3, #0
 202 0052 0593     		str	r3, [sp, #20]
  75:Src/spi.c     ****     GPIO_InitStruct.Alternate = GPIO_AF5_SPI5;
 203              		.loc 1 75 5 is_stmt 1 view .LVU61
  75:Src/spi.c     ****     GPIO_InitStruct.Alternate = GPIO_AF5_SPI5;
 204              		.loc 1 75 27 is_stmt 0 view .LVU62
 205 0054 0323     		movs	r3, #3
 206 0056 0693     		str	r3, [sp, #24]
  76:Src/spi.c     ****     HAL_GPIO_Init(GPIOF, &GPIO_InitStruct);
 207              		.loc 1 76 5 is_stmt 1 view .LVU63
  76:Src/spi.c     ****     HAL_GPIO_Init(GPIOF, &GPIO_InitStruct);
 208              		.loc 1 76 31 is_stmt 0 view .LVU64
 209 0058 0523     		movs	r3, #5
 210 005a 0793     		str	r3, [sp, #28]
  77:Src/spi.c     **** 
 211              		.loc 1 77 5 is_stmt 1 view .LVU65
 212 005c 03A9     		add	r1, sp, #12
 213 005e 0348     		ldr	r0, .L11+4
 214              	.LVL5:
  77:Src/spi.c     **** 
 215              		.loc 1 77 5 is_stmt 0 view .LVU66
 216 0060 FFF7FEFF 		bl	HAL_GPIO_Init
 217              	.LVL6:
 218              		.loc 1 83 1 view .LVU67
 219 0064 D8E7     		b	.L7
 220              	.L12:
 221 0066 00BF     		.align	2
 222              	.L11:
 223 0068 00500140 		.word	1073827840
 224 006c 00140240 		.word	1073878016
 225              		.cfi_endproc
 226              	.LFE142:
 228              		.section	.text.HAL_SPI_MspDeInit,"ax",%progbits
 229              		.align	1
 230              		.global	HAL_SPI_MspDeInit
 231              		.syntax unified
 232              		.thumb
 233              		.thumb_func
 234              		.fpu fpv5-d16
 236              	HAL_SPI_MspDeInit:
 237              	.LVL7:
 238              	.LFB143:
  84:Src/spi.c     **** 
ARM GAS  C:\Users\Haruka\AppData\Local\Temp\ccaaX2lN.s 			page 7


  85:Src/spi.c     **** void HAL_SPI_MspDeInit(SPI_HandleTypeDef* spiHandle)
  86:Src/spi.c     **** {
 239              		.loc 1 86 1 is_stmt 1 view -0
 240              		.cfi_startproc
 241              		@ args = 0, pretend = 0, frame = 0
 242              		@ frame_needed = 0, uses_anonymous_args = 0
 243              		.loc 1 86 1 is_stmt 0 view .LVU69
 244 0000 08B5     		push	{r3, lr}
 245              	.LCFI5:
 246              		.cfi_def_cfa_offset 8
 247              		.cfi_offset 3, -8
 248              		.cfi_offset 14, -4
  87:Src/spi.c     **** 
  88:Src/spi.c     ****   if(spiHandle->Instance==SPI5)
 249              		.loc 1 88 3 is_stmt 1 view .LVU70
 250              		.loc 1 88 15 is_stmt 0 view .LVU71
 251 0002 0268     		ldr	r2, [r0]
 252              		.loc 1 88 5 view .LVU72
 253 0004 074B     		ldr	r3, .L17
 254 0006 9A42     		cmp	r2, r3
 255 0008 00D0     		beq	.L16
 256              	.LVL8:
 257              	.L13:
  89:Src/spi.c     ****   {
  90:Src/spi.c     ****   /* USER CODE BEGIN SPI5_MspDeInit 0 */
  91:Src/spi.c     **** 
  92:Src/spi.c     ****   /* USER CODE END SPI5_MspDeInit 0 */
  93:Src/spi.c     ****     /* Peripheral clock disable */
  94:Src/spi.c     ****     __HAL_RCC_SPI5_CLK_DISABLE();
  95:Src/spi.c     ****   
  96:Src/spi.c     ****     /**SPI5 GPIO Configuration    
  97:Src/spi.c     ****     PF7     ------> SPI5_SCK
  98:Src/spi.c     ****     PF8     ------> SPI5_MISO
  99:Src/spi.c     ****     PF9     ------> SPI5_MOSI 
 100:Src/spi.c     ****     */
 101:Src/spi.c     ****     HAL_GPIO_DeInit(GPIOF, GPIO_PIN_7|GPIO_PIN_8|GPIO_PIN_9);
 102:Src/spi.c     **** 
 103:Src/spi.c     ****   /* USER CODE BEGIN SPI5_MspDeInit 1 */
 104:Src/spi.c     **** 
 105:Src/spi.c     ****   /* USER CODE END SPI5_MspDeInit 1 */
 106:Src/spi.c     ****   }
 107:Src/spi.c     **** } 
 258              		.loc 1 107 1 view .LVU73
 259 000a 08BD     		pop	{r3, pc}
 260              	.LVL9:
 261              	.L16:
  94:Src/spi.c     ****   
 262              		.loc 1 94 5 is_stmt 1 view .LVU74
 263 000c 064A     		ldr	r2, .L17+4
 264 000e 536C     		ldr	r3, [r2, #68]
 265 0010 23F48013 		bic	r3, r3, #1048576
 266 0014 5364     		str	r3, [r2, #68]
 101:Src/spi.c     **** 
 267              		.loc 1 101 5 view .LVU75
 268 0016 4FF46071 		mov	r1, #896
 269 001a 0448     		ldr	r0, .L17+8
 270              	.LVL10:
ARM GAS  C:\Users\Haruka\AppData\Local\Temp\ccaaX2lN.s 			page 8


 101:Src/spi.c     **** 
 271              		.loc 1 101 5 is_stmt 0 view .LVU76
 272 001c FFF7FEFF 		bl	HAL_GPIO_DeInit
 273              	.LVL11:
 274              		.loc 1 107 1 view .LVU77
 275 0020 F3E7     		b	.L13
 276              	.L18:
 277 0022 00BF     		.align	2
 278              	.L17:
 279 0024 00500140 		.word	1073827840
 280 0028 00380240 		.word	1073887232
 281 002c 00140240 		.word	1073878016
 282              		.cfi_endproc
 283              	.LFE143:
 285              		.comm	hspi5,100,4
 286              		.text
 287              	.Letext0:
 288              		.file 2 "c:\\vsarm\\armcc\\arm-none-eabi\\include\\machine\\_default_types.h"
 289              		.file 3 "c:\\vsarm\\armcc\\arm-none-eabi\\include\\sys\\_stdint.h"
 290              		.file 4 "Drivers/CMSIS/Include/core_cm7.h"
 291              		.file 5 "Drivers/CMSIS/Device/ST/STM32F7xx/Include/system_stm32f7xx.h"
 292              		.file 6 "Drivers/CMSIS/Device/ST/STM32F7xx/Include/stm32f767xx.h"
 293              		.file 7 "Drivers/STM32F7xx_HAL_Driver/Inc/stm32f7xx_hal_def.h"
 294              		.file 8 "Drivers/STM32F7xx_HAL_Driver/Inc/stm32f7xx_hal_gpio.h"
 295              		.file 9 "Drivers/STM32F7xx_HAL_Driver/Inc/stm32f7xx_hal_dma.h"
 296              		.file 10 "Drivers/STM32F7xx_HAL_Driver/Inc/stm32f7xx_hal_spi.h"
 297              		.file 11 "Drivers/STM32F7xx_HAL_Driver/Inc/stm32f7xx_hal.h"
 298              		.file 12 "Inc/spi.h"
 299              		.file 13 "Inc/main.h"
ARM GAS  C:\Users\Haruka\AppData\Local\Temp\ccaaX2lN.s 			page 9

